 VIP Linker 8.
  Module 'C:\Users\A7ttim\Documents\Visual Prolog Projects\Lab_2\Exe\Lab_2.exe' Map. Fri Dec  8 12:33:53 2017

Frame 001000   Size 059130.  Name=<   .text>, 	Chars=60000020h. [CER]
Frame 05B000   Size 0007B0.  Name=<  VIPini>, 	Chars=40000040h. [IR]
Frame 05C000   Size 000010.  Name=<  VIPsym>, 	Chars=40000040h. [IR]
Frame 05D000   Size 001080.  Name=<  VIPtpd>, 	Chars=40000040h. [IR]
Frame 05F000   Size 0010B0.  Name=<  VIPtpl>, 	Chars=40000040h. [IR]
Frame 061000   Size 042EE0.  Name=<  .rdata>, 	Chars=40000040h. [IR]
Frame 0A4000   Size 0003F0.  Name=<  PRODBG>, 	Chars=40000040h. [IR]
Frame 0A5000   Size 002DF0.  Name=<   .data>, 	Chars=C0000040h. [IRW]
Frame 0A8000   Size 000050.  Name=< .gcroot>, 	Chars=C0000040h. [IRW]

	--- S e g m e n t s : ---

Frame 001000   Size 059130.  Name=<   .text>, 	Chars=60000020h. [CER]
001000:000000 058F50   .text::CODE::<no group> F=4
   001000   Module 'Obj\segmented_binary.C16992E7.obj'
   001A90   Module 'Obj\segmented_utf16.76E668A2.obj'
   002490   Module 'Obj\segmentedsupport.2BAFE67D.obj'
   004550   Module 'Obj\weakreference.0A1AF11C.obj'
   004870   Module 'Obj\namedvalue.6D52B2A6.obj'
   005E00   Module 'Obj\presenter.E6E77556.obj'
   0073D0   Module 'Obj\programcontrol.2B27F1CB.obj'
   007410   Module 'Obj\reflection.ACE59E5C.obj'
   0096C0   Module 'Obj\registry.917E8C91.obj'
   00A5E0   Module 'Obj\std.2DE0EC97.obj'
   00AFC0   Module 'Obj\inputstreamsupport.7AF62102.obj'
   00B3A0   Module 'Obj\outputstreamsupport.6F229CFB.obj'
   00CA80   Module 'Obj\stream.8B55AAA7.obj'
   00DA30   Module 'Obj\string.19AABD3B.obj'
   0137A0   Module 'Obj\string8.355639C6.obj'
   0143A0   Module 'Obj\time.6AFD2988.obj'
   01BE40   Module 'Obj\vpidomains.E7102A6D.obj'
   01C110   Module 'Obj\console_api.1787DB80.obj'
   01C280   Module 'Obj\exe_api.026B8342.obj'
   01C810   Module 'Obj\filesystem_api.C5B8AF1A.obj'
   01EF20   Module 'Obj\gui_api.9FE53D0D.obj'
   023F30   Module 'Obj\locale_api.2E000328.obj'
   0241C0   Module 'Obj\memory_api.EF10D306.obj'
   024930   Module 'Obj\multithread_api.57E3A62D.obj'
   025C70   Module 'Obj\registry_api.CF388C66.obj'
   026FD0   Module 'Obj\runtime_api.B1A642EC.obj'
   027440   Module 'Obj\shell_api.E8D4E14B.obj'
   027820   Module 'Obj\string8_api.53D65538.obj'
   0279D0   Module 'Obj\systeminformation_api.809129C1.obj'
   027F10   Module 'Obj\time_api.32F5932A.obj'
   029BF0   Module 'Obj\windowsapi.FC171F8F.obj'
   029E90   Module 'Obj\winerrors.9B153E38.obj'
   029ED0   Module 'Obj\main.789E136F.obj'
   02A0C0   Module 'Obj\exe.D80FC844.obj'
   02A3F0   Module 'Obj\iterator.60C55021.obj'
   02A840   Module 'Obj\binary.248EF86D.obj'
   02EAA0   Module 'Obj\boolean.DE5055E8.obj'
   02EBC0   Module 'Obj\redblackset.DC1C3622.obj'
   030890   Module 'Obj\redblacktree.401E21A0.obj'
   030DB0   Module 'Obj\redblacktreerep.E6A269FA.obj'
   0344C0   Module 'Obj\arraym_inline.F665267A.obj'
   036530   Module 'Obj\mapm_redblack.875A0474.obj'
   036E20   Module 'Obj\setm_redblack.16EF8DC5.obj'
   037510   Module 'Obj\varm.B882E173.obj'
   039170   Module 'Obj\collectionmsupport.3A44ED4E.obj'
   039420   Module 'Obj\collectionsupport.A039CC0D.obj'
   039630   Module 'Obj\mapmsupport.8CD6C048.obj'
   039E00   Module 'Obj\mapsupport.C7248B7B.obj'
   03A520   Module 'Obj\modifiablesupport.5D48FFF1.obj'
   03A7D0   Module 'Obj\console.E8EB4F3C.obj'
   03CF20   Module 'Obj\core.5D9B9483.obj'
   03E7D0   Module 'Obj\event.D92D3A63.obj'
   042AD0   Module 'Obj\exception.B6F320E8.obj'
   045100   Module 'Obj\exceptiondump.2B9C9E40.obj'
   046570   Module 'Obj\filesystem.5B0F823E.obj'
   04F020   Module 'Obj\list.A75CEA31.obj'
   056510   Module 'Obj\math.5D7D6037.obj'
   057D60   Module 'Obj\memory.568C55F8.obj'
   059B80   Module 'Obj\segmented.E9C86B20.obj'
001000:058F50 0001E0   .text$mn::CODE::<no group> F=4
   059F50   Module '..\..\..\_intermediate\sourceVS\vipInit\Win32\ReleasePE\VIPMain.obj'
   059FC0   Module '..\..\..\_intermediate\sourceVS\vipInit\Win32\ReleasePE\VIPDll.obj'
   05A110   Module '..\..\..\_intermediate\sourceVS\vipInit\Win32\ReleasePE\VIPPE.obj'

Frame 05B000   Size 0007B0.  Name=<  VIPini>, 	Chars=40000040h. [IR]
05B000:000000 000004   VIPini$A::VIPini$A::VIPini F=4
   05B000   Module 'Obj\main.789E136F.obj'
05B000:000004 00032C   VIPini$C::VIPini$C::VIPini F=4
   05B004   Module 'Obj\segmented_binary.C16992E7.obj'
   05B018   Module 'Obj\segmented_utf16.76E668A2.obj'
   05B01C   Module 'Obj\segmentedsupport.2BAFE67D.obj'
   05B024   Module 'Obj\weakreference.0A1AF11C.obj'
   05B04C   Module 'Obj\namedvalue.6D52B2A6.obj'
   05B050   Module 'Obj\presenter.E6E77556.obj'
   05B054   Module 'Obj\programcontrol.2B27F1CB.obj'
   05B058   Module 'Obj\reflection.ACE59E5C.obj'
   05B0D0   Module 'Obj\typelibrary.6EC19AA0.obj'
   05B0D0   Module 'Obj\registry.917E8C91.obj'
   05B0D8   Module 'Obj\std.2DE0EC97.obj'
   05B0DC   Module 'Obj\inputstreamsupport.7AF62102.obj'
   05B0E0   Module 'Obj\outputstreamsupport.6F229CFB.obj'
   05B0F8   Module 'Obj\stream.8B55AAA7.obj'
   05B10C   Module 'Obj\string.19AABD3B.obj'
   05B11C   Module 'Obj\string8.355639C6.obj'
   05B120   Module 'Obj\time.6AFD2988.obj'
   05B154   Module 'Obj\vpidomains.E7102A6D.obj'
   05B15C   Module 'Obj\console_api.1787DB80.obj'
   05B164   Module 'Obj\exe_api.026B8342.obj'
   05B16C   Module 'Obj\filesystem_api.C5B8AF1A.obj'
   05B178   Module 'Obj\gui_api.9FE53D0D.obj'
   05B1B4   Module 'Obj\hash_api.96B8CAEE.obj'
   05B1B8   Module 'Obj\locale_api.2E000328.obj'
   05B1C0   Module 'Obj\memory_api.EF10D306.obj'
   05B1C8   Module 'Obj\multithread_api.57E3A62D.obj'
   05B1D0   Module 'Obj\registry_api.CF388C66.obj'
   05B1D8   Module 'Obj\runtime_api.B1A642EC.obj'
   05B1DC   Module 'Obj\shell_api.E8D4E14B.obj'
   05B1EC   Module 'Obj\string_api.2E13EA53.obj'
   05B1F0   Module 'Obj\string8_api.53D65538.obj'
   05B1F8   Module 'Obj\systeminformation_api.809129C1.obj'
   05B200   Module 'Obj\time_api.32F5932A.obj'
   05B208   Module 'Obj\windowsapi.FC171F8F.obj'
   05B20C   Module 'Obj\winerrors.9B153E38.obj'
   05B210   Module 'Obj\main.789E136F.obj'
   05B220   Module 'Obj\exe.D80FC844.obj'
   05B224   Module 'Obj\iterator.60C55021.obj'
   05B228   Module 'Obj\binary.248EF86D.obj'
   05B238   Module 'Obj\boolean.DE5055E8.obj'
   05B23C   Module 'Obj\redblackset.DC1C3622.obj'
   05B240   Module 'Obj\redblacktree.401E21A0.obj'
   05B244   Module 'Obj\redblacktreerep.E6A269FA.obj'
   05B248   Module 'Obj\collection.A520841C.obj'
   05B248   Module 'Obj\arraym_inline.F665267A.obj'
   05B270   Module 'Obj\mapm_redblack.875A0474.obj'
   05B274   Module 'Obj\setm_redblack.16EF8DC5.obj'
   05B280   Module 'Obj\varm.B882E173.obj'
   05B29C   Module 'Obj\collectionmsupport.3A44ED4E.obj'
   05B2A0   Module 'Obj\collectionsupport.A039CC0D.obj'
   05B2A4   Module 'Obj\mapmsupport.8CD6C048.obj'
   05B2A8   Module 'Obj\mapsupport.C7248B7B.obj'
   05B2AC   Module 'Obj\modifiablesupport.5D48FFF1.obj'
   05B2B0   Module 'Obj\console.E8EB4F3C.obj'
   05B2BC   Module 'Obj\core.5D9B9483.obj'
   05B2C4   Module 'Obj\event.D92D3A63.obj'
   05B2E4   Module 'Obj\exception.B6F320E8.obj'
   05B2F4   Module 'Obj\exceptiondump.2B9C9E40.obj'
   05B2F8   Module 'Obj\filesystem.5B0F823E.obj'
   05B318   Module 'Obj\list.A75CEA31.obj'
   05B31C   Module 'Obj\math.5D7D6037.obj'
   05B324   Module 'Obj\memory.568C55F8.obj'
   05B32C   Module 'Obj\segmented.E9C86B20.obj'
05B000:000330 000008   VIPini$E::VIPini$E::VIPini F=4
   05B330   Module 'Obj\main.789E136F.obj'

Frame 05C000   Size 000010.  Name=<  VIPsym>, 	Chars=40000040h. [IR]
05C000:000000 000004   VIPsym$A::VIPsym$A::VIPsym F=4
   05C000   Module 'Obj\main.789E136F.obj'
05C000:000004 000000   VIPsym$C::VIPsym$C::VIPsym F=4
   05C004   Module 'Obj\segmented_binary.C16992E7.obj'
   05C004   Module 'Obj\segmented_utf16.76E668A2.obj'
   05C004   Module 'Obj\segmentedsupport.2BAFE67D.obj'
   05C004   Module 'Obj\weakreference.0A1AF11C.obj'
   05C004   Module 'Obj\namedvalue.6D52B2A6.obj'
   05C004   Module 'Obj\presenter.E6E77556.obj'
   05C004   Module 'Obj\programcontrol.2B27F1CB.obj'
   05C004   Module 'Obj\reflection.ACE59E5C.obj'
   05C004   Module 'Obj\typelibrary.6EC19AA0.obj'
   05C004   Module 'Obj\registry.917E8C91.obj'
   05C004   Module 'Obj\std.2DE0EC97.obj'
   05C004   Module 'Obj\inputstreamsupport.7AF62102.obj'
   05C004   Module 'Obj\outputstreamsupport.6F229CFB.obj'
   05C004   Module 'Obj\stream.8B55AAA7.obj'
   05C004   Module 'Obj\string.19AABD3B.obj'
   05C004   Module 'Obj\string8.355639C6.obj'
   05C004   Module 'Obj\time.6AFD2988.obj'
   05C004   Module 'Obj\vpidomains.E7102A6D.obj'
   05C004   Module 'Obj\console_api.1787DB80.obj'
   05C004   Module 'Obj\exe_api.026B8342.obj'
   05C004   Module 'Obj\filesystem_api.C5B8AF1A.obj'
   05C004   Module 'Obj\gui_api.9FE53D0D.obj'
   05C004   Module 'Obj\hash_api.96B8CAEE.obj'
   05C004   Module 'Obj\locale_api.2E000328.obj'
   05C004   Module 'Obj\memory_api.EF10D306.obj'
   05C004   Module 'Obj\multithread_api.57E3A62D.obj'
   05C004   Module 'Obj\registry_api.CF388C66.obj'
   05C004   Module 'Obj\runtime_api.B1A642EC.obj'
   05C004   Module 'Obj\shell_api.E8D4E14B.obj'
   05C004   Module 'Obj\string_api.2E13EA53.obj'
   05C004   Module 'Obj\string8_api.53D65538.obj'
   05C004   Module 'Obj\systeminformation_api.809129C1.obj'
   05C004   Module 'Obj\time_api.32F5932A.obj'
   05C004   Module 'Obj\windowsapi.FC171F8F.obj'
   05C004   Module 'Obj\winerrors.9B153E38.obj'
   05C004   Module 'Obj\main.789E136F.obj'
   05C004   Module 'Obj\exe.D80FC844.obj'
   05C004   Module 'Obj\iterator.60C55021.obj'
   05C004   Module 'Obj\binary.248EF86D.obj'
   05C004   Module 'Obj\boolean.DE5055E8.obj'
   05C004   Module 'Obj\redblackset.DC1C3622.obj'
   05C004   Module 'Obj\redblacktree.401E21A0.obj'
   05C004   Module 'Obj\redblacktreerep.E6A269FA.obj'
   05C004   Module 'Obj\collection.A520841C.obj'
   05C004   Module 'Obj\arraym_inline.F665267A.obj'
   05C004   Module 'Obj\mapm_redblack.875A0474.obj'
   05C004   Module 'Obj\setm_redblack.16EF8DC5.obj'
   05C004   Module 'Obj\varm.B882E173.obj'
   05C004   Module 'Obj\collectionmsupport.3A44ED4E.obj'
   05C004   Module 'Obj\collectionsupport.A039CC0D.obj'
   05C004   Module 'Obj\mapmsupport.8CD6C048.obj'
   05C004   Module 'Obj\mapsupport.C7248B7B.obj'
   05C004   Module 'Obj\modifiablesupport.5D48FFF1.obj'
   05C004   Module 'Obj\console.E8EB4F3C.obj'
   05C004   Module 'Obj\core.5D9B9483.obj'
   05C004   Module 'Obj\event.D92D3A63.obj'
   05C004   Module 'Obj\exception.B6F320E8.obj'
   05C004   Module 'Obj\exceptiondump.2B9C9E40.obj'
   05C004   Module 'Obj\filesystem.5B0F823E.obj'
   05C004   Module 'Obj\list.A75CEA31.obj'
   05C004   Module 'Obj\math.5D7D6037.obj'
   05C004   Module 'Obj\memory.568C55F8.obj'
   05C004   Module 'Obj\segmented.E9C86B20.obj'
05C000:000004 000008   VIPsym$E::VIPsym$E::VIPsym F=4
   05C004   Module 'Obj\main.789E136F.obj'

Frame 05D000   Size 001080.  Name=<  VIPtpd>, 	Chars=40000040h. [IR]
05D000:000000 000004   VIPtpd$A::VIPtpd$A::VIPtpd F=4
   05D000   Module 'Obj\main.789E136F.obj'
05D000:000004 00106C   VIPtpd$C::VIPtpd$C::VIPtpd F=4
   05D004   Module 'Obj\segmented_binary.C16992E7.obj'
   05D018   Module 'Obj\segmented_utf16.76E668A2.obj'
   05D01C   Module 'Obj\segmentedsupport.2BAFE67D.obj'
   05D02C   Module 'Obj\weakreference.0A1AF11C.obj'
   05D078   Module 'Obj\namedvalue.6D52B2A6.obj'
   05D078   Module 'Obj\presenter.E6E77556.obj'
   05D0B0   Module 'Obj\programcontrol.2B27F1CB.obj'
   05D0B8   Module 'Obj\reflection.ACE59E5C.obj'
   05D1BC   Module 'Obj\typelibrary.6EC19AA0.obj'
   05D1BC   Module 'Obj\registry.917E8C91.obj'
   05D1C4   Module 'Obj\std.2DE0EC97.obj'
   05D1C8   Module 'Obj\inputstreamsupport.7AF62102.obj'
   05D1CC   Module 'Obj\outputstreamsupport.6F229CFB.obj'
   05D1FC   Module 'Obj\stream.8B55AAA7.obj'
   05D20C   Module 'Obj\string.19AABD3B.obj'
   05D29C   Module 'Obj\string8.355639C6.obj'
   05D29C   Module 'Obj\time.6AFD2988.obj'
   05D2EC   Module 'Obj\vpidomains.E7102A6D.obj'
   05D38C   Module 'Obj\console_api.1787DB80.obj'
   05D3A8   Module 'Obj\exe_api.026B8342.obj'
   05D3B0   Module 'Obj\filesystem_api.C5B8AF1A.obj'
   05D41C   Module 'Obj\gui_api.9FE53D0D.obj'
   05D584   Module 'Obj\hash_api.96B8CAEE.obj'
   05D584   Module 'Obj\locale_api.2E000328.obj'
   05D598   Module 'Obj\memory_api.EF10D306.obj'
   05D5A8   Module 'Obj\multithread_api.57E3A62D.obj'
   05D5E0   Module 'Obj\registry_api.CF388C66.obj'
   05D5E4   Module 'Obj\runtime_api.B1A642EC.obj'
   05D5E4   Module 'Obj\shell_api.E8D4E14B.obj'
   05D65C   Module 'Obj\string_api.2E13EA53.obj'
   05D65C   Module 'Obj\string8_api.53D65538.obj'
   05D65C   Module 'Obj\systeminformation_api.809129C1.obj'
   05D678   Module 'Obj\time_api.32F5932A.obj'
   05D6BC   Module 'Obj\windowsapi.FC171F8F.obj'
   05D6C8   Module 'Obj\winerrors.9B153E38.obj'
   05D6C8   Module 'Obj\main.789E136F.obj'
   05D768   Module 'Obj\exe.D80FC844.obj'
   05D7AC   Module 'Obj\iterator.60C55021.obj'
   05D818   Module 'Obj\binary.248EF86D.obj'
   05D838   Module 'Obj\boolean.DE5055E8.obj'
   05D838   Module 'Obj\redblackset.DC1C3622.obj'
   05D85C   Module 'Obj\redblacktree.401E21A0.obj'
   05D874   Module 'Obj\redblacktreerep.E6A269FA.obj'
   05D88C   Module 'Obj\collection.A520841C.obj'
   05D8BC   Module 'Obj\arraym_inline.F665267A.obj'
   05D92C   Module 'Obj\mapm_redblack.875A0474.obj'
   05D934   Module 'Obj\setm_redblack.16EF8DC5.obj'
   05D984   Module 'Obj\varm.B882E173.obj'
   05DA10   Module 'Obj\collectionmsupport.3A44ED4E.obj'
   05DA68   Module 'Obj\collectionsupport.A039CC0D.obj'
   05DA70   Module 'Obj\mapmsupport.8CD6C048.obj'
   05DA88   Module 'Obj\mapsupport.C7248B7B.obj'
   05DA90   Module 'Obj\modifiablesupport.5D48FFF1.obj'
   05DA98   Module 'Obj\console.E8EB4F3C.obj'
   05DB04   Module 'Obj\core.5D9B9483.obj'
   05DCE0   Module 'Obj\event.D92D3A63.obj'
   05DEA8   Module 'Obj\exception.B6F320E8.obj'
   05DEFC   Module 'Obj\exceptiondump.2B9C9E40.obj'
   05DF64   Module 'Obj\filesystem.5B0F823E.obj'
   05DFB8   Module 'Obj\list.A75CEA31.obj'
   05DFEC   Module 'Obj\math.5D7D6037.obj'
   05DFF8   Module 'Obj\memory.568C55F8.obj'
   05E064   Module 'Obj\segmented.E9C86B20.obj'
05D000:001070 000008   VIPtpd$E::VIPtpd$E::VIPtpd F=4
   05E070   Module 'Obj\main.789E136F.obj'

Frame 05F000   Size 0010B0.  Name=<  VIPtpl>, 	Chars=40000040h. [IR]
05F000:000000 000004   VIPtpl$A::VIPtpl$A::VIPtpl F=4
   05F000   Module 'Obj\main.789E136F.obj'
05F000:000004 0010A0   VIPtpl$C::VIPtpl$C::VIPtpl F=4
   05F004   Module 'Obj\segmented_binary.C16992E7.obj'
   05F020   Module 'Obj\segmented_utf16.76E668A2.obj'
   05F02C   Module 'Obj\segmentedsupport.2BAFE67D.obj'
   05F04C   Module 'Obj\weakreference.0A1AF11C.obj'
   05F07C   Module 'Obj\namedvalue.6D52B2A6.obj'
   05F084   Module 'Obj\presenter.E6E77556.obj'
   05F0D4   Module 'Obj\programcontrol.2B27F1CB.obj'
   05F0E0   Module 'Obj\reflection.ACE59E5C.obj'
   05F1E8   Module 'Obj\typelibrary.6EC19AA0.obj'
   05F1E8   Module 'Obj\registry.917E8C91.obj'
   05F1FC   Module 'Obj\std.2DE0EC97.obj'
   05F200   Module 'Obj\inputstreamsupport.7AF62102.obj'
   05F204   Module 'Obj\outputstreamsupport.6F229CFB.obj'
   05F244   Module 'Obj\stream.8B55AAA7.obj'
   05F264   Module 'Obj\string.19AABD3B.obj'
   05F2F8   Module 'Obj\string8.355639C6.obj'
   05F300   Module 'Obj\time.6AFD2988.obj'
   05F378   Module 'Obj\vpidomains.E7102A6D.obj'
   05F428   Module 'Obj\console_api.1787DB80.obj'
   05F44C   Module 'Obj\exe_api.026B8342.obj'
   05F454   Module 'Obj\filesystem_api.C5B8AF1A.obj'
   05F4C4   Module 'Obj\gui_api.9FE53D0D.obj'
   05F620   Module 'Obj\hash_api.96B8CAEE.obj'
   05F620   Module 'Obj\locale_api.2E000328.obj'
   05F63C   Module 'Obj\memory_api.EF10D306.obj'
   05F658   Module 'Obj\multithread_api.57E3A62D.obj'
   05F6A8   Module 'Obj\registry_api.CF388C66.obj'
   05F6B0   Module 'Obj\runtime_api.B1A642EC.obj'
   05F6BC   Module 'Obj\shell_api.E8D4E14B.obj'
   05F700   Module 'Obj\string_api.2E13EA53.obj'
   05F700   Module 'Obj\string8_api.53D65538.obj'
   05F700   Module 'Obj\systeminformation_api.809129C1.obj'
   05F718   Module 'Obj\time_api.32F5932A.obj'
   05F768   Module 'Obj\windowsapi.FC171F8F.obj'
   05F778   Module 'Obj\winerrors.9B153E38.obj'
   05F778   Module 'Obj\main.789E136F.obj'
   05F810   Module 'Obj\exe.D80FC844.obj'
   05F850   Module 'Obj\iterator.60C55021.obj'
   05F894   Module 'Obj\binary.248EF86D.obj'
   05F8BC   Module 'Obj\boolean.DE5055E8.obj'
   05F8BC   Module 'Obj\redblackset.DC1C3622.obj'
   05F8DC   Module 'Obj\redblacktree.401E21A0.obj'
   05F8F0   Module 'Obj\redblacktreerep.E6A269FA.obj'
   05F904   Module 'Obj\collection.A520841C.obj'
   05F904   Module 'Obj\arraym_inline.F665267A.obj'
   05F964   Module 'Obj\mapm_redblack.875A0474.obj'
   05F96C   Module 'Obj\setm_redblack.16EF8DC5.obj'
   05F974   Module 'Obj\varm.B882E173.obj'
   05F9E4   Module 'Obj\collectionmsupport.3A44ED4E.obj'
   05F9F4   Module 'Obj\collectionsupport.A039CC0D.obj'
   05F9FC   Module 'Obj\mapmsupport.8CD6C048.obj'
   05FA04   Module 'Obj\mapsupport.C7248B7B.obj'
   05FA10   Module 'Obj\modifiablesupport.5D48FFF1.obj'
   05FA18   Module 'Obj\console.E8EB4F3C.obj'
   05FA7C   Module 'Obj\core.5D9B9483.obj'
   05FC70   Module 'Obj\event.D92D3A63.obj'
   05FE14   Module 'Obj\exception.B6F320E8.obj'
   05FE88   Module 'Obj\exceptiondump.2B9C9E40.obj'
   05FF58   Module 'Obj\filesystem.5B0F823E.obj'
   05FFCC   Module 'Obj\list.A75CEA31.obj'
   060010   Module 'Obj\math.5D7D6037.obj'
   06001C   Module 'Obj\memory.568C55F8.obj'
   060088   Module 'Obj\segmented.E9C86B20.obj'
05F000:0010A4 000008   VIPtpl$E::VIPtpl$E::VIPtpl F=4
   0600A4   Module 'Obj\main.789E136F.obj'

Frame 061000   Size 042EE0.  Name=<  .rdata>, 	Chars=40000040h. [IR]
061000:000000 011A90   .rdata::.rdata::.rdata F=4
   061000   Module 'Obj\segmented_binary.C16992E7.obj'
   061260   Module 'Obj\segmented_utf16.76E668A2.obj'
   061480   Module 'Obj\segmentedsupport.2BAFE67D.obj'
   061910   Module 'Obj\weakreference.0A1AF11C.obj'
   0619C0   Module 'Obj\namedvalue.6D52B2A6.obj'
   061DA0   Module 'Obj\presenter.E6E77556.obj'
   062000   Module 'Obj\programcontrol.2B27F1CB.obj'
   0620B0   Module 'Obj\reflection.ACE59E5C.obj'
   0629E0   Module 'Obj\typelibrary.6EC19AA0.obj'
   062A90   Module 'Obj\registry.917E8C91.obj'
   062D20   Module 'Obj\std.2DE0EC97.obj'
   062DA0   Module 'Obj\inputstreamsupport.7AF62102.obj'
   062FE0   Module 'Obj\outputstreamsupport.6F229CFB.obj'
   0634A0   Module 'Obj\stream.8B55AAA7.obj'
   063C30   Module 'Obj\string.19AABD3B.obj'
   0646A0   Module 'Obj\string8.355639C6.obj'
   064790   Module 'Obj\time.6AFD2988.obj'
   065140   Module 'Obj\vpidomains.E7102A6D.obj'
   065760   Module 'Obj\console_api.1787DB80.obj'
   065B80   Module 'Obj\exe_api.026B8342.obj'
   065DB0   Module 'Obj\filesystem_api.C5B8AF1A.obj'
   066E30   Module 'Obj\gui_api.9FE53D0D.obj'
   069CB0   Module 'Obj\hash_api.96B8CAEE.obj'
   069D50   Module 'Obj\locale_api.2E000328.obj'
   069E80   Module 'Obj\memory_api.EF10D306.obj'
   06A4B0   Module 'Obj\multithread_api.57E3A62D.obj'
   06B260   Module 'Obj\registry_api.CF388C66.obj'
   06B6B0   Module 'Obj\runtime_api.B1A642EC.obj'
   06B9C0   Module 'Obj\shell_api.E8D4E14B.obj'
   06C5C0   Module 'Obj\string_api.2E13EA53.obj'
   06C670   Module 'Obj\string8_api.53D65538.obj'
   06C890   Module 'Obj\systeminformation_api.809129C1.obj'
   06CFB0   Module 'Obj\time_api.32F5932A.obj'
   06D8F0   Module 'Obj\windowsapi.FC171F8F.obj'
   06DBC0   Module 'Obj\winerrors.9B153E38.obj'
   06DC70   Module 'Obj\main.789E136F.obj'
   06DD60   Module 'Obj\exe.D80FC844.obj'
   06DE00   Module 'Obj\iterator.60C55021.obj'
   06DEB0   Module 'Obj\binary.248EF86D.obj'
   06E3B0   Module 'Obj\boolean.DE5055E8.obj'
   06E440   Module 'Obj\redblackset.DC1C3622.obj'
   06E660   Module 'Obj\redblacktree.401E21A0.obj'
   06E740   Module 'Obj\redblacktreerep.E6A269FA.obj'
   06EA20   Module 'Obj\collection.A520841C.obj'
   06EAC0   Module 'Obj\arraym_inline.F665267A.obj'
   06EFB0   Module 'Obj\mapm_redblack.875A0474.obj'
   06F070   Module 'Obj\setm_redblack.16EF8DC5.obj'
   06F130   Module 'Obj\varm.B882E173.obj'
   06F280   Module 'Obj\collectionmsupport.3A44ED4E.obj'
   06F360   Module 'Obj\collectionsupport.A039CC0D.obj'
   06F440   Module 'Obj\mapmsupport.8CD6C048.obj'
   06F500   Module 'Obj\mapsupport.C7248B7B.obj'
   06F690   Module 'Obj\modifiablesupport.5D48FFF1.obj'
   06F770   Module 'Obj\console.E8EB4F3C.obj'
   0700C0   Module 'Obj\core.5D9B9483.obj'
   070380   Module 'Obj\event.D92D3A63.obj'
   070420   Module 'Obj\exception.B6F320E8.obj'
   070BA0   Module 'Obj\exceptiondump.2B9C9E40.obj'
   070FF0   Module 'Obj\filesystem.5B0F823E.obj'
   072080   Module 'Obj\list.A75CEA31.obj'
   072500   Module 'Obj\math.5D7D6037.obj'
   072830   Module 'Obj\memory.568C55F8.obj'
   072900   Module 'Obj\segmented.E9C86B20.obj'
   0729E0   Module '..\..\..\_intermediate\sourceVS\vipInit\Win32\ReleasePE\VIPPE.obj'
061000:011A90 0000D0   VIPBrow::VIPBrow::.rdata F=4
   072A90   Module 'Obj\time.6AFD2988.obj'
   072AA0   Module 'Obj\gui_api.9FE53D0D.obj'
   072AF0   Module 'Obj\systeminformation_api.809129C1.obj'
   072B10   Module 'Obj\console.E8EB4F3C.obj'
   072B20   Module 'Obj\memory.568C55F8.obj'
061000:011B60 006980   VIPConst::VIPConst::.rdata F=4
   072B60   Module 'Obj\namedvalue.6D52B2A6.obj'
   072BF0   Module 'Obj\registry.917E8C91.obj'
   072D90   Module 'Obj\stream.8B55AAA7.obj'
   073090   Module 'Obj\string.19AABD3B.obj'
   073290   Module 'Obj\time.6AFD2988.obj'
   073450   Module 'Obj\filesystem_api.C5B8AF1A.obj'
   073600   Module 'Obj\gui_api.9FE53D0D.obj'
   0757E0   Module 'Obj\time_api.32F5932A.obj'
   075930   Module 'Obj\binary.248EF86D.obj'
   075AF0   Module 'Obj\arraym_inline.F665267A.obj'
   075B10   Module 'Obj\exception.B6F320E8.obj'
   078F90   Module 'Obj\filesystem.5B0F823E.obj'
   079180   Module 'Obj\math.5D7D6037.obj'
061000:0184E0 0028D0   VIPTypeL::VIPTypeL::.rdata F=4
   0794E0   Module 'Obj\segmented_binary.C16992E7.obj'
   079550   Module 'Obj\segmented_utf16.76E668A2.obj'
   079570   Module 'Obj\segmentedsupport.2BAFE67D.obj'
   0795D0   Module 'Obj\weakreference.0A1AF11C.obj'
   079690   Module 'Obj\namedvalue.6D52B2A6.obj'
   0796A0   Module 'Obj\presenter.E6E77556.obj'
   0797A0   Module 'Obj\programcontrol.2B27F1CB.obj'
   0797C0   Module 'Obj\reflection.ACE59E5C.obj'
   079AF0   Module 'Obj\registry.917E8C91.obj'
   079B20   Module 'Obj\std.2DE0EC97.obj'
   079B30   Module 'Obj\inputstreamsupport.7AF62102.obj'
   079B40   Module 'Obj\outputstreamsupport.6F229CFB.obj'
   079BF0   Module 'Obj\stream.8B55AAA7.obj'
   079C30   Module 'Obj\string.19AABD3B.obj'
   079D30   Module 'Obj\string8.355639C6.obj'
   079D40   Module 'Obj\time.6AFD2988.obj'
   079EE0   Module 'Obj\vpidomains.E7102A6D.obj'
   07A070   Module 'Obj\console_api.1787DB80.obj'
   07A0E0   Module 'Obj\exe_api.026B8342.obj'
   07A100   Module 'Obj\filesystem_api.C5B8AF1A.obj'
   07A230   Module 'Obj\gui_api.9FE53D0D.obj'
   07A700   Module 'Obj\locale_api.2E000328.obj'
   07A750   Module 'Obj\memory_api.EF10D306.obj'
   07A780   Module 'Obj\multithread_api.57E3A62D.obj'
   07A870   Module 'Obj\registry_api.CF388C66.obj'
   07A880   Module 'Obj\shell_api.E8D4E14B.obj'
   07A940   Module 'Obj\systeminformation_api.809129C1.obj'
   07A9A0   Module 'Obj\time_api.32F5932A.obj'
   07AA30   Module 'Obj\windowsapi.FC171F8F.obj'
   07AA60   Module 'Obj\main.789E136F.obj'
   07AAF0   Module 'Obj\exe.D80FC844.obj'
   07AB00   Module 'Obj\iterator.60C55021.obj'
   07AB40   Module 'Obj\binary.248EF86D.obj'
   07AB50   Module 'Obj\redblackset.DC1C3622.obj'
   07AB70   Module 'Obj\redblacktree.401E21A0.obj'
   07AB90   Module 'Obj\redblacktreerep.E6A269FA.obj'
   07ABB0   Module 'Obj\arraym_inline.F665267A.obj'
   07AC10   Module 'Obj\mapm_redblack.875A0474.obj'
   07AC30   Module 'Obj\setm_redblack.16EF8DC5.obj'
   07AC50   Module 'Obj\varm.B882E173.obj'
   07AD10   Module 'Obj\collectionmsupport.3A44ED4E.obj'
   07AD20   Module 'Obj\collectionsupport.A039CC0D.obj'
   07AD40   Module 'Obj\mapmsupport.8CD6C048.obj'
   07AD60   Module 'Obj\mapsupport.C7248B7B.obj'
   07AD80   Module 'Obj\modifiablesupport.5D48FFF1.obj'
   07ADA0   Module 'Obj\console.E8EB4F3C.obj'
   07ADE0   Module 'Obj\core.5D9B9483.obj'
   07B380   Module 'Obj\event.D92D3A63.obj'
   07B910   Module 'Obj\exception.B6F320E8.obj'
   07B990   Module 'Obj\exceptiondump.2B9C9E40.obj'
   07B9B0   Module 'Obj\filesystem.5B0F823E.obj'
   07BAE0   Module 'Obj\list.A75CEA31.obj'
   07BBB0   Module 'Obj\math.5D7D6037.obj'
   07BBE0   Module 'Obj\memory.568C55F8.obj'
   07BD80   Module 'Obj\segmented.E9C86B20.obj'
061000:01ADB0 005180   VIPInter::VIPInter::.rdata F=4
   07BDB0   Module 'Obj\segmented_binary.C16992E7.obj'
   07C1B0   Module 'Obj\weakreference.0A1AF11C.obj'
   07CC50   Module 'Obj\reflection.ACE59E5C.obj'
   07EB90   Module 'Obj\outputstreamsupport.6F229CFB.obj'
   07F020   Module 'Obj\time.6AFD2988.obj'
   07F500   Module 'Obj\gui_api.9FE53D0D.obj'
   07FE70   Module 'Obj\shell_api.E8D4E14B.obj'
   080050   Module 'Obj\arraym_inline.F665267A.obj'
   080B50   Module 'Obj\setm_redblack.16EF8DC5.obj'
   080E60   Module 'Obj\core.5D9B9483.obj'
061000:01FF30 022FB0   VIPClass::VIPClass::.rdata F=4
   080F30   Module 'Obj\segmented_binary.C16992E7.obj'
   0810E0   Module 'Obj\segmented_utf16.76E668A2.obj'
   081280   Module 'Obj\segmentedsupport.2BAFE67D.obj'
   081820   Module 'Obj\weakreference.0A1AF11C.obj'
   081A50   Module 'Obj\namedvalue.6D52B2A6.obj'
   081AD0   Module 'Obj\presenter.E6E77556.obj'
   082460   Module 'Obj\programcontrol.2B27F1CB.obj'
   082590   Module 'Obj\reflection.ACE59E5C.obj'
   0833A0   Module 'Obj\registry.917E8C91.obj'
   0836B0   Module 'Obj\std.2DE0EC97.obj'
   083780   Module 'Obj\inputstreamsupport.7AF62102.obj'
   0839D0   Module 'Obj\outputstreamsupport.6F229CFB.obj'
   084560   Module 'Obj\stream.8B55AAA7.obj'
   084C20   Module 'Obj\string.19AABD3B.obj'
   086200   Module 'Obj\string8.355639C6.obj'
   086270   Module 'Obj\time.6AFD2988.obj'
   0879F0   Module 'Obj\vpidomains.E7102A6D.obj'
   089830   Module 'Obj\console_api.1787DB80.obj'
   089D50   Module 'Obj\exe_api.026B8342.obj'
   089FC0   Module 'Obj\filesystem_api.C5B8AF1A.obj'
   08B400   Module 'Obj\gui_api.9FE53D0D.obj'
   08E010   Module 'Obj\hash_api.96B8CAEE.obj'
   08E0B0   Module 'Obj\locale_api.2E000328.obj'
   08E3F0   Module 'Obj\memory_api.EF10D306.obj'
   08E750   Module 'Obj\multithread_api.57E3A62D.obj'
   08F020   Module 'Obj\registry_api.CF388C66.obj'
   08F1F0   Module 'Obj\runtime_api.B1A642EC.obj'
   08F290   Module 'Obj\shell_api.E8D4E14B.obj'
   08FCA0   Module 'Obj\string_api.2E13EA53.obj'
   08FD50   Module 'Obj\string8_api.53D65538.obj'
   08FEA0   Module 'Obj\systeminformation_api.809129C1.obj'
   0905E0   Module 'Obj\time_api.32F5932A.obj'
   090CC0   Module 'Obj\windowsapi.FC171F8F.obj'
   090EF0   Module 'Obj\winerrors.9B153E38.obj'
   090F80   Module 'Obj\main.789E136F.obj'
   091630   Module 'Obj\exe.D80FC844.obj'
   091760   Module 'Obj\iterator.60C55021.obj'
   091A60   Module 'Obj\binary.248EF86D.obj'
   0928A0   Module 'Obj\boolean.DE5055E8.obj'
   092910   Module 'Obj\redblackset.DC1C3622.obj'
   092C10   Module 'Obj\redblacktree.401E21A0.obj'
   092E10   Module 'Obj\redblacktreerep.E6A269FA.obj'
   0931A0   Module 'Obj\arraym_inline.F665267A.obj'
   094810   Module 'Obj\mapm_redblack.875A0474.obj'
   095240   Module 'Obj\setm_redblack.16EF8DC5.obj'
   095910   Module 'Obj\varm.B882E173.obj'
   096B30   Module 'Obj\collectionmsupport.3A44ED4E.obj'
   096F80   Module 'Obj\collectionsupport.A039CC0D.obj'
   0971F0   Module 'Obj\mapmsupport.8CD6C048.obj'
   097880   Module 'Obj\mapsupport.C7248B7B.obj'
   097C00   Module 'Obj\modifiablesupport.5D48FFF1.obj'
   097E80   Module 'Obj\console.E8EB4F3C.obj'
   098EA0   Module 'Obj\core.5D9B9483.obj'
   09BEE0   Module 'Obj\event.D92D3A63.obj'
   0A05D0   Module 'Obj\exception.B6F320E8.obj'
   0A0DC0   Module 'Obj\exceptiondump.2B9C9E40.obj'
   0A0E70   Module 'Obj\filesystem.5B0F823E.obj'
   0A2950   Module 'Obj\list.A75CEA31.obj'
   0A3020   Module 'Obj\math.5D7D6037.obj'
   0A31C0   Module 'Obj\memory.568C55F8.obj'
   0A3C50   Module 'Obj\segmented.E9C86B20.obj'

Frame 0A4000   Size 0003F0.  Name=<  PRODBG>, 	Chars=40000040h. [IR]
0A4000:000000 0003F0   PRODBG::PRODBG::PRODBG F=4
   0A4000   Module 'Obj\segmented_binary.C16992E7.obj'
   0A4010   Module 'Obj\segmented_utf16.76E668A2.obj'
   0A4020   Module 'Obj\segmentedsupport.2BAFE67D.obj'
   0A4030   Module 'Obj\weakreference.0A1AF11C.obj'
   0A4040   Module 'Obj\namedvalue.6D52B2A6.obj'
   0A4050   Module 'Obj\presenter.E6E77556.obj'
   0A4060   Module 'Obj\programcontrol.2B27F1CB.obj'
   0A4070   Module 'Obj\reflection.ACE59E5C.obj'
   0A4080   Module 'Obj\typelibrary.6EC19AA0.obj'
   0A4090   Module 'Obj\registry.917E8C91.obj'
   0A40A0   Module 'Obj\std.2DE0EC97.obj'
   0A40B0   Module 'Obj\inputstreamsupport.7AF62102.obj'
   0A40C0   Module 'Obj\outputstreamsupport.6F229CFB.obj'
   0A40D0   Module 'Obj\stream.8B55AAA7.obj'
   0A40E0   Module 'Obj\string.19AABD3B.obj'
   0A40F0   Module 'Obj\string8.355639C6.obj'
   0A4100   Module 'Obj\time.6AFD2988.obj'
   0A4110   Module 'Obj\vpidomains.E7102A6D.obj'
   0A4120   Module 'Obj\console_api.1787DB80.obj'
   0A4130   Module 'Obj\exe_api.026B8342.obj'
   0A4140   Module 'Obj\filesystem_api.C5B8AF1A.obj'
   0A4150   Module 'Obj\gui_api.9FE53D0D.obj'
   0A4160   Module 'Obj\hash_api.96B8CAEE.obj'
   0A4170   Module 'Obj\locale_api.2E000328.obj'
   0A4180   Module 'Obj\memory_api.EF10D306.obj'
   0A4190   Module 'Obj\multithread_api.57E3A62D.obj'
   0A41A0   Module 'Obj\registry_api.CF388C66.obj'
   0A41B0   Module 'Obj\runtime_api.B1A642EC.obj'
   0A41C0   Module 'Obj\shell_api.E8D4E14B.obj'
   0A41D0   Module 'Obj\string_api.2E13EA53.obj'
   0A41E0   Module 'Obj\string8_api.53D65538.obj'
   0A41F0   Module 'Obj\systeminformation_api.809129C1.obj'
   0A4200   Module 'Obj\time_api.32F5932A.obj'
   0A4210   Module 'Obj\windowsapi.FC171F8F.obj'
   0A4220   Module 'Obj\winerrors.9B153E38.obj'
   0A4230   Module 'Obj\main.789E136F.obj'
   0A4240   Module 'Obj\exe.D80FC844.obj'
   0A4250   Module 'Obj\iterator.60C55021.obj'
   0A4260   Module 'Obj\binary.248EF86D.obj'
   0A4270   Module 'Obj\boolean.DE5055E8.obj'
   0A4280   Module 'Obj\redblackset.DC1C3622.obj'
   0A4290   Module 'Obj\redblacktree.401E21A0.obj'
   0A42A0   Module 'Obj\redblacktreerep.E6A269FA.obj'
   0A42B0   Module 'Obj\collection.A520841C.obj'
   0A42C0   Module 'Obj\arraym_inline.F665267A.obj'
   0A42D0   Module 'Obj\mapm_redblack.875A0474.obj'
   0A42E0   Module 'Obj\setm_redblack.16EF8DC5.obj'
   0A42F0   Module 'Obj\varm.B882E173.obj'
   0A4300   Module 'Obj\collectionmsupport.3A44ED4E.obj'
   0A4310   Module 'Obj\collectionsupport.A039CC0D.obj'
   0A4320   Module 'Obj\mapmsupport.8CD6C048.obj'
   0A4330   Module 'Obj\mapsupport.C7248B7B.obj'
   0A4340   Module 'Obj\modifiablesupport.5D48FFF1.obj'
   0A4350   Module 'Obj\console.E8EB4F3C.obj'
   0A4360   Module 'Obj\core.5D9B9483.obj'
   0A4370   Module 'Obj\event.D92D3A63.obj'
   0A4380   Module 'Obj\exception.B6F320E8.obj'
   0A4390   Module 'Obj\exceptiondump.2B9C9E40.obj'
   0A43A0   Module 'Obj\filesystem.5B0F823E.obj'
   0A43B0   Module 'Obj\list.A75CEA31.obj'
   0A43C0   Module 'Obj\math.5D7D6037.obj'
   0A43D0   Module 'Obj\memory.568C55F8.obj'
   0A43E0   Module 'Obj\segmented.E9C86B20.obj'

Frame 0A5000   Size 002DF0.  Name=<   .data>, 	Chars=C0000040h. [IRW]
0A5000:000000 0005D0   VIPPresD::DATA::DGROUP F=4
   0A5000   Module 'Obj\segmented_binary.C16992E7.obj'
   0A5040   Module 'Obj\weakreference.0A1AF11C.obj'
   0A5150   Module 'Obj\reflection.ACE59E5C.obj'
   0A5380   Module 'Obj\outputstreamsupport.6F229CFB.obj'
   0A53C0   Module 'Obj\time.6AFD2988.obj'
   0A5430   Module 'Obj\gui_api.9FE53D0D.obj'
   0A5500   Module 'Obj\shell_api.E8D4E14B.obj'
   0A5520   Module 'Obj\arraym_inline.F665267A.obj'
   0A55A0   Module 'Obj\setm_redblack.16EF8DC5.obj'
   0A55C0   Module 'Obj\core.5D9B9483.obj'
0A5000:0005D0 002814   .data::DATA::DGROUP F=4
   0A55D0   Module 'Obj\segmented_binary.C16992E7.obj'
   0A55E8   Module 'Obj\segmented_utf16.76E668A2.obj'
   0A5600   Module 'Obj\segmentedsupport.2BAFE67D.obj'
   0A5650   Module 'Obj\weakreference.0A1AF11C.obj'
   0A5678   Module 'Obj\presenter.E6E77556.obj'
   0A5758   Module 'Obj\programcontrol.2B27F1CB.obj'
   0A5778   Module 'Obj\reflection.ACE59E5C.obj'
   0A5858   Module 'Obj\registry.917E8C91.obj'
   0A5878   Module 'Obj\std.2DE0EC97.obj'
   0A5888   Module 'Obj\inputstreamsupport.7AF62102.obj'
   0A58A0   Module 'Obj\outputstreamsupport.6F229CFB.obj'
   0A5900   Module 'Obj\stream.8B55AAA7.obj'
   0A5958   Module 'Obj\string.19AABD3B.obj'
   0A5A38   Module 'Obj\time.6AFD2988.obj'
   0A5B30   Module 'Obj\vpidomains.E7102A6D.obj'
   0A5CA0   Module 'Obj\console_api.1787DB80.obj'
   0A5D10   Module 'Obj\exe_api.026B8342.obj'
   0A5D30   Module 'Obj\filesystem_api.C5B8AF1A.obj'
   0A5E78   Module 'Obj\gui_api.9FE53D0D.obj'
   0A634C   Module 'Obj\locale_api.2E000328.obj'
   0A639C   Module 'Obj\memory_api.EF10D306.obj'
   0A63CC   Module 'Obj\multithread_api.57E3A62D.obj'
   0A64BC   Module 'Obj\registry_api.CF388C66.obj'
   0A64CC   Module 'Obj\shell_api.E8D4E14B.obj'
   0A65BC   Module 'Obj\systeminformation_api.809129C1.obj'
   0A6630   Module 'Obj\time_api.32F5932A.obj'
   0A66D8   Module 'Obj\windowsapi.FC171F8F.obj'
   0A6708   Module 'Obj\main.789E136F.obj'
   0A6898   Module 'Obj\exe.D80FC844.obj'
   0A68A8   Module 'Obj\iterator.60C55021.obj'
   0A68F0   Module 'Obj\binary.248EF86D.obj'
   0A6910   Module 'Obj\redblackset.DC1C3622.obj'
   0A6950   Module 'Obj\redblacktree.401E21A0.obj'
   0A6980   Module 'Obj\redblacktreerep.E6A269FA.obj'
   0A69C0   Module 'Obj\arraym_inline.F665267A.obj'
   0A6A34   Module 'Obj\mapm_redblack.875A0474.obj'
   0A6A5C   Module 'Obj\setm_redblack.16EF8DC5.obj'
   0A6A84   Module 'Obj\varm.B882E173.obj'
   0A6B7C   Module 'Obj\collectionmsupport.3A44ED4E.obj'
   0A6B94   Module 'Obj\collectionsupport.A039CC0D.obj'
   0A6BBC   Module 'Obj\mapmsupport.8CD6C048.obj'
   0A6BE4   Module 'Obj\mapsupport.C7248B7B.obj'
   0A6C0C   Module 'Obj\modifiablesupport.5D48FFF1.obj'
   0A6C34   Module 'Obj\console.E8EB4F3C.obj'
   0A6C84   Module 'Obj\core.5D9B9483.obj'
   0A7374   Module 'Obj\event.D92D3A63.obj'
   0A7944   Module 'Obj\exception.B6F320E8.obj'
   0A79BC   Module 'Obj\filesystem.5B0F823E.obj'
   0A7B04   Module 'Obj\list.A75CEA31.obj'
   0A7BD4   Module 'Obj\math.5D7D6037.obj'
   0A7C04   Module 'Obj\memory.568C55F8.obj'
   0A7DB4   Module 'Obj\segmented.E9C86B20.obj'
0A5000:002DE4 000004   .bss::BSS::DGROUP F=4
   0A7DE4   Module '..\..\..\_intermediate\sourceVS\vipInit\Win32\ReleasePE\VIPDll.obj'

Frame 0A8000   Size 000050.  Name=< .gcroot>, 	Chars=C0000040h. [IRW]
0A8000:000000 00004C   .gcroot::.gcroot::.gcroot F=4
   0A8000   Module 'Obj\segmented_binary.C16992E7.obj'
   0A8004   Module 'Obj\segmented_utf16.76E668A2.obj'
   0A8008   Module 'Obj\stream.8B55AAA7.obj'
   0A8014   Module 'Obj\time.6AFD2988.obj'
   0A8028   Module 'Obj\multithread_api.57E3A62D.obj'
   0A802C   Module 'Obj\time_api.32F5932A.obj'
   0A8030   Module 'Obj\exe.D80FC844.obj'
   0A8038   Module 'Obj\console.E8EB4F3C.obj'
   0A8044   Module '..\..\..\_intermediate\sourceVS\vipInit\Win32\ReleasePE\VIPDll.obj'

	     ------- Names by value Map ---------
Frame 001000   Size 059130.  Name=<   .text>, 	Chars=60000020h. [CER]
001000:000000 058F50   .text::CODE::<no group> F=4
--- From 'Obj\binary.248EF86D.obj'
01:00001000 ?_mkSegment@segmented_binary@@SAXQAEPAPAUsegmented_struct@segmented@@QAPAE@Z 
--- From 'Obj\segmented_binary.C16992E7.obj'
01:0000105C ?_getAsBinary@segmented_binary@@SAXPAUsegmented_struct@segmented@@QAEQAPAE@Z  (Idle)
01:000010D4 ?_mkSegmentFromBuffer_site$@segmented_binary@@SAXQAVsegmentedSupportSite@@@XPAXPBUbyteCount@core@@PAX@Z 
01:000010F4 ?_concat_site$@segmented_binary@@SAXQAVsegmentedSupportSite@@@XXXPAX@Z 
01:00001114 ?_front_site$@segmented_binary@@SAXQAVsegmentedSupportSite@@@XXPBUbyteCount@core@@PAX@Z 
01:0000112C ?_rear_site$@segmented_binary@@SAXQAVsegmentedSupportSite@@@XXPBUbyteCount@core@@PAX@Z 
01:00001178 ?isReadable_site$@segmented_binary@@SAXQAVsegmentedSupportSite@@@XXPBUbyteCount@core@@@Z 
01:00001194 ?new$@segmented_binary@@SAXQAV1@@@Z  (Idle)
01:0000119C ?_getSize@segmented_binary@@SAXPAUsegmented_struct@segmented@@QAEAAUbyteCount@core@@@Z  (Idle)
01:000011C8 ?_concat@segmented_binary@@SAXPAUsegmented_struct@segmented@@QAE0PAPAU23@QAPAE@Z  (Idle)
01:00001224 ?_front@segmented_binary@@SAXPAUsegmented_struct@segmented@@QAEPBUbyteCount@core@@PAPAU23@QAPAE@Z  (Idle)
01:00001280 ?_rear@segmented_binary@@SAXPAUsegmented_struct@segmented@@QAEPBUbyteCount@core@@PAPAU23@QAPAE@Z  (Idle)
01:000012DC ?_subSegment@segmented_binary@@SAXPAUsegmented_struct@segmented@@QAEPBUbyteCount@core@@1PAPAU23@QAPAE@Z  (Idle)
01:00001340 ?split@segmented_binary@@SAXPAUsegmented_struct@segmented@@QAEPBUbyteCount@core@@PAPAU23@QAPAE2@Z  (Idle)
01:000013A4 ?_insert@segmented_binary@@SAXPAUsegmented_struct@segmented@@QAEPBUbyteCount@core@@0PAPAU23@QAPAE@Z  (Idle)
01:00001408 ?_getAll_nd@segmented_binary@@SAXPAUsegmented_struct@segmented@@QAEQAPAE@Z  (Idle)
--- From 'Obj\binary.248EF86D.obj'
01:0000145C ?_mkIterator@segmented_binary@@SAXPAUsegmented_struct@segmented@@QAEPAPAViterator@@@PAPAUtuple_struct@core@@AAUbyteCount@6@QAPAE@Z 
01:000014B0 ?_mkIterator@segmented_binary@@SAXPAUsegmented_struct@segmented@@QAEPBUbyteCount@core@@PAPAViterator@@@PAPAUtuple_struct@5@AAU45@QAPAE@Z 
--- From 'Obj\segmented_binary.C16992E7.obj'
01:0000150C ?validate@segmented_binary@@SAXPAUsegmented_struct@segmented@@QAE@Z  (Idle)
01:00001558 ?_toTerm@segmented_binary@@SAXQAVrTypeLibrary@TypeLibraries@RunTime@VIP@@PAUsegmented_struct@segmented@@QAEPAX@Z  (Idle)
01:000015EC ?_fromTerm@segmented_binary@@SAXQAVrTypeLibrary@TypeLibraries@RunTime@VIP@@XPAPAUsegmented_struct@segmented@@QAPAE@Z  (Idle)
01:00001644 ?_getAsBinary_nd@segmented_binary@@SAXPAUsegmented_struct@segmented@@QAEPBUbyteCount@core@@QAPAE@Z  (Idle)
01:00001760 ?_getAsBinaryFrom@segmented_binary@@SAXQAViterator@@@PAUtuple_struct@core@@PBUbyteCount@4@QAEPBU54@1QAPAE@Z 
01:000019B0 ?_new@segmented_binary@@SAXPAPAVsegmentedSupportSite@@@QAPAE@Z  (Idle)
01:000019D8 ?__lateFactInit$support$0$segmented_binary@classDB@1@SAXPAPAVsegmentedSupport@@@QAPAE@Z 
--- From 'Obj\binary.248EF86D.obj'
01:00001A10 ?support@segmented_binary@@SGQAVsegmentedSupport@@@QAEXZ 
--- From 'Obj\segmented_binary.C16992E7.obj'
01:00001A50 segmented_binary?_initObject@@@QAGXQAV1@H@Z 
01:00001A64 ?@create_object@segmented_binary@@SGQAV1@@XZ 
01:00001A80 segmented_binary?_InternalFinalizer@@@QAGXQAV1@@Z 
--- From 'Obj\string.19AABD3B.obj'
01:00001A90 ?_mkSegment@segmented_utf16@@SAXPB_WPAPAUsegmented_utf16_struct@segmented@@@Z 
--- From 'Obj\filesystem.5B0F823E.obj'
01:00001B04 ?_stripBOM@segmented_utf16@@SAXPAUsegmented_utf16_struct@segmented@@PAPAU23@@Z 
--- From 'Obj\string.19AABD3B.obj'
01:00001B94 ?_getAsString@segmented_utf16@@SAXPAUsegmented_utf16_struct@segmented@@PAPB_W@Z 
--- From 'Obj\segmented_utf16.76E668A2.obj'
01:00001C30 ?_mkSegmentFromBuffer_site$@segmented_utf16@@SAXQAVsegmentedSupportSite@@@XPAXPBUbyteCount@core@@PAX@Z 
01:00001C50 ?_concat_site$@segmented_utf16@@SAXQAVsegmentedSupportSite@@@XXXPAX@Z 
01:00001C70 ?_front_site$@segmented_utf16@@SAXQAVsegmentedSupportSite@@@XXPBUbyteCount@core@@PAX@Z 
01:00001CA8 ?_rear_site$@segmented_utf16@@SAXQAVsegmentedSupportSite@@@XXPBUbyteCount@core@@PAX@Z 
01:00001CDC ?isReadable_site$@segmented_utf16@@SAXQAVsegmentedSupportSite@@@XXPBUbyteCount@core@@@Z 
01:00001D08 ?new$@segmented_utf16@@SAXQAV1@@@Z  (Idle)
01:00001D10 ?_getSize@segmented_utf16@@SAXPAUsegmented_utf16_struct@segmented@@AAUcharCount@core@@@Z  (Idle)
01:00001D44 ?_concat@segmented_utf16@@SAXPAUsegmented_utf16_struct@segmented@@0PAPAU23@@Z  (Idle)
01:00001DC4 ?_front@segmented_utf16@@SAXPAUsegmented_utf16_struct@segmented@@PBUcharCount@core@@PAPAU23@@Z  (Idle)
01:00001E54 ?_rear@segmented_utf16@@SAXPAUsegmented_utf16_struct@segmented@@PBUcharCount@core@@PAPAU23@@Z 
01:00001EE4 ?_subSegment@segmented_utf16@@SAXPAUsegmented_utf16_struct@segmented@@PBUcharCount@core@@1PAPAU23@@Z  (Idle)
01:00001F90 ?split@segmented_utf16@@SAXPAUsegmented_utf16_struct@segmented@@PBUcharCount@core@@PAPAU23@2@Z  (Idle)
01:00002044 ?_insert@segmented_utf16@@SAXPAUsegmented_utf16_struct@segmented@@PBUcharCount@core@@0PAPAU23@@Z  (Idle)
01:000020E0 ?_getAll_nd@segmented_utf16@@SAXPAUsegmented_utf16_struct@segmented@@PAPB_W@Z 
--- From 'Obj\string.19AABD3B.obj'
01:00002140 ?_mkIterator@segmented_utf16@@SAXPAUsegmented_utf16_struct@segmented@@PAPAViterator@@@PAPAUtuple_struct@core@@AAUbyteCount@6@PAPB_W@Z 
--- From 'Obj\segmented_utf16.76E668A2.obj'
01:000021A0 ?_mkIterator@segmented_utf16@@SAXPAUsegmented_utf16_struct@segmented@@PBUcharCount@core@@PAPAViterator@@@PAPAUtuple_struct@5@AAUbyteCount@5@PAPB_W@Z  (Idle)
01:00002218 ?validate@segmented_utf16@@SAXPAUsegmented_utf16_struct@segmented@@@Z  (Idle)
01:00002270 ?_fromCC@segmented_utf16@@SAXPBUcharCount@core@@AAUbyteCount@3@@Z 
01:00002284 ?_toCC@segmented_utf16@@SAXPBUbyteCount@core@@AAUcharCount@3@@Z 
01:000022AC ?_toTerm@segmented_utf16@@SAXQAVrTypeLibrary@TypeLibraries@RunTime@VIP@@PAUsegmented_utf16_struct@segmented@@PAX@Z  (Idle)
01:00002340 ?_fromTerm@segmented_utf16@@SAXQAVrTypeLibrary@TypeLibraries@RunTime@VIP@@XPAPAUsegmented_utf16_struct@segmented@@@Z  (Idle)
01:000023B0 ?_new@segmented_utf16@@SAXPAPAVsegmentedSupportSite@@@PAPB_W@Z  (Idle)
01:000023D8 ?__lateFactInit$support$0$segmented_utf16@classDB@1@SAXPAPAVsegmentedSupport@@@PAPB_W@Z 
--- From 'Obj\string.19AABD3B.obj'
01:00002410 ?support@segmented_utf16@@SGQAVsegmentedSupport@@@PB_WXZ 
--- From 'Obj\segmented_utf16.76E668A2.obj'
01:00002450 segmented_utf16?_initObject@@@QAGXQAV1@H@Z 
01:00002464 ?@create_object@segmented_utf16@@SGQAV1@@XZ 
01:00002480 segmented_utf16?_InternalFinalizer@@@QAGXQAV1@@Z 
--- From 'Obj\segmentedsupport.2BAFE67D.obj'
01:00002490 ?new$@segmentedSupport@@SAXQAV1@@XQAVrTypeLibrary@TypeLibraries@RunTime@VIP@@QAVsegmentedSupportSite@@@X@Z  (Idle)
01:000024A4 ?_mkFromBuffer$@segmentedSupport@@SAXQAV1@@XPAXPBUbyteCount@core@@PAPAUsegmented_struct@segmented@@PAX@Z 
01:00002504 ?_concat$@segmentedSupport@@SAXQAV1@@XPAUsegmented_struct@segmented@@X1PAPAU34@PAX@Z 
01:000026C8 ?_concat2$@segmentedSupport@@SAXQAV1@@XPAUcompareResult_struct@_builtIn@@PAUsegmented_struct@segmented@@X2PAPAU56@PAX@Z 
01:0000272C ?_concat_inRight$@segmentedSupport@@SAXQAV1@@XPAUsegmented_struct@segmented@@X1PAPAU34@PAX@Z 
01:00002A14 ?_concat_inLeft$@segmentedSupport@@SAXQAV1@@XPAUsegmented_struct@segmented@@X1PAPAU34@PAX@Z 
01:00002CFC ?_front$@segmentedSupport@@SAXQAV1@@XPAUsegmented_struct@segmented@@XPBUbyteCount@core@@PAPAU34@PAX@Z 
01:00003080 ?_rear$@segmentedSupport@@SAXQAV1@@XPAUsegmented_struct@segmented@@XPBUbyteCount@core@@PAPAU34@PAX@Z 
01:00003430 ?_subSegment$@segmentedSupport@@SAXQAV1@@XPAUsegmented_struct@segmented@@XPBUbyteCount@core@@2PAPAU34@PAX@Z 
01:00003468 ?split$@segmentedSupport@@SAXQAV1@@XPAUsegmented_struct@segmented@@XPBUbyteCount@core@@PAPAU34@PAX3@Z 
01:00003494 ?_insert$@segmentedSupport@@SAXQAV1@@XPAUsegmented_struct@segmented@@XPBUbyteCount@core@@1PAPAU34@PAX@Z 
01:00003500 ?_getAll_nd$@segmentedSupport@@SAXQAV1@@XPAUsegmented_struct@segmented@@XPAX@Z 
01:00003568 ?_getAllLeafs_nd@segmentedSupport@@SAXQAVrTypeLibrary@TypeLibraries@RunTime@VIP@@PAUsegmented_struct@segmented@@XPAPAU23@PAX@Z 
01:000036B0 ?_mkIterator$@segmentedSupport@@SAXQAV1@@XPAUsegmented_struct@segmented@@XPAPAViterator@@@PAPAUtuple_struct@core@@AAUbyteCount@7@PAX@Z 
01:000036CC ?_mkIterator$@segmentedSupport@@SAXQAV1@@XPAUsegmented_struct@segmented@@XPBUbyteCount@core@@PAPAViterator@@@PAPAUtuple_struct@6@AAU56@PAX@Z 
01:000036FC ?_mkNode2$@segmentedSupport@@SAXQAV1@@XPAUsegmented_struct@segmented@@X1PAPAU34@PAX@Z 
01:000037AC ?_mkNode3$@segmentedSupport@@SAXQAV1@@XPAUsegmented_struct@segmented@@X11PAPAU34@PAX@Z 
01:00003888 ?_getHeight$@segmentedSupport@@SAXQAV1@@XPAUsegmented_struct@segmented@@XPAI@Z 
01:000038E4 ?_copyToBuffer$@segmentedSupport@@SAXQAV1@@XQAVrTypeLibrary@TypeLibraries@RunTime@VIP@@PAUsegmented_struct@segmented@@XXPAPAX@Z 
01:000039C0 ?validate$@segmentedSupport@@SAXQAV1@@XPAUsegmented_struct@segmented@@X@Z 
01:000039F8 ?_validate2$@segmentedSupport@@SAXQAV1@@XIPAUsegmented_struct@segmented@@XAAUbyteCount@core@@@Z 
01:00003D0C ?notEmpty$@segmentedSupport@@SAXQAV1@@XPAUsegmented_struct@segmented@@X@Z 
01:00003D50 ?_new@segmentedSupport@@SAXQAVrTypeLibrary@TypeLibraries@RunTime@VIP@@QAVsegmentedSupportSite@@@XPAPAV1@@PAX@Z 
01:00003D80 ?_object_typelib_initializer$@segmentedSupport@@SGXQAV1@@XQAVrTypeLibrary@TypeLibraries@RunTime@VIP@@@Z 
01:00003D98 ?new$@segmentedIterator@@SAXQAV1@@XQAVrTypeLibrary@TypeLibraries@RunTime@VIP@@PAUsegmented_struct@segmented@@XPBUbyteCount@core@@@Z  (Idle)
01:00003E1C ?_findSegment$@segmentedIterator@@SAXQAV1@@XPAUsegmented_struct@segmented@@XPBUbyteCount@core@@AAU56@@Z 
01:00003E98 ?_tryFindSegment$@segmentedIterator@@SAXQAV1@@XPAUsegmented_struct@segmented@@XPBUbyteCount@core@@AAU56@@Z 
01:00004184 ?_siteTryGetNext$@segmentedIterator@@SAXQAV1@@XPAPAUtuple_struct@core@@AAUbyteCount@4@PAX@Z 
01:0000422C ?_tryGetNext2$@segmentedIterator@@SAXQAV1@@XPAUsegmented_struct@segmented@@XPAPAUtuple_struct@core@@AAUbyteCount@6@PAX@Z 
01:00004344 ?_new@segmentedIterator@@SAXQAVrTypeLibrary@TypeLibraries@RunTime@VIP@@PAUsegmented_struct@segmented@@XPBUbyteCount@core@@PAPAViterator@@@PAPAUtuple_struct@5@AAU45@PAX@Z 
01:00004378 ?_object_typelib_initializer$@segmentedIterator@@SGXQAV1@@XQAVrTypeLibrary@TypeLibraries@RunTime@VIP@@@Z 
01:00004390 ?_mk_tl_0_iterator{@Elem}$imp$$@segmentedIterator@@SGQAVrTypeLibrary@TypeLibraries@RunTime@VIP@@QAV1@@X@Z 
01:000043D4 ?_object_facts_initializer$@segmentedIterator@@SGXQAV1@@X@Z 
01:000043F4 segmentedSupport{@Segment}?_initObject@@@QAGXQAV1@H@Z 
01:0000441C ?@create_object@segmentedSupport@@SGQAV1@@XQAVrTypeLibrary@TypeLibraries@RunTime@VIP@@@Z 
01:00004440 segmentedSupport{@Segment}?_InternalFinalizer@@@QAGXQAV1@@Z 
01:000044B4 segmentedIterator{@Segment}?_initObject@@@QAGXQAV1@H@Z 
01:00004510 ?@create_object@segmentedIterator@@SGQAV1@@XQAVrTypeLibrary@TypeLibraries@RunTime@VIP@@@Z 
01:00004534 segmentedIterator{@Segment}?_InternalFinalizer@@@QAGXQAV1@@Z 
--- From 'Obj\weakreference.0A1AF11C.obj'
01:00004550 ?new$@weakReference@@SAXQAV1@@XQAVrTypeLibrary@TypeLibraries@RunTime@VIP@@X@Z  (Idle)
01:00004588 ?_tryDeref$@weakReference@@SAXQAV1@@XPAX@Z 
01:00004630 ?doIfExist$@weakReference@@SAXQAV1@@XPA$?predicate$1@core@@SAXX@Z$@Z 
01:000046B4 ?released@weakReference@@SGQAVevent0@@@QAV1@@X@Z 
01:00004704 ?finalize$@weakReference@@SGXQAV1@@X@Z 
--- From 'Obj\varm.B882E173.obj'
01:00004760 ?_new@weakReference@@SAXQAVrTypeLibrary@TypeLibraries@RunTime@VIP@@XPAPAV1@@PAX@Z 
--- From 'Obj\weakreference.0A1AF11C.obj'
01:00004790 ?_object_typelib_initializer$@weakReference@@SGXQAV1@@XQAVrTypeLibrary@TypeLibraries@RunTime@VIP@@@Z 
01:000047A8 ?_object_facts_initializer$@weakReference@@SGXQAV1@@X@Z 
01:000047C8 weakReference{@Type}?_initObject@@@QAGXQAV1@H@Z 
01:000047FC ?@create_object@weakReference@@SGQAV1@@XQAVrTypeLibrary@TypeLibraries@RunTime@VIP@@@Z 
01:00004820 weakReference{@Type}?_InternalFinalizer@@@QAGXQAV1@@Z 
--- From 'Obj\exceptiondump.2B9C9E40.obj'
01:00004870 ?_tryMapLookUp@namedValue@@SAXQAVrTypeLibrary@TypeLibraries@RunTime@VIP@@PAU?$__packedList_struct@PAUnamedValue_struct@core@@X@@PB_WPAX@Z 
--- From 'Obj\namedvalue.6D52B2A6.obj'
01:000048DC ?_tryMapLookUpIgnoreCase@namedValue@@SAXQAVrTypeLibrary@TypeLibraries@RunTime@VIP@@PAU?$__packedList_struct@PAUnamedValue_struct@core@@X@@PB_WPAX@Z  (Idle)
01:0000495C ?_mapLookUp@namedValue@@SAXQAVrTypeLibrary@TypeLibraries@RunTime@VIP@@PAU?$__packedList_struct@PAUnamedValue_struct@core@@X@@PB_WPAX@Z  (Idle)
01:00004AB0 ?_mapLookUp@namedValue@@SAXQAVrTypeLibrary@TypeLibraries@RunTime@VIP@@PAU?$__packedList_struct@PAUnamedValue_struct@core@@X@@PB_WXPAX@Z  (Idle)
01:00004AEC ?_lookUp_nd@namedValue@@SAXQAVrTypeLibrary@TypeLibraries@RunTime@VIP@@PAU?$__packedList_struct@PAUnamedValue_struct@core@@X@@PB_WPAX@Z  (Idle)
01:00004B6C ?_getNamed_integer@namedValue@@SAXPAU?$__packedList_struct@PAUnamedValue_struct@core@@PAUvalue_struct@3@@@PB_WPAH@Z  (Idle)
01:00004BF8 ?_tryGetNamed_integer@namedValue@@SAXPAU?$__packedList_struct@PAUnamedValue_struct@core@@PAUvalue_struct@3@@@PB_WPAH@Z  (Idle)
01:00004C58 ?_getNamedDefault_integer@namedValue@@SAXPAU?$__packedList_struct@PAUnamedValue_struct@core@@PAUvalue_struct@3@@@PB_WHPAH@Z  (Idle)
01:00004CD4 ?_getNamed_unsigned@namedValue@@SAXPAU?$__packedList_struct@PAUnamedValue_struct@core@@PAUvalue_struct@3@@@PB_WPAI@Z  (Idle)
01:00004D60 ?_tryGetNamed_unsigned@namedValue@@SAXPAU?$__packedList_struct@PAUnamedValue_struct@core@@PAUvalue_struct@3@@@PB_WPAI@Z  (Idle)
01:00004DC0 ?_getNamedDefault_unsigned@namedValue@@SAXPAU?$__packedList_struct@PAUnamedValue_struct@core@@PAUvalue_struct@3@@@PB_WIPAI@Z  (Idle)
01:00004E3C ?_getNamed_real@namedValue@@SAXPAU?$__packedList_struct@PAUnamedValue_struct@core@@PAUvalue_struct@3@@@PB_WPAPAN@Z  (Idle)
01:00004EC8 ?_tryGetNamed_real@namedValue@@SAXPAU?$__packedList_struct@PAUnamedValue_struct@core@@PAUvalue_struct@3@@@PB_WPAPAN@Z  (Idle)
01:00004F28 ?_getNamedDefault_real@namedValue@@SAXPAU?$__packedList_struct@PAUnamedValue_struct@core@@PAUvalue_struct@3@@@PB_WPANPAPAN@Z  (Idle)
01:00004FA4 ?_getNamed_char@namedValue@@SAXPAU?$__packedList_struct@PAUnamedValue_struct@core@@PAUvalue_struct@3@@@PB_WPA_W@Z  (Idle)
01:00005030 ?_tryGetNamed_char@namedValue@@SAXPAU?$__packedList_struct@PAUnamedValue_struct@core@@PAUvalue_struct@3@@@PB_WPA_W@Z  (Idle)
01:00005090 ?_getNamedDefault_char@namedValue@@SAXPAU?$__packedList_struct@PAUnamedValue_struct@core@@PAUvalue_struct@3@@@PB_W_WPA_W@Z  (Idle)
01:00005110 ?_getNamed_string@namedValue@@SAXPAU?$__packedList_struct@PAUnamedValue_struct@core@@PAUvalue_struct@3@@@PB_WPAPB_W@Z  (Idle)
--- From 'Obj\exceptiondump.2B9C9E40.obj'
01:0000519C ?_tryGetNamed_string@namedValue@@SAXPAU?$__packedList_struct@PAUnamedValue_struct@core@@PAUvalue_struct@3@@@PB_WPAPB_W@Z 
--- From 'Obj\namedvalue.6D52B2A6.obj'
01:000051FC ?_getNamedDefault_string@namedValue@@SAXPAU?$__packedList_struct@PAUnamedValue_struct@core@@PAUvalue_struct@3@@@PB_W1PAPB_W@Z  (Idle)
01:00005278 ?_getNamed_boolean@namedValue@@SAXPAU?$__packedList_struct@PAUnamedValue_struct@core@@PAUvalue_struct@3@@@PB_WPAPAUboolean_struct@_builtIn@@@Z  (Idle)
01:000052F4 ?_tryGetNamed_boolean@namedValue@@SAXPAU?$__packedList_struct@PAUnamedValue_struct@core@@PAUvalue_struct@3@@@PB_WPAPAUboolean_struct@_builtIn@@@Z  (Idle)
01:00005344 ?_getNamedDefault_boolean@namedValue@@SAXPAU?$__packedList_struct@PAUnamedValue_struct@core@@PAUvalue_struct@3@@@PB_WPAUboolean_struct@_builtIn@@PAPAU67@@Z  (Idle)
01:000053B0 ?_getNamed_binary@namedValue@@SAXPAU?$__packedList_struct@PAUnamedValue_struct@core@@PAUvalue_struct@3@@@PB_WQAPAE@Z  (Idle)
01:00005454 ?_tryGetNamed_binary@namedValue@@SAXPAU?$__packedList_struct@PAUnamedValue_struct@core@@PAUvalue_struct@3@@@PB_WQAPAE@Z  (Idle)
01:000054B4 ?_getNamedDefault_binary@namedValue@@SAXPAU?$__packedList_struct@PAUnamedValue_struct@core@@PAUvalue_struct@3@@@PB_WQAEQAPAE@Z  (Idle)
01:00005540 ?_getNamed_object@namedValue@@SAXPAU?$__packedList_struct@PAUnamedValue_struct@core@@PAUvalue_struct@3@@@PB_WPAPAV6@@@Z  (Idle)
01:000055E4 ?_tryGetNamed_object@namedValue@@SAXPAU?$__packedList_struct@PAUnamedValue_struct@core@@PAUvalue_struct@3@@@PB_WPAPAV6@@@Z  (Idle)
01:00005644 ?_getNamedDefault_object@namedValue@@SAXPAU?$__packedList_struct@PAUnamedValue_struct@core@@PAUvalue_struct@3@@@PB_WQAV6@@PAPAV6@@@Z  (Idle)
01:000056D0 ?_getNamed_pointer@namedValue@@SAXPAU?$__packedList_struct@PAUnamedValue_struct@core@@PAUvalue_struct@3@@@PB_WPAPAX@Z  (Idle)
01:00005774 ?_tryGetNamed_pointer@namedValue@@SAXPAU?$__packedList_struct@PAUnamedValue_struct@core@@PAUvalue_struct@3@@@PB_WPAPAX@Z  (Idle)
01:000057D4 ?_getNamedDefault_pointer@namedValue@@SAXPAU?$__packedList_struct@PAUnamedValue_struct@core@@PAUvalue_struct@3@@@PB_WPAXPAPAX@Z  (Idle)
01:00005850 ?_getNamed_handle@namedValue@@SAXPAU?$__packedList_struct@PAUnamedValue_struct@core@@PAUvalue_struct@3@@@PB_WAAU6_builtIn@@@Z  (Idle)
01:000058F4 ?_tryGetNamed_handle@namedValue@@SAXPAU?$__packedList_struct@PAUnamedValue_struct@core@@PAUvalue_struct@3@@@PB_WAAU6_builtIn@@@Z  (Idle)
01:00005954 ?_getNamedDefault_handle@namedValue@@SAXPAU?$__packedList_struct@PAUnamedValue_struct@core@@PAUvalue_struct@3@@@PB_WPBU6_builtIn@@AAU67@@Z  (Idle)
01:000059D0 ?_getNamed_gmtTimeValue@namedValue@@SAXPAU?$__packedList_struct@PAUnamedValue_struct@core@@PAUvalue_struct@3@@@PB_WPAAAU63@@Z  (Idle)
01:00005A5C ?_tryGetNamed_gmtTimeValue@namedValue@@SAXPAU?$__packedList_struct@PAUnamedValue_struct@core@@PAUvalue_struct@3@@@PB_WPAAAU63@@Z  (Idle)
01:00005ABC ?_getNamedDefault_gmtTimeValue@namedValue@@SAXPAU?$__packedList_struct@PAUnamedValue_struct@core@@PAUvalue_struct@3@@@PB_WPAPBU63@PAAAU63@@Z  (Idle)
01:00005B38 ?_getNamed_integer64@namedValue@@SAXPAU?$__packedList_struct@PAUnamedValue_struct@core@@PAUvalue_struct@3@@@PB_WPAPA_J@Z  (Idle)
01:00005BCC ?_tryGetNamed_integer64@namedValue@@SAXPAU?$__packedList_struct@PAUnamedValue_struct@core@@PAUvalue_struct@3@@@PB_WPAPA_J@Z  (Idle)
01:00005C1C ?_getNamedDefault_integer64@namedValue@@SAXPAU?$__packedList_struct@PAUnamedValue_struct@core@@PAUvalue_struct@3@@@PB_WPA_JPAPA_J@Z  (Idle)
01:00005C98 ?_getNamed_unsigned64@namedValue@@SAXPAU?$__packedList_struct@PAUnamedValue_struct@core@@PAUvalue_struct@3@@@PB_WPAPA_K@Z  (Idle)
01:00005D2C ?_tryGetNamed_unsigned64@namedValue@@SAXPAU?$__packedList_struct@PAUnamedValue_struct@core@@PAUvalue_struct@3@@@PB_WPAPA_K@Z  (Idle)
01:00005D7C ?_getNamedDefault_unsigned64@namedValue@@SAXPAU?$__packedList_struct@PAUnamedValue_struct@core@@PAUvalue_struct@3@@@PB_WPA_KPAPA_K@Z  (Idle)
--- From 'Obj\varm.B882E173.obj'
01:00005E00 ?_present_term@presenter@@SAXQAVrTypeLibrary@TypeLibraries@RunTime@VIP@@XPAPAUpresentation_struct@1@@Z 
--- From 'Obj\outputstreamsupport.6F229CFB.obj'
01:00005E24 ?_present_term_native@presenter@@SAXQAVrTypeLibrary@TypeLibraries@RunTime@VIP@@XPAPAUpresentation_struct@1@@Z 
01:00005E48 ?_present@presenter@@SAXPBUany@_builtIn@@PAPAUpresentation_struct@1@@Z 
--- From 'Obj\presenter.E6E77556.obj'
01:00005E64 ?_present_native@presenter@@SAXPBUany@_builtIn@@PAPAUpresentation_struct@1@@Z 
01:00005E80 ?_presentdebug/2nf$1@presenter@@SAXPAUpresentdebug/2nf$1_struct@1@PAPAUpresentation_struct@1@@Z 
--- From 'Obj\outputstreamsupport.6F229CFB.obj'
01:00005E94 ?_presentDebug@presenter@@SAXPBUany@_builtIn@@PAUboolean_struct@3@PAPAUpresentation_struct@1@@Z 
--- From 'Obj\presenter.E6E77556.obj'
01:00006298 ?_mkPresenter_fixedList@presenter@@SAXPAU?$__packedList_struct@PAUfieldPresentation_struct@1@@@PAPAUpresentation_struct@1@@Z  (Idle)
01:000062C4 ?_mkPresenter_fixedList@presenter@@SAXPB_WPAU?$__packedList_struct@PAUfieldPresentation_struct@1@@@PAPAUpresentation_struct@1@@Z 
--- From 'Obj\core.5D9B9483.obj'
01:0000630C ?_mkPresenter_fixed@presenter@@SAXPAUfieldPresentation_struct@1@PAPAUpresentation_struct@1@@Z 
--- From 'Obj\segmented.E9C86B20.obj'
01:00006330 ?_mkPresenter_fixed@presenter@@SAXPAUfieldPresentation_struct@1@0PAPAUpresentation_struct@1@@Z 
--- From 'Obj\presenter.E6E77556.obj'
01:00006370 ?_mkPresenter_fixed@presenter@@SAXPAUfieldPresentation_struct@1@00PAPAUpresentation_struct@1@@Z  (Idle)
01:000063C4 ?_mkPresenter_fixed@presenter@@SAXPAUfieldPresentation_struct@1@000PAPAUpresentation_struct@1@@Z  (Idle)
--- From 'Obj\time.6AFD2988.obj'
01:0000642C ?_mkPresenter_fixed@presenter@@SAXPAUfieldPresentation_struct@1@0000PAPAUpresentation_struct@1@@Z 
--- From 'Obj\core.5D9B9483.obj'
01:000064A4 ?_mkPresenter_fixed@presenter@@SAXPAUfieldPresentation_struct@1@00000PAPAUpresentation_struct@1@@Z 
01:0000652C ?_mkPresenter_fixed@presenter@@SAXPAUfieldPresentation_struct@1@000000PAPAUpresentation_struct@1@@Z 
--- From 'Obj\presenter.E6E77556.obj'
01:000065C8 ?_mkPresenter_fixed@presenter@@SAXPAUfieldPresentation_struct@1@0000000PAPAUpresentation_struct@1@@Z  (Idle)
01:00006678 ?_mkPresenter_fixed@presenter@@SAXPAUfieldPresentation_struct@1@00000000PAPAUpresentation_struct@1@@Z  (Idle)
01:0000673C ?_mkPresenter_fixed@presenter@@SAXPAUfieldPresentation_struct@1@000000000PAPAUpresentation_struct@1@@Z  (Idle)
--- From 'Obj\core.5D9B9483.obj'
01:00006810 ?_mkPresenter_delim@presenter@@SAXPB_WPAUfieldPresentation_struct@1@1PAPAUpresentation_struct@1@@Z 
--- From 'Obj\presenter.E6E77556.obj'
01:00006850 ?_mkPresenter_delim@presenter@@SAXPB_WPAUfieldPresentation_struct@1@11PAPAUpresentation_struct@1@@Z  (Idle)
--- From 'Obj\segmented.E9C86B20.obj'
01:000068A4 ?_mkPresenter_delim@presenter@@SAXPB_WPAUfieldPresentation_struct@1@111PAPAUpresentation_struct@1@@Z 
01:0000690C ?_mkPresenter_delim@presenter@@SAXPB_WPAUfieldPresentation_struct@1@1111PAPAUpresentation_struct@1@@Z 
--- From 'Obj\presenter.E6E77556.obj'
01:00006984 ?_mkPresenter_delim@presenter@@SAXPB_WPAUfieldPresentation_struct@1@11111PAPAUpresentation_struct@1@@Z  (Idle)
01:00006A0C ?_mkPresenter_delim@presenter@@SAXPB_WPAUfieldPresentation_struct@1@111111PAPAUpresentation_struct@1@@Z  (Idle)
01:00006AA8 ?_mkPresenter_delim@presenter@@SAXPB_WPAUfieldPresentation_struct@1@1111111PAPAUpresentation_struct@1@@Z  (Idle)
01:00006B58 ?_mkPresenter_delim@presenter@@SAXPB_WPAUfieldPresentation_struct@1@11111111PAPAUpresentation_struct@1@@Z  (Idle)
01:00006C1C ?_mkPresenter_delim@presenter@@SAXPB_WPAUfieldPresentation_struct@1@111111111PAPAUpresentation_struct@1@@Z  (Idle)
--- From 'Obj\core.5D9B9483.obj'
01:00006CF0 ?_mkNoExpand@presenter@@SAXQAVrTypeLibrary@TypeLibraries@RunTime@VIP@@PB_WXPAPAUpresentation_struct@1@@Z 
--- From 'Obj\segmented.E9C86B20.obj'
01:00006D2C ?_mkExpand@presenter@@SAXQAVrTypeLibrary@TypeLibraries@RunTime@VIP@@PB_WXPAPAUpresentation_struct@1@@Z 
--- From 'Obj\core.5D9B9483.obj'
01:00006D6C ?_mkSub_term@presenter@@SAXQAVrTypeLibrary@TypeLibraries@RunTime@VIP@@0XPAPAUsubPresentation_struct@1@PAX@Z 
--- From 'Obj\segmented.E9C86B20.obj'
01:00006DA8 ?_mkFP_term@presenter@@SAXQAVrTypeLibrary@TypeLibraries@RunTime@VIP@@PB_WXPAPAUfieldPresentation_struct@1@@Z 
01:00006DE0 ?_mkFP_childOnly_term@presenter@@SAXQAVrTypeLibrary@TypeLibraries@RunTime@VIP@@PB_WXPAPAUfieldPresentation_struct@1@@Z 
--- From 'Obj\presenter.E6E77556.obj'
01:00006E20 ?_mkFP_pres@presenter@@SAXPB_WPA$?_function$1@core@@SAXPAPAUpresentation_struct@1@@Z$PAPAUfieldPresentation_struct@1@@Z  (Idle)
--- From 'Obj\collectionsupport.A039CC0D.obj'
01:00006E64 ?_mkPresenter_set@presenter@@SAXQAVrTypeLibrary@TypeLibraries@RunTime@VIP@@PA$?_function_nd$1@core@@SAXPAX@Z$PAPAUpresentation_struct@1@@Z 
--- From 'Obj\presenter.E6E77556.obj'
01:00006EB0 ?_mkpresenter_setelements/1nf$1@presenter@@SAXPAUmkpresenter_setelements/1nf$1_struct@1@PAPAUsubPresentation_struct@1@PAPAUpresentation_struct@1@@Z 
01:00006F2C ?_mkPresenter_setElements@presenter@@SAXQAVrTypeLibrary@TypeLibraries@RunTime@VIP@@PA$?_function_nd$1@core@@SAXPAX@Z$PAPAUpresentation_struct@1@@Z 
--- From 'Obj\mapsupport.C7248B7B.obj'
01:00006FAC ?_mkPresenter_map@presenter@@SAXQAVrTypeLibrary@TypeLibraries@RunTime@VIP@@0PA$?_function_nd$1@core@@SAXPAPAUtuple_struct@1@PAXPAX@Z$PAPAUpresentation_struct@1@@Z 
--- From 'Obj\presenter.E6E77556.obj'
01:0000700C ?_mkpresenter_mapelements/2nf$1@presenter@@SAXPAUmkpresenter_mapelements/2nf$1_struct@1@PAPAUsubPresentation_struct@1@PAPAUpresentation_struct@1@@Z 
01:00007140 ?_mkPresenter_mapElements@presenter@@SAXQAVrTypeLibrary@TypeLibraries@RunTime@VIP@@0PB_WPA$?_function_nd$1@core@@SAXPAPAUtuple_struct@1@PAXPAX@Z$PAPAUpresentation_struct@1@@Z 
01:000071CC ?_presenter_flagset/2nf$1@presenter@@SAXPAUpresenter_flagset/2nf$1_struct@1@PAPAUsubPresentation_struct@1@PAPAUpresentation_struct@1@@Z 
01:00007278 ?_presenter_flagset/2nf$2@presenter@@SAXPAUpresenter_flagset/2nf$2_struct@1@PAPAUpresentation_struct@1@@Z 
01:00007338 ?_presenter_flagSet@presenter@@SAXIPAU?$__packedList_struct@PAUtuple_struct@core@@IPB_W@@PAPAUpresentation_struct@1@@Z  (Idle)
--- From 'Obj\exe.D80FC844.obj'
01:000073D0 ?_setRuntimeExceptionRaiser@programControl@@SAXXPAX@Z 
--- From 'Obj\reflection.ACE59E5C.obj'
01:00007410 ?_getTypeLib@reflection_native@reflection@pfc@@SAXQAVrTypeLibrary@TypeLibraries@RunTime@VIP@@XPAPAVtypeLibrary@@23@@Z  (Idle)
01:00007418 $$$reflection$GetTypeLib 
--- From 'Obj\exceptiondump.2B9C9E40.obj'
01:00007428 ?_getScopeDescriptor@reflection_native@reflection@pfc@@SAXPBUhScopeDescriptor@core@@PAPAVscopeDescriptor@@23@@Z 
--- From 'Obj\reflection.ACE59E5C.obj'
01:00007438 ?isPointerNull@reflection_native@reflection@pfc@@SAXQAVrTypeLibrary@TypeLibraries@RunTime@VIP@@X@Z  (Idle)
01:0000744C ?isPointerNullEx@reflection_native@reflection@pfc@@SAXQAVtypeLibrary@@23@PBUboxedTerm@223@@Z 
01:0000746C ?isPointerValidEx@reflection_native@reflection@pfc@@SAXQAVtypeLibrary@@23@PBUboxedTerm@223@@Z 
01:00007584 ?isListType@reflection_native@reflection@pfc@@SAXQAVtypeLibrary@@23@@Z  (Idle)
01:000075CC ?isEndOfList@reflection_native@reflection@pfc@@SAXPBUboxedTerm@223@@Z  (Idle)
01:000075E4 ?isSomeType@reflection_native@reflection@pfc@@SAXQAVtypeLibrary@@23@@Z  (Idle)
01:00007644 ?expandAnyTerm@reflection_native@reflection@pfc@@SAXPBUany@_builtIn@@PAPAVtypeLibrary@@23@AAUboxedTerm@223@@Z 
01:00007660 ?_mk_anyTerm@reflection_native@reflection@pfc@@SAXQAVtypeLibrary@@23@PBUboxedTerm@223@AAUany@_builtIn@@@Z  (Idle)
01:0000768C ?_getTypeDescriptor@reflection_native@reflection@pfc@@SAXQAVtypeLibrary@@23@PAPAVtypeDescriptor@@23@@Z  (Idle)
01:000076CC ?expandPrologPredicateValue@reflection_native@reflection@pfc@@SAXPBUboxedTerm@223@PAPAXPAPAVobject@@@@Z  (Idle)
01:00007710 ?_mk_prologPredicateValue@reflection_native@reflection@pfc@@SAXPAXQAVobject@@@AAUboxedTerm@223@@Z  (Idle)
01:0000773C ?expandFormalParameter@reflection_native@reflection@pfc@@SAXPAUformalParameter_struct@typeLibrary_arrow@23@PAPAVtypeLibrary@@23@PAPAUargumentFlow_struct@223@AAUarity@223@PAPAUoptional_struct@core@@PAPAUtypePattern_struct@523@@Z  (Idle)
01:000077A4 ?expandFactDbValue@reflection_native@reflection@pfc@@SAXPBUboxedTerm@223@PAPAVtypeLibrary@@23@PAPAVobject@@@@Z  (Idle)
01:000077C0 ?isPrologObject@reflection_native@reflection@pfc@@SAXQAVobject@@@@Z  (Idle)
01:000077E8 ?tryGetPrologObjectDescription@reflection_native@reflection@pfc@@SAXQAVobject@@@PAPAUviewDescriptor_struct@123@PAPAUviewDescriptorTableHeader_struct@123@@Z  (Idle)
01:00007850 ?_tryGetViewDescriptorPtr@reflection_native@reflection@pfc@@SAXQAVobject@@@PAPAX@Z 
01:000078B0 ?_getClassTypeParameters@reflection_native@reflection@pfc@@SAXQAVobject@@@PAUviewDescriptorTableHeader_struct@123@PAPAU?$__packedList_struct@PAPAUtuple_struct@core@@PAPB_WPAPAVtypeLibrary@@23@@@@Z  (Idle)
01:00007AB8 ?getPrologObjectOffsets@reflection_native@reflection@pfc@@SAXIAAUbyteOffset@core@@1@Z  (Idle)
01:00007AEC ?_tryGetConstructionInterfaceTypeDescriptor@reflection_native@reflection@pfc@@SAXQAVscopeDescriptor@@23@PAPAVtypeDescriptor@@23@@Z  (Idle)
01:00007B3C ?_tryGetInterfaceScopeDescriptor@reflection_native@reflection@pfc@@SAXQAVtypeDescriptor@@23@PAPAVscopeDescriptor@@23@@Z  (Idle)
01:00007B90 ?_tryGetObjectClassDescriptor@reflection_native@reflection@pfc@@SAXQAVobject@@@PAPAVscopeDescriptor@@23@@Z  (Idle)
01:00007BC4 ?tryGetObjectClassInfo@reflection_native@reflection@pfc@@SAXQAVscopeDescriptor@@23@AAUbyteCount@core@@PAPAU?$__packedList_struct@PAPAV4@23@@@@Z  (Idle)
01:00007D8C ?tryGetPrologObjectInfo@reflection_native@reflection@pfc@@SAXQAVobject@@@PAPAVscopeDescriptor@@23@AAUbyteOffset@core@@PAPAU?$__packedList_struct@PAPAUtuple_struct@9@PAPB_WPAPAVtypeLibrary@@23@@@221@Z  (Idle)
01:00007E04 ?_setPresenter@reflection_native@reflection@pfc@@SAXQAVtypeLibrary@@23@XPAX@Z  (Idle)
01:00007EAC ?_getPresenterDescriptor@reflection_native@reflection@pfc@@SAXQAVtypeLibrary@@23@PAPAUpresenterDescriptor_struct@123@@Z 
01:00007EFC ?isNullaryStruct@reflection_native@reflection@pfc@@SAXQAVtypeLibrary@@23@@Z 
01:00007F6C ?isAnonymousPredicateClosure@reflection_native@reflection@pfc@@SAXPAUprologPredicateValue_struct@123@@Z  (Idle)
01:00007FB8 ?_tryGetInterfaceViewDescriptor@reflection_native@reflection@pfc@@SAXQAVscopeDescriptor@@23@QAVobject@@@PAPAUviewDescriptor_struct@123@@Z  (Idle)
01:0000804C ?isViewDescriptorForInterface@reflection_native@reflection@pfc@@SAXQAVscopeDescriptor@@23@PAUviewDescriptor_struct@123@@Z 
01:0000806C ?_lookupInterfaceInViewDescriptorTable@reflection_native@reflection@pfc@@SAXQAVscopeDescriptor@@23@PAXPAPAUviewDescriptor_struct@123@@Z 
01:00008164 ?_tryGetObjectStructure@reflection_native@reflection@pfc@@SAXQAVobject@@@PAPAUobjectStructure_struct@123@@Z  (Idle)
01:000081A4 ?_tryGetObjectStructure_internal@reflection_native@reflection@pfc@@SAXQAVobject@@@0PAUoptional_struct@core@@QAVvarM@@@PAXPAPAUobjectStructure_struct@123@@Z 
01:00008330 ?_getSubobjectList@reflection_native@reflection@pfc@@SAXQAVobject@@@QAVvarM@@@PAXPBUbyteCount@core@@PAU?$__packedList_struct@QAVscopeDescriptor@@23@@@PAPAU?$__packedList_struct@PAPAUobjectStructure_struct@123@@@@Z 
--- From 'Obj\arraym_inline.F665267A.obj'
01:000084E0 ?termRepresentedByValue@reflection_native@reflection@pfc@@SAXQAVtypeLibrary@@23@@Z 
--- From 'Obj\reflection.ACE59E5C.obj'
01:00008548 ?_tryGetFunctorName@reflection@1pfc@@SAXQAVrTypeLibrary@TypeLibraries@RunTime@VIP@@XPAPB_W@Z  (Idle)
01:00008578 ?_getFunctorName@reflection@1pfc@@SAXQAVrTypeLibrary@TypeLibraries@RunTime@VIP@@XPAPB_W@Z  (Idle)
01:0000861C ?_offsetOfTl@reflection@1pfc@@SAXQAVtypeLibrary@@13@IAAUbyteOffset@core@@@Z  (Idle)
01:00008788 ?_offsetOf@reflection@1pfc@@SAXQAVrTypeLibrary@TypeLibraries@RunTime@VIP@@XIAAUbyteOffset@core@@@Z  (Idle)
01:000087E4 ?_pointerOfField@reflection@1pfc@@SAXQAVrTypeLibrary@TypeLibraries@RunTime@VIP@@XIPAPAX@Z  (Idle)
01:0000880C ?_deParameterizeName@reflection@1pfc@@SAXPB_WPAPB_W@Z  (Idle)
01:00008854 ?isEmbeddedClassName@reflection@1pfc@@SAXPB_W@Z  (Idle)
01:000088D8 ?_unbox_string@reflection@1pfc@@SAXPBUboxedTerm@113@PAPB_W@Z  (Idle)
01:000088E8 ?_unbox_symbol@reflection@1pfc@@SAXPBUboxedTerm@113@PAPB_W@Z  (Idle)
01:000088F8 ?_unbox_string8@reflection@1pfc@@SAXPBUboxedTerm@113@PAPAD@Z  (Idle)
01:00008908 ?_unbox_char@reflection@1pfc@@SAXPBUboxedTerm@113@PA_W@Z  (Idle)
01:0000891C ?_unbox_binary@reflection@1pfc@@SAXPBUboxedTerm@113@QAPAE@Z  (Idle)
01:0000892C ?_unbox_pointer@reflection@1pfc@@SAXPBUboxedTerm@113@PAPAX@Z  (Idle)
01:0000893C ?_unbox_integerNative@reflection@1pfc@@SAXPBUboxedTerm@113@AAU8_builtIn@@@Z  (Idle)
01:0000894C ?_unbox_unsignedNative@reflection@1pfc@@SAXPBUboxedTerm@113@AAU8_builtIn@@@Z  (Idle)
01:0000895C ?_unbox_handle@reflection@1pfc@@SAXPBUboxedTerm@113@AAU8_builtIn@@@Z  (Idle)
01:0000896C ?_unbox_any@reflection@1pfc@@SAXPBUboxedTerm@113@AAU8_builtIn@@@Z  (Idle)
01:0000897C ?_unbox_object@reflection@1pfc@@SAXPBUboxedTerm@113@PAPAV8@@@Z  (Idle)
01:0000898C ?_box_string@reflection@1pfc@@SAXPB_WAAUboxedTerm@113@@Z  (Idle)
01:0000899C ?_box_symbol@reflection@1pfc@@SAXPB_WAAUboxedTerm@113@@Z  (Idle)
01:000089AC ?_box_string8@reflection@1pfc@@SAXPADAAUboxedTerm@113@@Z  (Idle)
01:000089BC ?_box_char@reflection@1pfc@@SAX_WAAUboxedTerm@113@@Z  (Idle)
01:000089D0 ?_box_binary@reflection@1pfc@@SAXQAEAAUboxedTerm@113@@Z  (Idle)
01:000089E0 ?_box_pointer@reflection@1pfc@@SAXPAXAAUboxedTerm@113@@Z  (Idle)
01:000089F0 ?_box_handle@reflection@1pfc@@SAXPBU4_builtIn@@AAUboxedTerm@113@@Z  (Idle)
01:00008A00 ?_box_object@reflection@1pfc@@SAXQAV4@@AAUboxedTerm@113@@Z  (Idle)
01:00008A10 ?_box_integer@reflection@1pfc@@SAXHAAUboxedTerm@113@@Z  (Idle)
01:00008A20 ?_box_unsigned@reflection@1pfc@@SAXIAAUboxedTerm@113@@Z  (Idle)
01:00008A30 ?_box_real32@reflection@1pfc@@SAXMAAUboxedTerm@113@@Z  (Idle)
01:00008A40 ?_mustGetFunctorTypeLibrary_explicit@reflection@1pfc@@SAXPAUprogramPoint_struct@core@@QAVtypeLibrary@@13@PAPAVtypeLibrary_functor@@13@@Z  (Idle)
01:00008A84 ?unexpectedTypeLibrary@reflection@1pfc@@SAXPAUprogramPoint_struct@core@@PB_WQAVtypeLibrary@@13@@Z 
01:00008AE8 ?_mustGetNumericTypeLibrary_explicit@reflection@1pfc@@SAXPAUprogramPoint_struct@core@@QAVtypeLibrary@@13@PAPAVtypeLibrary_numeric@@13@@Z  (Idle)
01:00008B2C ?_mustGetArrowTypeLibrary_explicit@reflection@1pfc@@SAXPAUprogramPoint_struct@core@@QAVtypeLibrary@@13@PAPAVtypeLibrary_arrow@@13@@Z  (Idle)
01:00008B70 ?_mustGetInterfaceDescriptor_explicit@reflection@1pfc@@SAXPAUprogramPoint_struct@core@@QAVtypeLibrary@@13@PAPAVscopeDescriptor@@13@@Z  (Idle)
01:00008BB4 ?_mustGetInlineSizeInTypeElements_explicit@reflection@1pfc@@SAXPAUprogramPoint_struct@core@@QAVtypeLibrary_functor@@13@AAUbyteCount@5@@Z  (Idle)
01:00008C08 ?mustGetNumericRange_integer_explicit@reflection@1pfc@@SAXPAUprogramPoint_struct@core@@QAVtypeLibrary_numeric@@13@PAHPAH@Z  (Idle)
01:00008CA8 ?unexpectedNumericRange@reflection@1pfc@@SAXPAUprogramPoint_struct@core@@QAVtypeLibrary_numeric@@13@@Z 
01:00008D40 ?mustGetNumericRange_integer64_explicit@reflection@1pfc@@SAXPAUprogramPoint_struct@core@@QAVtypeLibrary_numeric@@13@PAPA_J2@Z  (Idle)
01:00008DBC ?mustGetNumericRange_unsigned_explicit@reflection@1pfc@@SAXPAUprogramPoint_struct@core@@QAVtypeLibrary_numeric@@13@PAIPAI@Z  (Idle)
01:00008E5C ?mustGetNumericRange_unsigned64_explicit@reflection@1pfc@@SAXPAUprogramPoint_struct@core@@QAVtypeLibrary_numeric@@13@PAPA_K2@Z  (Idle)
01:00008ED8 ?mustGetNumericRange_real_explicit@reflection@1pfc@@SAXPAUprogramPoint_struct@core@@QAVtypeLibrary_numeric@@13@PAPAN2@Z  (Idle)
01:00008F78 ?_tryGetListElementTypeLibrary@reflection@1pfc@@SAXQAVtypeLibrary@@13@PAPAV4@13@@Z  (Idle)
01:00008FC8 ?writeTypeName@reflection@1pfc@@SAXQAVtypeLibrary@@13@QAVoutputStream@@@@Z  (Idle)
01:00009180 ?typeLibraryName2stream@reflection@1pfc@@SAXQAVtypeLibrary@@13@QAVoutputStream@@@@Z 
01:00009284 ?comma2stream_iffNotFirst@reflection@1pfc@@SAXQAVvarM_boolean@@@QAVoutputStream@@@@Z 
01:00009304 ?_tryGetObjectName@reflection@1pfc@@SAXQAVobject@@@PAPB_W@Z  (Idle)
01:000093E8 ?_getSubstitutedClassName@reflection@1pfc@@SAXPB_WPAU?$__packedList_struct@PAUtuple_struct@core@@0QAVtypeLibrary@@13@@@PAPB_W@Z 
01:0000958C ?_getTypeName@reflection@1pfc@@SAXQAVtypeLibrary@@13@PAPB_W@Z 
01:000095E8 ?_unbox_unsigned@reflection@1pfc@@SAXPBUboxedTerm@113@PAI@Z  (Idle)
01:000095F8 ?_unbox_integer@reflection@1pfc@@SAXPBUboxedTerm@113@PAH@Z  (Idle)
01:00009608 ?_unbox_integer64@reflection@1pfc@@SAXPBUboxedTerm@113@PAPA_J@Z  (Idle)
01:00009610 ?_unbox_unsigned64@reflection@1pfc@@SAXPBUboxedTerm@113@PAPA_K@Z  (Idle)
01:00009618 ?_unbox_real@reflection@1pfc@@SAXPBUboxedTerm@113@PAPAN@Z  (Idle)
01:00009620 ?_unbox_real32@reflection@1pfc@@SAXPBUboxedTerm@113@PAM@Z  (Idle)
01:00009630 ?_box_integer64@reflection@1pfc@@SAXPA_JAAUboxedTerm@113@@Z  (Idle)
01:00009660 ?_box_unsigned64@reflection@1pfc@@SAXPA_KAAUboxedTerm@113@@Z  (Idle)
01:00009690 ?_box_real@reflection@1pfc@@SAXPANAAUboxedTerm@113@@Z  (Idle)
--- From 'Obj\registry.917E8C91.obj'
01:000096C0 ?raise_wrongValue_explicit@registry_exception@@SAXPAUprogramPoint_struct@core@@PBUhResult@3@PAUrootKey_struct@registry@@PB_W3@Z  (Idle)
01:00009854 ?raise_noPath_explicit@registry_exception@@SAXPAUprogramPoint_struct@core@@PBUhResult@3@PAUrootKey_struct@registry@@PB_W3@Z  (Idle)
01:000099E8 ?raise_cannotCreateKey_explicit@registry_exception@@SAXPAUprogramPoint_struct@core@@PBUhResult@3@PAUrootKey_struct@registry@@PB_W@Z  (Idle)
01:00009B28 ?_getSystemDescription@registry_exception@@SAXPBUhResult@core@@PAPB_W@Z 
01:00009B78 ?_getRootKeyName@registry_exception@@SAXPAUrootKey_struct@registry@@PAPB_W@Z 
01:00009BDC ?createKey@registry@@SAXPAUrootKey_struct@1@PB_W@Z  (Idle)
01:00009BF4 ?createKey@registry@@SAXPAUrootKey_struct@1@PB_WPAUregistryView_struct@1@@Z 
01:00009C50 ?existKey@registry@@SAXPAUrootKey_struct@1@PB_W@Z  (Idle)
01:00009C68 ?existKey@registry@@SAXPAUrootKey_struct@1@PB_WPAUregistryView_struct@1@@Z 
01:00009CBC ?deleteKey@registry@@SAXPAUrootKey_struct@1@PB_W@Z  (Idle)
01:00009CD4 ?deleteKey@registry@@SAXPAUrootKey_struct@1@PB_WPAUregistryView_struct@1@@Z 
01:00009DCC ?is32on32@registry@@SAXI@Z 
01:00009E20 ?deleteKeyList@registry@@SAXPAUrootKey_struct@1@PB_WPAU?$__packedList_struct@1@@PAUregistryView_struct@1@@Z 
01:00009E80 ?setValue@registry@@SAXPAUrootKey_struct@1@PB_WPAU?$__packedList_struct@PAUnamedValue_struct@core@@PAUvalue_struct@5@@@@Z  (Idle)
01:00009E98 ?setValue@registry@@SAXPAUrootKey_struct@1@PB_WPAU?$__packedList_struct@PAUnamedValue_struct@core@@PAUvalue_struct@5@@@PAUregistryView_struct@1@@Z 
01:00009FBC ?setValuesToKey@registry@@SAXPBUhkey@registry_native@@PAU?$__packedList_struct@PAUnamedValue_struct@core@@PAUvalue_struct@5@@@@Z 
--- From 'Obj\time_api.32F5932A.obj'
01:0000A00C ?_getValue@registry@@SAXPAUrootKey_struct@1@PB_W1PAPAUvalue_struct@core@@@Z 
--- From 'Obj\registry.917E8C91.obj'
01:0000A028 ?_getValue@registry@@SAXPAUrootKey_struct@1@PB_W1PAUregistryView_struct@1@PAPAUvalue_struct@core@@@Z 
01:0000A0DC ?_getValue@registry@@SAXPAUrootKey_struct@1@PB_W1PAUregistryView_struct@1@PAUvalue_struct@core@@PAPAU67@@Z  (Idle)
01:0000A13C ?_tryGetValue@registry@@SAXPAUrootKey_struct@1@PB_W1PAPAUvalue_struct@core@@@Z  (Idle)
01:0000A158 ?_tryGetValue@registry@@SAXPAUrootKey_struct@1@PB_W1PAUregistryView_struct@1@PAPAUvalue_struct@core@@@Z 
01:0000A254 ?removeValue@registry@@SAXPAUrootKey_struct@1@PB_WPAU?$__packedList_struct@1@@@Z  (Idle)
01:0000A26C ?removeValue@registry@@SAXPAUrootKey_struct@1@PB_WPAU?$__packedList_struct@1@@PAUregistryView_struct@1@@Z 
01:0000A31C ?removeListValues@registry@@SAXPBUhkey@registry_native@@PAU?$__packedList_struct@PB_W@@@Z 
--- From 'Obj\time_api.32F5932A.obj'
01:0000A360 ?_getSubkeys@registry@@SAXPAUrootKey_struct@1@PB_WPAPAU?$__packedList_struct@PAPB_W@@@Z 
--- From 'Obj\registry.917E8C91.obj'
01:0000A37C ?_getSubkeys@registry@@SAXPAUrootKey_struct@1@PB_WPAUregistryView_struct@1@PAPAU?$__packedList_struct@PAPB_W@@@Z 
01:0000A42C ?_getAllValues@registry@@SAXPAUrootKey_struct@1@PB_WPAPAU?$__packedList_struct@PAPAUnamedValue_struct@core@@PAPAUvalue_struct@5@@@@Z  (Idle)
01:0000A448 ?_getAllValues@registry@@SAXPAUrootKey_struct@1@PB_WPAUregistryView_struct@1@PAPAU?$__packedList_struct@PAPAUnamedValue_struct@core@@PAPAUvalue_struct@7@@@@Z 
01:0000A4F8 ?_keyWrite@registry@@SAXPAUregistryView_struct@1@AAUregsAM@registry_native@@@Z 
01:0000A514 ?_keyRead@registry@@SAXPAUregistryView_struct@1@AAUregsAM@registry_native@@@Z 
01:0000A530 ?_applyView@registry@@SAXPAUregistryView_struct@1@PBUregsAM@registry_native@@AAU45@@Z 
01:0000A57C ?_getRootKeyHandle@registry@@SAXPAUrootKey_struct@1@AAUhkey@registry_native@@@Z 
--- From 'Obj\arraym_inline.F665267A.obj'
01:0000A5E0 ?_fromTo@std@@SAXHHPAH@Z 
01:0000A628 ?_downTo@std@@SAXHHPAH@Z 
--- From 'Obj\std.2DE0EC97.obj'
01:0000A670 ?_between@std@@SAXHHPAH@Z  (Idle)
01:0000A710 ?_fromToInStep@std@@SAXHHPBUpositive@core@@PAH@Z  (Idle)
01:0000A758 ?_downToInStep@std@@SAXHHPBUpositive@core@@PAH@Z  (Idle)
01:0000A7A0 ?_betweenInStep@std@@SAXHHPBUpositive@core@@PAH@Z  (Idle)
01:0000A850 ?_countFrom@std@@SAXHPAH@Z  (Idle)
01:0000A880 ?_countFromInStep@std@@SAXHPBUpositive@core@@PAH@Z  (Idle)
01:0000A8B0 ?_countDownFrom@std@@SAXHPAH@Z  (Idle)
01:0000A8E0 ?_countDownFromInStep@std@@SAXHPBUpositive@core@@PAH@Z  (Idle)
01:0000A910 ?repeat@std@@SAXXZ  (Idle)
--- From 'Obj\exception.B6F320E8.obj'
01:0000A92C ?_cIterate@std@@SAXHPAH@Z 
--- From 'Obj\std.2DE0EC97.obj'
01:0000A95C ?_lazy/1nf$1@std@@SAXPAUlazy/1nf$1_struct@1@PAX@Z 
01:0000A9E8 ?_lazy@std@@SAXQAVrTypeLibrary@TypeLibraries@RunTime@VIP@@PA$?_function$1@core@@SAXPAX@Z$PAPA$?_function$1@core@@SAXPAX@Z$@Z  (Idle)
--- From 'Obj\gui_api.9FE53D0D.obj'
01:0000AA3C ?_fromTo@std@@SAXPA_J0PAPA_J@Z 
--- From 'Obj\std.2DE0EC97.obj'
01:0000AAE4 ?_fromTo@std@@SAXPBUintegerNative@_builtIn@@0AAU23@@Z  (Idle)
--- From 'Obj\time.6AFD2988.obj'
01:0000AB2C ?_fromTo@std@@SAXIIPAI@Z 
--- From 'Obj\std.2DE0EC97.obj'
01:0000AB74 ?_fromTo@std@@SAXPA_K0PAPA_K@Z  (Idle)
01:0000AC1C ?_fromTo@std@@SAXPBUunsignedNative@_builtIn@@0AAU23@@Z  (Idle)
01:0000AC64 ?_downTo@std@@SAXPA_J0PAPA_J@Z  (Idle)
01:0000AD0C ?_downTo@std@@SAXPBUintegerNative@_builtIn@@0AAU23@@Z  (Idle)
01:0000AD54 ?_downTo@std@@SAXIIPAI@Z  (Idle)
01:0000AD9C ?_downTo@std@@SAXPA_K0PAPA_K@Z  (Idle)
01:0000AE44 ?_downTo@std@@SAXPBUunsignedNative@_builtIn@@0AAU23@@Z  (Idle)
01:0000AE8C ?_between@std@@SAXIIPAI@Z  (Idle)
01:0000AF2C ?_cIterate@std@@SAXHPAI@Z  (Idle)
01:0000AF5C ?_cIterate@std@@SAXIPAI@Z 
01:0000AF8C ?_cIterate@std@@SAXIPAH@Z  (Idle)
--- From 'Obj\filesystem.5B0F823E.obj'
01:0000AFC0 ?new$@inputSupport@@SAXQAV1@@QAVinputBuffer@@@PAUmode_struct@stream@@@Z 
--- From 'Obj\inputstreamsupport.7AF62102.obj'
01:0000AFF4 ?setMode$@inputSupport@@SGXQAV1@@PAUmode_struct@stream@@@Z 
01:0000B028 ?getMode$@inputSupport@@SGPAUmode_struct@stream@@QAV1@@@Z 
01:0000B034 ?_readChar$@inputSupport@@SAXQAV1@@PA_W@Z 
01:0000B064 ?ungetChar$@inputSupport@@SAXQAV1@@@Z 
01:0000B08C ?_readLine$@inputSupport@@SAXQAV1@@PAPB_W@Z 
01:0000B0B8 ?_readLineCRLF$@inputSupport@@SAXQAV1@@PAPB_W@Z 
01:0000B0E4 ?_read$@inputSupport@@SAXQAV1@@QAVrTypeLibrary@TypeLibraries@RunTime@VIP@@PAX@Z 
01:0000B104 ?consult$@inputSupport@@SAXQAV1@@PBUfactDB@_builtIn@@@Z 
01:0000B130 ?reconsult$@inputSupport@@SAXQAV1@@PBUfactDB@_builtIn@@@Z 
01:0000B144 ?_readBytes$@inputSupport@@SAXQAV1@@PBUbyteCount@core@@QAPAE@Z 
01:0000B160 ?_readString$@inputSupport@@SAXQAV1@@PBUcharCount@core@@PAPB_W@Z 
01:0000B190 ?checkMode_text_explicit$@inputSupport@@SAXQAV1@@PAUprogramPoint_struct@core@@@Z 
01:0000B1B8 ?_convertMode@inputSupport@@SAXPAUmode_struct@stream@@AAUbooleanInt@core@@@Z 
01:0000B1E0 ?endOfStream$@inputSupport@@SAXQAV1@@@Z 
01:0000B220 ?repeatToEndOfStream$@inputSupport@@SAXQAV1@@@Z 
01:0000B27C ?allowNullPointersBufferSupport@inputSupport@@SGPAUboolean_struct@_builtIn@@QAV1@@@Z 
01:0000B288 ?bufferNotFound_exception_explicit@inputSupport@@SAXPAUprogramPoint_struct@core@@I@Z  (Idle)
01:0000B2A0 ?streamTo$@inputSupport@@SAXQAV1@@QAVoutputStream@@@@Z 
01:0000B2C4 ?_new@inputSupport@@SAXQAVinputBuffer@@@PAUmode_struct@stream@@PAPAV1@@@Z  (Idle)
01:0000B2F0 ?_object_facts_initializer$@inputSupport@@SGXQAV1@@@Z 
01:0000B308 ?inputBuffer@inputSupport@@SGXQAV1@@QAV0@@@Z 
01:0000B318 ?inputBuffer@inputSupport@@SGQAV0@@QAV1@@@Z 
01:0000B324 ?allowNullPointers@inputSupport@@SGXQAV1@@PAUboolean_struct@_builtIn@@@Z 
01:0000B334 ?allowNullPointers@inputSupport@@SGPAUboolean_struct@_builtIn@@QAV1@@@Z 
--- From 'Obj\filesystem.5B0F823E.obj'
01:0000B348 inputSupport?_initObject@@@QAGXQAV1@H@Z 
--- From 'Obj\inputstreamsupport.7AF62102.obj'
01:0000B36C ?@create_object@inputSupport@@SGQAV1@@XZ 
--- From 'Obj\filesystem.5B0F823E.obj'
01:0000B388 inputSupport?_InternalFinalizer@@@QAGXQAV1@@Z 
01:0000B3A0 ?new$@outputStreamSupport@@SAXQAV1@@QAVoutputStreamSupportSite@@@PAUmode_struct@stream@@@Z 
--- From 'Obj\console.E8EB4F3C.obj'
01:0000B3B8 ?new_flush$@outputStreamSupport@@SAXQAV1@@QAVoutputStreamSupportSite@@@PAUmode_struct@stream@@@Z 
--- From 'Obj\outputstreamsupport.6F229CFB.obj'
01:0000B3F0 ?newEx$@outputStreamSupport@@SAXQAV1@@QAVoutputStreamSupportSite@@@PAUmode_struct@stream@@X@Z 
01:0000B428 ?getBuffer$@outputStreamSupport@@SGXQAVbufferSupport@@@PAPAXAAUbyteCount@core@@@Z 
01:0000B44C ?getBufferLocked$@outputStreamSupport@@SGXQAVbufferSupport@@@PAPAXAAUbyteCount@core@@@Z 
01:0000B470 ?allowNullPointersBufferSupport@outputStreamSupport@@SGPAUboolean_struct@_builtIn@@QAVbufferSupport@@@@Z 
01:0000B47C ?setMode$@outputStreamSupport@@SGXQAVstream@@@PAUmode_struct@2@@Z 
01:0000B4B0 ?getMode$@outputStreamSupport@@SGPAUmode_struct@stream@@QAV3@@@Z 
01:0000B4BC ?flush$@outputStreamSupport@@SAXQAVoutputStream@@@@Z 
01:0000B4E4 ?getPosition$@outputStreamSupport@@SGPBUfileSize@fileSystem_api@@QAVstream@@@@Z 
01:0000B4FC ?setPosition$@outputStreamSupport@@SGXQAVstream@@@PBUfileSize@fileSystem_api@@@Z 
01:0000B514 ?getCRLFconversion$@outputStreamSupport@@SGPAUboolean_struct@_builtIn@@QAVstream@@@@Z 
01:0000B51C ?setCRLFconversion$@outputStreamSupport@@SGXQAVstream@@@PAUboolean_struct@_builtIn@@@Z 
01:0000B544 ?close$@outputStreamSupport@@SGXQAVstream@@@@Z 
01:0000B57C ?write$@outputStreamSupport@@SAXQAVoutputStream@@@@Z 
01:0000B5C8 ?writeQuoted$@outputStreamSupport@@SAXQAVoutputStream@@@@Z 
01:0000B610 ?writef$@outputStreamSupport@@SAXQAVoutputStream@@@PB_W@Z 
01:0000B69C ?nl$@outputStreamSupport@@SAXQAVoutputStream@@@@Z 
01:0000B6D0 ?save$@outputStreamSupport@@SAXQAVoutputStream@@@PBUfactDB@_builtIn@@@Z 
01:0000B714 ?writeBytes$@outputStreamSupport@@SAXQAVoutputStream@@@PAXPBUbyteCount@core@@@Z 
01:0000B75C ?checkClosed_explicit$@outputStreamSupport@@SAXQAV1@@PAUprogramPoint_struct@core@@@Z 
01:0000B7A4 ?checkMode_text_explicit$@outputStreamSupport@@SAXQAV1@@PAUprogramPoint_struct@core@@@Z 
01:0000B7DC ?streamFromInputBuffer$@outputStreamSupport@@SAXQAVoutputStream@@@QAVinputBuffer@@@@Z 
01:0000B7F4 ?present$@outputStreamSupport@@SAXQAVoutputStream@@@@Z 
01:0000B89C ?writePresentation@outputStreamSupport@@SAXQAVoutputStream@@@PAUpresentation_struct@presenter@@@Z  (Idle)
01:0000B8B4 ?_getPresentation@outputStreamSupport@@SAXPBUany@_builtIn@@PAUboolean_struct@3@PAPAUpresentation_struct@presenter@@@Z  (Idle)
01:0000B8E0 ?presentation2stream@outputStreamSupport@@SAXQAVoutputStream@@@PAUpresentation_struct@presenter@@PAUboolean_struct@_builtIn@@@Z 
01:0000BA68 ?structuredPresentation2stream@outputStreamSupport@@SAXQAVoutputStream@@@PB_WPAUsubPresenter_struct@presenter@@PAUboolean_struct@_builtIn@@@Z 
01:0000BC44 ?fieldPresent2stream@outputStreamSupport@@SAXQAVoutputStream@@@PAUfieldPresentation_struct@presenter@@PAUboolean_struct@_builtIn@@@Z 
01:0000BCB8 ?subLazy2stream@outputStreamSupport@@SAXQAVoutputStream@@@PAUsubPresentation_struct@presenter@@PA$?_function$1@core@@SAXPAPAUpresentation_struct@4@@Z$PAUboolean_struct@_builtIn@@@Z 
01:0000BD30 ?subPresentation2stream@outputStreamSupport@@SAXQAVoutputStream@@@PAUsubPresentation_struct@presenter@@PAUpresentation_struct@4@PAUboolean_struct@_builtIn@@@Z 
01:0000BD90 ?functorPresentation2stream@outputStreamSupport@@SAXQAVoutputStream@@@PB_WPAU?$__packedList_struct@PBUany@_builtIn@@@@PAUboolean_struct@4@@Z 
01:0000BF18 ?bufferNotFound_exception_explicit@outputStreamSupport@@SAXPAUprogramPoint_struct@core@@I@Z 
01:0000BF54 ?initRuntimePresenters@outputStreamSupport@@SAXXZ  (Idle)
01:0000BF64 ?_presentation2stringSerializer@outputStreamSupport@@SAXPAUpresentation_struct@presenter@@PAPB_W@Z 
01:0000BFA4 ?_new@outputStreamSupport@@SAXQAVoutputStreamSupportSite@@@PAUmode_struct@stream@@PAPAV1@@@Z  (Idle)
01:0000BFD0 ?_new_flush@outputStreamSupport@@SAXQAVoutputStreamSupportSite@@@PAUmode_struct@stream@@PAPAV1@@@Z  (Idle)
01:0000BFFC ?_newEx@outputStreamSupport@@SAXQAVoutputStreamSupportSite@@@PAUmode_struct@stream@@XPAPAV1@@@Z  (Idle)
01:0000C02C ?_object_facts_initializer$@outputStreamSupport@@SGXQAV1@@@Z 
01:0000C04C ?allowNullPointers@outputStreamSupport@@SGXQAVstream@@@PAUboolean_struct@_builtIn@@@Z 
01:0000C05C ?allowNullPointers@outputStreamSupport@@SGPAUboolean_struct@_builtIn@@QAVstream@@@@Z 
01:0000C068 ?getBuffer$@outputStreamSupport@@SGPAXQAVoutputBuffer@@@@Z 
01:0000C088 ?getLength$@outputStreamSupport@@SGPBUbyteCount@core@@QAVoutputBuffer@@@@Z 
01:0000C0AC ?getOffset$@outputStreamSupport@@SGPBUbyteCount@core@@QAVoutputBuffer@@@@Z 
01:0000C0D0 ?setOffset$@outputStreamSupport@@SGXQAVoutputBuffer@@@PBUbyteCount@core@@@Z 
01:0000C0F0 ?setCurrentBuffer$@outputStreamSupport@@SGXQAVoutputBuffer@@@PAXPBUbyteCount@core@@@Z 
01:0000C114 ?flushBuffer$@outputStreamSupport@@SGXQAVoutputBuffer@@@@Z 
01:0000C130 ?_class_initializer@outputStreamSupport@@SGXXZ 
--- From 'Obj\binary.248EF86D.obj'
01:0000C148 ?new$@outputStreamSegmentedSupport@@SAXQAV1@@XQAVrTypeLibrary@TypeLibraries@RunTime@VIP@@PAUmode_struct@stream@@QAVsegmentedSupport@@@X@Z 
--- From 'Obj\outputstreamsupport.6F229CFB.obj'
01:0000C198 ?doFlush$@outputStreamSegmentedSupport@@SAXQAVoutputStreamSupportSite@@@@Z 
01:0000C2C8 ?getPosition$@outputStreamSegmentedSupport@@SGPBUfileSize@fileSystem_api@@QAVstream@@@@Z 
01:0000C314 ?setPosition$@outputStreamSegmentedSupport@@SGXQAVstream@@@PBUfileSize@fileSystem_api@@@Z 
01:0000C3E8 ?getBuffer$@outputStreamSegmentedSupport@@SGXQAVoutputStreamSupportSite@@@PAPAXAAUbyteCount@core@@@Z 
01:0000C41C ?_getSegmented$@outputStreamSegmentedSupport@@SAXQAV1@@XPAPAUsegmented_struct@segmented@@PAX@Z 
01:0000C440 ?_size@outputStreamSegmentedSupport@@SAXQAV1@@XPAAAUfileSize@fileSystem_api@@@Z 
01:0000C4B4 ?size32@outputStreamSegmentedSupport@@SGPBUbyteCount@core@@QAV1@@X@Z 
01:0000C4F8 ?_copyToBuffer$@outputStreamSegmentedSupport@@SAXQAV1@@XQAVrTypeLibrary@TypeLibraries@RunTime@VIP@@XPAPAX@Z 
01:0000C550 ?_presenter/0nf$1@outputStreamSegmentedSupport@@SAXPAUpresenter/0nf$1_struct@1/1@PAPAUpresentation_struct@presenter@@@Z 
01:0000C5B4 ?_presenter$@outputStreamSegmentedSupport@@SAXQAV1@@XPAPAUpresentation_struct@presenter@@@Z 
01:0000C680 ?_new@outputStreamSegmentedSupport@@SAXQAVrTypeLibrary@TypeLibraries@RunTime@VIP@@PAUmode_struct@stream@@QAVsegmentedSupport@@@XPAPAV1@@PAX@Z  (Idle)
01:0000C6B4 ?_object_typelib_initializer$@outputStreamSegmentedSupport@@SGXQAV1@@XQAVrTypeLibrary@TypeLibraries@RunTime@VIP@@@Z 
01:0000C6CC ?_object_facts_initializer$@outputStreamSegmentedSupport@@SGXQAV1@@X@Z 
--- From 'Obj\filesystem.5B0F823E.obj'
01:0000C760 outputStreamSupport?_initObject@@@QAGXQAV1@H@Z 
--- From 'Obj\outputstreamsupport.6F229CFB.obj'
01:0000C78C ?@create_object@outputStreamSupport@@SGQAV1@@XZ 
--- From 'Obj\filesystem.5B0F823E.obj'
01:0000C7A8 outputStreamSupport?_InternalFinalizer@@@QAGXQAV1@@Z 
--- From 'Obj\binary.248EF86D.obj'
01:0000C9F4 outputStreamSegmentedSupport{@Segment}?_initObject@@@QAGXQAV1@H@Z 
--- From 'Obj\outputstreamsupport.6F229CFB.obj'
01:0000CA48 ?@create_object@outputStreamSegmentedSupport@@SGQAV1@@XQAVrTypeLibrary@TypeLibraries@RunTime@VIP@@@Z 
--- From 'Obj\binary.248EF86D.obj'
01:0000CA6C outputStreamSegmentedSupport{@Segment}?_InternalFinalizer@@@QAGXQAV1@@Z 
--- From 'Obj\filesystem.5B0F823E.obj'
01:0000CA80 ?raise_endOfStream_explicit@stream_exception@@SAXPAUprogramPoint_struct@core@@@Z 
01:0000CA98 ?raise_notSupportedProperty_explicit@stream_exception@@SAXPAUprogramPoint_struct@core@@@Z 
01:0000CAB0 ?raise_noCRLFconversion_explicit@stream_exception@@SAXPAUprogramPoint_struct@core@@@Z 
01:0000CAC8 ?raise_wrongMode_explicit@stream_exception@@SAXPAUprogramPoint_struct@core@@PB_W@Z 
--- From 'Obj\stream.8B55AAA7.obj'
01:0000CB3C ?raise_noStream_explicit@stream_exception@@SAXPAUprogramPoint_struct@core@@@Z  (Idle)
01:0000CB54 ?_tryGetInputStream$@stdioState@@SAXQAV1@@PAPAVinputStream@@@@Z 
01:0000CB88 ?_tryGetOutputStream$@stdioState@@SAXQAV1@@PAPAVoutputStream@@@@Z 
01:0000CBBC ?_tryGetErrorStream$@stdioState@@SAXQAV1@@PAPAVoutputStream@@@@Z 
01:0000CBF0 ?new$@stdioState@@SAXQAV1@@@Z  (Idle)
01:0000CBF8 ?_new@stdioState@@SAXPAPAV1@@@Z  (Idle)
01:0000CC1C ?_object_facts_initializer$@stdioState@@SGXQAV1@@@Z 
01:0000CC38 ?inputStream@stdioState@@SGXQAV1@@QAV0@@@Z 
01:0000CC48 ?inputStream@stdioState@@SGQAV0@@QAV1@@@Z 
01:0000CC64 ?outputStream@stdioState@@SGXQAV1@@QAV0@@@Z 
01:0000CC74 ?outputStream@stdioState@@SGQAV0@@QAV1@@@Z 
01:0000CC90 ?errorStream@stdioState@@SGXQAV1@@QAVoutputStream@@@@Z 
01:0000CCA0 ?errorStream@stdioState@@SGQAVoutputStream@@@QAV1@@@Z 
01:0000CCBC ?inputStream@stdio@@SGQAV0@@XZ  (Idle)
--- From 'Obj\console.E8EB4F3C.obj'
01:0000CCFC ?inputStream@stdio@@SGXQAV0@@@Z 
--- From 'Obj\stream.8B55AAA7.obj'
01:0000CD3C ?_tryGetInputStream@stdio@@SAXPAPAVinputStream@@@@Z  (Idle)
01:0000CD88 ?outputStream@stdio@@SGQAV0@@XZ  (Idle)
--- From 'Obj\console.E8EB4F3C.obj'
01:0000CDC8 ?outputStream@stdio@@SGXQAV0@@@Z 
--- From 'Obj\exceptiondump.2B9C9E40.obj'
01:0000CE08 ?_tryGetOutputStream@stdio@@SAXPAPAVoutputStream@@@@Z 
--- From 'Obj\stream.8B55AAA7.obj'
01:0000CE54 ?errorStream@stdio@@SGQAVoutputStream@@@XZ  (Idle)
--- From 'Obj\console.E8EB4F3C.obj'
01:0000CE94 ?errorStream@stdio@@SGXQAVoutputStream@@@@Z 
--- From 'Obj\exceptiondump.2B9C9E40.obj'
01:0000CED4 ?_tryGetErrorStream@stdio@@SAXPAPAVoutputStream@@@@Z 
--- From 'Obj\main.789E136F.obj'
01:0000CF20 ?write@stdio@@SAXXZ 
--- From 'Obj\stream.8B55AAA7.obj'
01:0000CF5C ?writef@stdio@@SAXPB_W@Z  (Idle)
01:0000CFA0 ?writeBytes@stdio@@SAXPAXPBUbyteCount@core@@@Z  (Idle)
01:0000CFE4 ?writeQuoted@stdio@@SAXXZ  (Idle)
01:0000D020 ?nl@stdio@@SAXXZ  (Idle)
01:0000D04C ?save@stdio@@SAXPBUfactDB@_builtIn@@@Z  (Idle)
01:0000D088 ?flush@stdio@@SAXXZ  (Idle)
01:0000D0B4 ?present@stdio@@SAXXZ  (Idle)
01:0000D0F0 ?write_error@stdio@@SAXXZ  (Idle)
01:0000D12C ?writef_error@stdio@@SAXPB_W@Z  (Idle)
01:0000D170 ?writeBytes_error@stdio@@SAXPAXPBUbyteCount@core@@@Z  (Idle)
01:0000D1B4 ?writeQuoted_error@stdio@@SAXXZ  (Idle)
01:0000D1F0 ?nl_error@stdio@@SAXXZ  (Idle)
01:0000D21C ?save_error@stdio@@SAXPBUfactDB@_builtIn@@@Z  (Idle)
01:0000D258 ?flush_error@stdio@@SAXXZ  (Idle)
01:0000D284 ?present_error@stdio@@SAXXZ  (Idle)
01:0000D2C0 ?_read@stdio@@SAXQAVrTypeLibrary@TypeLibraries@RunTime@VIP@@PAX@Z  (Idle)
01:0000D304 ?_readChar@stdio@@SAXPA_W@Z  (Idle)
01:0000D340 ?ungetChar@stdio@@SAXXZ  (Idle)
01:0000D36C ?_readLine@stdio@@SAXPAPB_W@Z  (Idle)
01:0000D3A8 ?_readString@stdio@@SAXPBUcharCount@core@@PAPB_W@Z  (Idle)
01:0000D3EC ?_readBytes@stdio@@SAXPBUbyteCount@core@@QAPAE@Z  (Idle)
01:0000D430 ?consult@stdio@@SAXPBUfactDB@_builtIn@@@Z  (Idle)
01:0000D46C ?endOfStream@stdio@@SAXXZ  (Idle)
01:0000D498 ?_getOutputStreamPP_explicit@stdio@@SAXPAUprogramPoint_struct@core@@PAPAVoutputStream@@@@Z 
01:0000D4FC ?_getErrorStreamPP_explicit@stdio@@SAXPAUprogramPoint_struct@core@@PAPAVoutputStream@@@@Z 
01:0000D560 ?_getInputStreamPP_explicit@stdio@@SAXPAUprogramPoint_struct@core@@PAPAVinputStream@@@@Z 
01:0000D5C4 ?__lateFactInit$stdiostate$0$stdio@classDB@1@SAXPAPAVstdioState@@@@Z 
01:0000D5CC ?stdioState@stdio@@SGXQAV0@@@Z  (Idle)
01:0000D5D8 ?stdioState@stdio@@SGQAV0@@XZ  (Idle)
01:0000D610 ?new$@outputStream_null@@SAXQAV1@@@Z  (Idle)
01:0000D618 ?getPosition$@outputStream_null@@SGPBUfileSize@fileSystem_api@@QAVstream@@@@Z 
01:0000D620 ?setPosition$@outputStream_null@@SGXQAVstream@@@PBUfileSize@fileSystem_api@@@Z 
01:0000D630 ?getCRLFconversion$@outputStream_null@@SGPAUboolean_struct@_builtIn@@QAVstream@@@@Z 
01:0000D638 ?setCRLFconversion$@outputStream_null@@SGXQAVstream@@@PAUboolean_struct@_builtIn@@@Z 
01:0000D648 ?close$@outputStream_null@@SGXQAVstream@@@@Z 
01:0000D658 ?setMode$@outputStream_null@@SGXQAVstream@@@PAUmode_struct@2@@Z 
01:0000D668 ?getMode$@outputStream_null@@SGPAUmode_struct@stream@@QAV3@@@Z 
01:0000D670 ?write$@outputStream_null@@SAXQAVoutputStream@@@@Z 
01:0000D678 ?writeQuoted$@outputStream_null@@SAXQAVoutputStream@@@@Z 
01:0000D680 ?writeBytes$@outputStream_null@@SAXQAVoutputStream@@@PAXPBUbyteCount@core@@@Z 
01:0000D688 ?writef$@outputStream_null@@SAXQAVoutputStream@@@PB_W@Z 
01:0000D690 ?nl$@outputStream_null@@SAXQAVoutputStream@@@@Z 
01:0000D698 ?save$@outputStream_null@@SAXQAVoutputStream@@@PBUfactDB@_builtIn@@@Z 
01:0000D6A0 ?flush$@outputStream_null@@SAXQAVoutputStream@@@@Z 
01:0000D6A8 ?allowNullPointers@outputStream_null@@SGPAUboolean_struct@_builtIn@@QAVstream@@@@Z 
01:0000D6B0 ?allowNullPointers@outputStream_null@@SGXQAVstream@@@PAUboolean_struct@_builtIn@@@Z 
01:0000D6C0 ?present$@outputStream_null@@SAXQAVoutputStream@@@@Z 
01:0000D6C8 ?streamFromInputBuffer$@outputStream_null@@SAXQAVoutputStream@@@QAVinputBuffer@@@@Z 
01:0000D6D0 ?_new@outputStream_null@@SAXPAPAVoutputStream@@@@Z  (Idle)
01:0000D6F8 ?__lateFactInit$null$0$outputStream_null@classDB@1@SAXPAPAVoutputStream@@@@Z 
01:0000D6FC ?null@outputStream_0@SGQAVoutputStream@@@XZ  (Idle)
01:0000D734 ?new$@inputStream_null@@SAXQAV1@@@Z  (Idle)
01:0000D73C ?getPosition$@inputStream_null@@SGPBUfileSize@fileSystem_api@@QAVstream@@@@Z 
01:0000D744 ?setPosition$@inputStream_null@@SGXQAVstream@@@PBUfileSize@fileSystem_api@@@Z 
01:0000D754 ?getCRLFconversion$@inputStream_null@@SGPAUboolean_struct@_builtIn@@QAVstream@@@@Z 
01:0000D75C ?setCRLFconversion$@inputStream_null@@SGXQAVstream@@@PAUboolean_struct@_builtIn@@@Z 
01:0000D76C ?close$@inputStream_null@@SGXQAVstream@@@@Z 
01:0000D77C ?setMode$@inputStream_null@@SGXQAVstream@@@PAUmode_struct@2@@Z 
01:0000D78C ?getMode$@inputStream_null@@SGPAUmode_struct@stream@@QAV3@@@Z 
01:0000D794 ?_read$@inputStream_null@@SAXQAVinputStream@@@QAVrTypeLibrary@TypeLibraries@RunTime@VIP@@PAX@Z 
01:0000D7A4 ?_readBytes$@inputStream_null@@SAXQAVinputStream@@@PBUbyteCount@core@@QAPAE@Z 
01:0000D7B4 ?_readString$@inputStream_null@@SAXQAVinputStream@@@PBUcharCount@core@@PAPB_W@Z 
01:0000D7C4 ?_readChar$@inputStream_null@@SAXQAVinputStream@@@PA_W@Z 
01:0000D7D4 ?ungetChar$@inputStream_null@@SAXQAVinputStream@@@@Z 
01:0000D7E4 ?_readLine$@inputStream_null@@SAXQAVinputStream@@@PAPB_W@Z 
01:0000D7F4 ?_readLineCRLF$@inputStream_null@@SAXQAVinputStream@@@PAPB_W@Z 
01:0000D804 ?consult$@inputStream_null@@SAXQAVinputStream@@@PBUfactDB@_builtIn@@@Z 
01:0000D814 ?reconsult$@inputStream_null@@SAXQAVinputStream@@@PBUfactDB@_builtIn@@@Z 
01:0000D824 ?endOfStream$@inputStream_null@@SAXQAVinputStream@@@@Z 
01:0000D82C ?repeatToEndOfStream$@inputStream_null@@SAXQAVinputStream@@@@Z 
01:0000D838 ?exhausted@inputStream_null@@SAXXZ 
01:0000D86C ?allowNullPointers@inputStream_null@@SGPAUboolean_struct@_builtIn@@QAVstream@@@@Z 
01:0000D874 ?allowNullPointers@inputStream_null@@SGXQAVstream@@@PAUboolean_struct@_builtIn@@@Z 
01:0000D884 ?streamTo$@inputStream_null@@SAXQAVinputStream@@@QAVoutputStream@@@@Z 
01:0000D88C ?_new@inputStream_null@@SAXPAPAVinputStream@@@@Z  (Idle)
01:0000D8B4 ?__lateFactInit$null$0$inputStream_null@classDB@1@SAXPAPAVinputStream@@@@Z 
01:0000D8B8 ?null@inputStream_0@SGQAVinputStream@@@XZ  (Idle)
01:0000D958 stdioState?_initObject@@@QAGXQAV1@H@Z 
01:0000D97C ?@create_object@stdioState@@SGQAV1@@XZ 
01:0000D998 stdioState?_InternalFinalizer@@@QAGXQAV1@@Z 
01:0000D9AC outputStream_null?_initObject@@@QAGXQAV1@H@Z 
01:0000D9C0 ?@create_object@outputStream_null@@SGQAV1@@XZ 
01:0000D9DC outputStream_null?_InternalFinalizer@@@QAGXQAV1@@Z 
01:0000D9F0 inputStream_null?_initObject@@@QAGXQAV1@H@Z 
01:0000DA04 ?@create_object@inputStream_null@@SGQAV1@@XZ 
01:0000DA20 inputStream_null?_InternalFinalizer@@@QAGXQAV1@@Z 
--- From 'Obj\exception.B6F320E8.obj'
01:0000DA30 ?format_exceptionHandler_explicit@string_exception@@SAXPAUprogramPoint_struct@core@@PBUtraceId@5@PB_W@Z 
--- From 'Obj\string.19AABD3B.obj'
01:0000DB20 ?raise_emptyString_explicit@string_exception@@SAXPAUprogramPoint_struct@core@@@Z  (Idle)
--- From 'Obj\string8.355639C6.obj'
01:0000DB38 ?raise_outOfBoundaries_explicit@string_exception@@SAXPAUprogramPoint_struct@core@@PBUcharCount@3@1@Z 
--- From 'Obj\filesystem.5B0F823E.obj'
01:0000DC00 ?raise_oddOffset_explicit@string_exception@@SAXPAUprogramPoint_struct@core@@PBUbyteCount@3@@Z 
01:0000DC74 ?_hash@string@@SAXPB_WPAI@Z 
01:0000DC8C ?_create@string@@SAXPBUcharCount@core@@PB_WPAPB_W@Z 
01:0000DCC4 ?_length@string@@SAXPB_WAAUcharCount@core@@@Z 
--- From 'Obj\string.19AABD3B.obj'
01:0000DCDC ?_tryCreate@string@@SAXPBUcharCount@core@@PB_WPAPB_W@Z  (Idle)
--- From 'Obj\filesystem.5B0F823E.obj'
01:0000DD40 ?_createCopy@string@@SAXPB_WPAPB_W@Z 
--- From 'Obj\string.19AABD3B.obj'
01:0000DDC0 ?_copyFromBuffer@string@@SAXPAXPBUbyteCount@core@@PAPB_W@Z 
01:0000DE2C ?hasSuffix@string@@SAXPB_W0PAPB_W@Z  (Idle)
01:0000DE90 ?hasSuffix@string@@SAXPB_W0@Z  (Idle)
--- From 'Obj\filesystem.5B0F823E.obj'
01:0000DEEC ?hasPrefix@string@@SAXPB_W0PAPB_W@Z 
--- From 'Obj\string.19AABD3B.obj'
01:0000DF14 ?_hasPrefixPtr@string@@SAXPAUpChar_struct@memory@@0PAPAU23@@Z 
01:0000DF94 ?hasPrefixIgnoreCase@string@@SAXPB_W0PAPB_W@Z  (Idle)
01:0000DFAC ?hasPrefixIgnoreCase@string@@SAXPB_W0PAPB_WPBUlcId@locale_native@@@Z 
01:0000DFEC ?hasPrefixCaseNeutral@string@@SAXPB_W0PAPB_W@Z  (Idle)
--- From 'Obj\filesystem.5B0F823E.obj'
01:0000E000 ?_concat@string@@SAXPB_W0PAPB_W@Z 
01:0000E070 ?_concat@string@@SAXPB_W00PAPB_W@Z 
--- From 'Obj\string.19AABD3B.obj'
01:0000E10C ?_concat@string@@SAXPB_W000PAPB_W@Z  (Idle)
01:0000E134 ?_concat@string@@SAXPB_W0000PAPB_W@Z  (Idle)
01:0000E154 ?_concat@string@@SAXPB_W00000PAPB_W@Z 
--- From 'Obj\filesystem.5B0F823E.obj'
01:0000E290 ?_concatList@string@@SAXPAU?$__packedList_struct@PB_W@@PAPB_W@Z 
--- From 'Obj\string.19AABD3B.obj'
01:0000E320 ?_concatWithDelimiter@string@@SAXPAU?$__packedList_struct@PB_W@@0PAPB_W@Z  (Idle)
01:0000E400 ?streamWithDelimiter@string@@SAXQAVoutputStream@@@PAU?$__packedList_struct@PB_W@@1@Z  (Idle)
01:0000E4E8 ?concatListWithDelimiter_inner@string@@SAXPAXPAU?$__packedList_struct@PB_W@@PAXPBUbyteCount@core@@PAU?$__packedList_struct@PBUcharCount@3@@@@Z 
01:0000E58C ?_copyDelimiterIfNeeded@string@@SAXPAXPAU?$__packedList_struct@PB_W@@PAXPBUbyteCount@core@@PAPAX@Z 
01:0000E5C0 ?getStringListInfo@string@@SAXPAU?$__packedList_struct@PB_W@@PBUpositive@core@@1AAU23@3PAPAU?$__packedList_struct@AAUcharCount@3@@@@Z 
01:0000E65C ?concatStringList@string@@SAXPAXPAU?$__packedList_struct@PB_W@@PAU?$__packedList_struct@PBUcharCount@core@@@@@Z 
--- From 'Obj\filesystem.5B0F823E.obj'
01:0000E70C ?equalCaseNeutral@string@@SAXPB_W0@Z 
--- From 'Obj\string.19AABD3B.obj'
01:0000E724 ?_compareCaseNeutral@string@@SAXPB_W0PAPAUcompareResult_struct@_builtIn@@@Z  (Idle)
01:0000E740 ?equalIgnoreCase@string@@SAXPB_W0@Z  (Idle)
--- From 'Obj\time.6AFD2988.obj'
01:0000E76C ?equalIgnoreCase@string@@SAXPB_W0PBUlcId@locale_native@@@Z 
--- From 'Obj\string.19AABD3B.obj'
01:0000E79C ?_compareIgnoreCase@string@@SAXPB_W0PAPAUcompareResult_struct@_builtIn@@@Z 
01:0000E7C0 ?_compareIgnoreCase@string@@SAXPB_W0PBUlcId@locale_native@@PAPAUcompareResult_struct@_builtIn@@@Z 
01:0000E7DC ?_compareString@string@@SAXPB_W0PAPAUcompareResult_struct@_builtIn@@@Z  (Idle)
01:0000E800 ?_compareString@string@@SAXPB_W0PBUlcId@locale_native@@PAPAUcompareResult_struct@_builtIn@@@Z 
01:0000E81C ?_compareString@string@@SAXPB_W0PBUlcId@locale_native@@IPAPAUcompareResult_struct@_builtIn@@@Z 
01:0000E9C4 ?_adjustRight@string@@SAXPB_WPBUcharCount@core@@PAPB_W@Z  (Idle)
01:0000E9E4 ?_adjustRight@string@@SAXPB_WPBUcharCount@core@@0PAPB_W@Z 
01:0000EA00 ?_adjustRight@string@@SAXPB_WPBUcharCount@core@@0PAUadjustBehaviour_struct@1@PAPB_W@Z 
01:0000EA70 ?_adjustLeft@string@@SAXPB_WPBUcharCount@core@@PAPB_W@Z  (Idle)
01:0000EA90 ?_adjustLeft@string@@SAXPB_WPBUcharCount@core@@0PAPB_W@Z 
01:0000EAAC ?_adjust@string@@SAXPB_WPBUcharCount@core@@PAUadjustSide_struct@1@PAPB_W@Z  (Idle)
01:0000EAD4 ?_adjust@string@@SAXPB_WPBUcharCount@core@@0PAUadjustSide_struct@1@PAPB_W@Z  (Idle)
01:0000EAFC ?_adjust@string@@SAXPB_WPBUcharCount@core@@0PAUadjustBehaviour_struct@1@PAUadjustSide_struct@1@PAPB_W@Z  (Idle)
01:0000EB24 ?_crop@string@@SAXPB_WPBUcharCount@core@@PAUadjustSide_struct@1@PAUadjustBehaviour_struct@1@PAPB_W@Z 
01:0000EBB4 ?_adjustLeft@string@@SAXPB_WPBUcharCount@core@@0PAUadjustBehaviour_struct@1@PAPB_W@Z 
01:0000EC14 ?_split@string@@SAXPB_W0PAPAU?$__packedList_struct@PAPB_W@@@Z  (Idle)
01:0000ECAC ?trySplitAt@string@@SAXPB_W0PAUcaseSensitivity_struct@1@PAPB_W3@Z  (Idle)
01:0000ED04 ?trySplitAt@string@@SAXPB_W0PAPB_W2@Z  (Idle)
--- From 'Obj\filesystem.5B0F823E.obj'
01:0000ED2C ?format@string@@SAPB_W0@Z 
--- From 'Obj\time.6AFD2988.obj'
01:0000ED8C ?write@string@@SAPB_WXZ 
--- From 'Obj\exceptiondump.2B9C9E40.obj'
01:0000EDA4 ?present@string@@SAPB_WXZ 
--- From 'Obj\string.19AABD3B.obj'
01:0000EDEC ?_rear@string@@SAXPB_WPBUcharCount@core@@PAPB_W@Z  (Idle)
--- From 'Obj\exceptiondump.2B9C9E40.obj'
01:0000EE40 ?_fromPosition@string@@SAXPB_WPBUcharCount@core@@PAPB_W@Z 
--- From 'Obj\string.19AABD3B.obj'
01:0000EE70 ?front_wc@string@@SAXPB_WPBUcharCount@core@@PAPB_W2@Z 
--- From 'Obj\exceptiondump.2B9C9E40.obj'
01:0000EEA4 ?front@string@@SAXPB_WPBUcharCount@core@@PAPB_W2@Z 
--- From 'Obj\filesystem.5B0F823E.obj'
01:0000EEE8 ?tryFront@string@@SAXPB_WPBUcharCount@core@@PAPB_W2@Z 
--- From 'Obj\string.19AABD3B.obj'
01:0000EF24 ?checkPosition@string@@SAXPBUcharCount@core@@PB_W@Z 
--- From 'Obj\filesystem.5B0F823E.obj'
01:0000EF84 ?_frontChar@string@@SAXPB_WPA_W@Z 
--- From 'Obj\string.19AABD3B.obj'
01:0000EF98 ?_tryFrontChar@string@@SAXPB_WPA_W@Z  (Idle)
01:0000EFBC ?frontChar_wc@string@@SAXPB_WPA_WPAPB_W@Z  (Idle)
--- From 'Obj\filesystem.5B0F823E.obj'
01:0000EFDC ?frontChar@string@@SAXPB_WPA_WPAPB_W@Z 
--- From 'Obj\string.19AABD3B.obj'
01:0000EFF4 ?_tryLastChar@string@@SAXPB_WPA_W@Z  (Idle)
--- From 'Obj\filesystem.5B0F823E.obj'
01:0000F028 ?lastChar@string@@SAXPB_WPAPB_WPA_W@Z 
01:0000F078 ?_lastChar@string@@SAXPB_WPA_W@Z 
--- From 'Obj\string.19AABD3B.obj'
01:0000F0B4 ?_truncate@string@@SAXPB_WPBUcharCount@core@@PAPB_W@Z  (Idle)
01:0000F0F4 ?_toCharList@string@@SAXPB_WPAPAU?$__packedList_struct@PA_W@@@Z  (Idle)
--- From 'Obj\exceptiondump.2B9C9E40.obj'
01:0000F15C ?frontToken@string@@SAXPB_WPAPB_W1@Z 
--- From 'Obj\memory_api.EF10D306.obj'
01:0000F17C ?isValidToRead@string@@SAXPB_W@Z 
--- From 'Obj\string.19AABD3B.obj'
01:0000F194 ?isValidToRead@string@@SAXPB_WPBUcharCount@core@@@Z 
01:0000F1B4 ?_replaceFirst@string@@SAXPB_W00PAPB_W@Z  (Idle)
01:0000F1D0 ?_replaceFirst@string@@SAXPB_W00PAUcaseSensitivity_struct@1@PAPB_W@Z 
--- From 'Obj\filesystem.5B0F823E.obj'
01:0000F204 ?_replaceAll@string@@SAXPB_W00PAPB_W@Z 
--- From 'Obj\string.19AABD3B.obj'
01:0000F220 ?_replaceAll@string@@SAXPB_W00PAUcaseSensitivity_struct@1@PAPB_W@Z 
01:0000F254 ?_replaceAll@string@@SAXPB_W00PAUcaseSensitivity_struct@1@PAIPAPB_W@Z  (Idle)
01:0000F28C ?_caseToInteger@string@@SAXPAUcaseSensitivity_struct@1@PAH@Z 
--- From 'Obj\time.6AFD2988.obj'
01:0000F2BC ?_replacePart@string@@SAXPB_WPBUcharCount@core@@10PAPB_W@Z 
--- From 'Obj\string.19AABD3B.obj'
01:0000F37C ?_tryReplacePart@string@@SAXPB_WPBUcharCount@core@@10PAPB_W@Z  (Idle)
01:0000F434 ?_search@string@@SAXPB_W0AAUcharCount@core@@@Z  (Idle)
--- From 'Obj\exceptiondump.2B9C9E40.obj'
01:0000F470 ?_search@string@@SAXPB_W0PAUcaseSensitivity_struct@1@AAUcharCount@core@@@Z 
--- From 'Obj\string.19AABD3B.obj'
01:0000F508 ?_searchLast@string@@SAXPB_W0AAUcharCount@core@@@Z  (Idle)
01:0000F554 ?_searchLast@string@@SAXPB_W0PAUcaseSensitivity_struct@1@AAUcharCount@core@@@Z  (Idle)
--- From 'Obj\registry_api.CF388C66.obj'
01:0000F5EC ?_subString@string@@SAXPB_WPBUcharCount@core@@1PAPB_W@Z 
--- From 'Obj\string.19AABD3B.obj'
01:0000F638 ?_trySubString@string@@SAXPB_WPBUcharCount@core@@1PAPB_W@Z  (Idle)
01:0000F67C ?_toUpperCase@string@@SAXPB_WPAPB_W@Z 
--- From 'Obj\filesystem.5B0F823E.obj'
01:0000F6A0 ?_toLowerCase@string@@SAXPB_WPAPB_W@Z 
--- From 'Obj\string.19AABD3B.obj'
01:0000F6C4 ?isUpperCase@string@@SAXPB_W@Z  (Idle)
01:0000F6F8 ?isLowerCase@string@@SAXPB_W@Z  (Idle)
--- From 'Obj\time.6AFD2988.obj'
01:0000F72C ?hasDecimalDigits@string@@SAXPB_W@Z 
--- From 'Obj\string.19AABD3B.obj'
01:0000F748 ?isDecimalDigits@string@@SAXPB_W@Z 
01:0000F794 ?decimalDigit@string@@SAX_W@Z 
01:0000F7B8 ?hasAlpha@string@@SAXPB_W@Z  (Idle)
01:0000F7E0 ?isWhiteSpace@string@@SAXPB_W@Z  (Idle)
--- From 'Obj\time.6AFD2988.obj'
01:0000F7E8 ?_split_delimiter@string@@SAXPB_W0PAPAU?$__packedList_struct@PAPB_W@@@Z 
--- From 'Obj\string.19AABD3B.obj'
01:0000F814 ?_splitByString@string@@SAXPB_W0PBUcharCount@core@@PAPAU?$__packedList_struct@PAPB_W@@@Z 
01:0000F8B8 ?_split_length@string@@SAXPB_WPAU?$__packedList_struct@PBUcharCount@core@@@@PAPAU?$__packedList_struct@PAPB_W@@@Z  (Idle)
--- From 'Obj\filesystem.5B0F823E.obj'
01:0000F94C ?_trim@string@@SAXPB_WPAPB_W@Z 
--- From 'Obj\string.19AABD3B.obj'
01:0000F970 ?_charToString@string@@SAX_WPAPB_W@Z  (Idle)
01:0000F99C ?_charUpper@string@@SAX_WPA_W@Z  (Idle)
01:0000F9B8 ?_charLower@string@@SAX_WPA_W@Z  (Idle)
01:0000F9D4 ?splitStringBySeparators@string@@SAXPB_W0PAPB_WPA_W2@Z 
01:0000FA34 ?_getMinPosition@string@@SAXPB_W0PBUcharCount@core@@AAU23@@Z 
01:0000FAA0 ?isName@string@@SAXPB_W@Z  (Idle)
01:0000FAF0 ?isLegalFrontCharOfName@string@@SAX_W@Z 
01:0000FB1C ?isCorrectRemainderOfName@string@@SAXPB_W@Z 
01:0000FB68 ?isCorrectRemainderCharOfName@string@@SAX_W@Z 
01:0000FBB0 ?isClassIdentifier@string@@SAXPB_W0@Z  (Idle)
01:0000FC1C ?isObjectIdentifier@string@@SAXPB_W0@Z  (Idle)
01:0000FC98 ?isCorrectMemberName@string@@SAXPB_W@Z 
01:0000FD2C ?keywordString@string@@SAXPB_WPAPAUboolean_struct@_builtIn@@@Z 
01:000105D8 ?isCorrectClassFrontChar@string@@SAX_W@Z 
--- From 'Obj\filesystem.5B0F823E.obj'
01:0001060C ?_searchChar@string@@SAXPB_W_WAAUcharCount@core@@@Z 
01:00010630 ?_searchChar@string@@SAXPB_W_WPAUcaseSensitivity_struct@1@AAUcharCount@core@@@Z 
01:000106B8 ?_subChar@string@@SAXPB_WPBUcharCount@core@@PA_W@Z 
--- From 'Obj\string.19AABD3B.obj'
01:000106F0 ?_trySubchar@string@@SAXPB_WPBUcharCount@core@@PA_W@Z  (Idle)
01:00010724 ?_getCharValue@string@@SAX_WAAUunsigned16@core@@@Z  (Idle)
--- From 'Obj\string8.355639C6.obj'
01:00010738 ?_getCharFromValue@string@@SAXPBUunsigned16@core@@PA_W@Z 
--- From 'Obj\string.19AABD3B.obj'
01:0001074C ?listToArray@string@@SAXPAU?$__packedList_struct@PB_W@@PAPAXPAI@Z  (Idle)
01:000107A8 ?_arrayToList@string@@SAXPAXIPAPAU?$__packedList_struct@PAPB_W@@@Z  (Idle)
01:000107B4 ?fillArray@string@@SAXPAXPAU?$__packedList_struct@PB_W@@@Z 
01:00010818 ?_fillList@string@@SAXPBUunsignedNative@_builtIn@@IPAPAU?$__packedList_struct@PAPB_W@@@Z 
01:00010878 ?_createFromCharList@string@@SAXPAU?$__packedList_struct@_W@@PAPB_W@Z  (Idle)
01:000108C0 ?fillString@string@@SAXPAXPAU?$__packedList_struct@_W@@@Z 
01:00010918 isWhiteSpace_C 
01:00010934 isWhiteSpace_S 
01:0001097C ?getMetricPrefix@string@@SAXPANPAPANPAPB_W@Z  (Idle)
01:00010A90 ?_toMetricPrefixForm@string@@SAXPBUpositive@core@@PANPAPB_W@Z  (Idle)
01:00010B44 ?getBinaryPrefix@string@@SAXPANPAPANPAPB_W@Z  (Idle)
01:00010C54 ?_toBinaryPrefixForm@string@@SAXPBUpositive@core@@PANPAPB_W@Z  (Idle)
01:00010D08 ?_subChar_wc@string@@SAXPB_WPBUcharCount@core@@PA_W@Z  (Idle)
01:00010D2C ?_checkSlashes@string@@SAXPB_WPBUcharCount@core@@PAPAUboolean_struct@_builtIn@@@Z  (Idle)
01:00010D98 ?_trySearchEscape@string@@SAXPB_WAAUcharCount@core@@@Z  (Idle)
01:00010E1C ?_getWrapLines@string@@SAXPB_WPBUcharCount@core@@101PAUboolean_struct@_builtIn@@PAPAU?$__packedList_struct@PAPB_W@@@Z  (Idle)
01:00011248 ?_wrapString@string@@SAXPB_WPBUcharCount@core@@10PAPAU?$__packedList_struct@PAPB_W@@@Z  (Idle)
01:00011268 ?isWhiteSpace@string@@SAX_W@Z  (Idle)
01:00011270 ?keywordString@string@@SAXPB_WPAUboolean_struct@_builtIn@@@Z  (Idle)
01:00011BF8 ?keywordString@string@@SAXPAPB_WPAPAUboolean_struct@_builtIn@@@Z  (Idle)
01:00012330 ?new$@outputStream_string@@SAXQAV1@@@Z  (Idle)
01:00012364 ?setMode$@outputStream_string@@SGXQAVstream@@@PAUmode_struct@2@@Z 
01:0001239C ?_getInputStream$@outputStream_string@@SAXQAVoutputStreamSegmented@@@XPAPAVinputStream@@@@Z 
01:000123C4 ?_getSegmented_utf16$@outputStream_string@@SAXQAV1@@PAPAUsegmented_utf16_struct@segmented@@@Z 
01:000123F0 ?length@outputStream_string@@SGPBUcharCount@core@@QAV1@@@Z 
01:00012434 ?_getString$@outputStream_string@@SAXQAV1@@PAPB_W@Z 
--- From 'Obj\exception.B6F320E8.obj'
01:0001245C ?_getString@outputStream_string@@SAXPA$?predicate$1@core@@SAXQAVoutputStream@@@@Z$PAPB_W@Z 
--- From 'Obj\string.19AABD3B.obj'
01:00012484 ?getstring/2nf$1@outputStream_string@@SAXPAUgetstring/2nf$1_struct@1@QAVoutputStream@@@@Z 
--- From 'Obj\exceptiondump.2B9C9E40.obj'
01:000124CC ?_getString@outputStream_string@@SAXQAVrTypeLibrary@TypeLibraries@RunTime@VIP@@PA$?predicate$2@core@@SAXQAVoutputStream@@@X@Z$XPAPB_W@Z 
--- From 'Obj\string.19AABD3B.obj'
01:00012520 ?getstring/3nf$1@outputStream_string@@SAXPAUgetstring/3nf$1_struct@1@QAVoutputStream@@@@Z 
01:00012584 ?_getString@outputStream_string@@SAXQAVrTypeLibrary@TypeLibraries@RunTime@VIP@@0PA$?predicate$3@core@@SAXQAVoutputStream@@@XX@Z$XXPAPB_W@Z  (Idle)
01:000125E4 ?getstring/4nf$1@outputStream_string@@SAXPAUgetstring/4nf$1_struct@1@QAVoutputStream@@@@Z 
01:00012660 ?_getString@outputStream_string@@SAXQAVrTypeLibrary@TypeLibraries@RunTime@VIP@@00PA$?predicate$4@core@@SAXQAVoutputStream@@@XXX@Z$XXXPAPB_W@Z  (Idle)
01:000126CC ?getstring/5nf$1@outputStream_string@@SAXPAUgetstring/5nf$1_struct@1@QAVoutputStream@@@@Z 
01:00012768 ?_getString@outputStream_string@@SAXQAVrTypeLibrary@TypeLibraries@RunTime@VIP@@000PA$?predicate$5@core@@SAXQAVoutputStream@@@XXXX@Z$XXXXPAPB_W@Z  (Idle)
01:000127E0 ?_getStringAllowNull@outputStream_string@@SAXPA$?predicate$1@core@@SAXQAVoutputStream@@@@Z$PAPB_W@Z  (Idle)
01:00012808 ?getstringallownull/2nf$1@outputStream_string@@SAXPAUgetstringallownull/2nf$1_struct@1@QAVoutputStream@@@@Z 
01:00012850 ?_getStringAllowNull@outputStream_string@@SAXQAVrTypeLibrary@TypeLibraries@RunTime@VIP@@PA$?predicate$2@core@@SAXQAVoutputStream@@@X@Z$XPAPB_W@Z  (Idle)
01:000128A4 ?getstringallownull/3nf$1@outputStream_string@@SAXPAUgetstringallownull/3nf$1_struct@1@QAVoutputStream@@@@Z 
01:00012908 ?_getStringAllowNull@outputStream_string@@SAXQAVrTypeLibrary@TypeLibraries@RunTime@VIP@@0PA$?predicate$3@core@@SAXQAVoutputStream@@@XX@Z$XXPAPB_W@Z 
01:00012968 ?getstringallownull/4nf$1@outputStream_string@@SAXPAUgetstringallownull/4nf$1_struct@1@QAVoutputStream@@@@Z 
01:000129E4 ?_getStringAllowNull@outputStream_string@@SAXQAVrTypeLibrary@TypeLibraries@RunTime@VIP@@00PA$?predicate$4@core@@SAXQAVoutputStream@@@XXX@Z$XXXPAPB_W@Z  (Idle)
01:00012A50 ?getstringallownull/5nf$1@outputStream_string@@SAXPAUgetstringallownull/5nf$1_struct@1@QAVoutputStream@@@@Z 
01:00012AEC ?_getStringAllowNull@outputStream_string@@SAXQAVrTypeLibrary@TypeLibraries@RunTime@VIP@@000PA$?predicate$5@core@@SAXQAVoutputStream@@@XXXX@Z$XXXXPAPB_W@Z  (Idle)
01:00012B64 ?_getString2@outputStream_string@@SAXPAUboolean_struct@_builtIn@@PA$?predicate$1@core@@SAXQAVoutputStream@@@@Z$PAPB_W@Z 
01:00012C44 ?_getStringLength$@outputStream_string@@SAXQAV1@@AAUcharCount@core@@@Z 
--- From 'Obj\filesystem.5B0F823E.obj'
01:00012C5C ?_new@outputStream_string@@SAXPAPAV1@@@Z 
--- From 'Obj\string.19AABD3B.obj'
01:00012C84 ?new$@inputStream_string@@SAXQAV1@@PB_W@Z  (Idle)
01:00012CAC ?new_segmented$@inputStream_string@@SAXQAV1@@PAUsegmented_utf16_struct@segmented@@@Z 
01:00012D1C ?setMode$@inputStream_string@@SGXQAVstream@@@PAUmode_struct@2@@Z 
01:00012D54 ?close$@inputStream_string@@SGXQAVstream@@@@Z 
01:00012D64 ?getPosition$@inputStream_string@@SGPBUfileSize@fileSystem_api@@QAVstream@@@@Z 
01:00012DB8 ?setPosition$@inputStream_string@@SGXQAVstream@@@PBUfileSize@fileSystem_api@@@Z 
01:00012E7C ?getBuffer$@inputStream_string@@SGXQAVbufferSupport@@@PAPAXAAUbyteCount@core@@@Z 
01:00012E98 ?getBufferLocked$@inputStream_string@@SGXQAVbufferSupport@@@PAPAXAAUbyteCount@core@@@Z 
01:00012F30 ?getCRLFconversion$@inputStream_string@@SGPAUboolean_struct@_builtIn@@QAVstream@@@@Z 
01:00012F38 ?setCRLFconversion$@inputStream_string@@SGXQAVstream@@@PAUboolean_struct@_builtIn@@@Z 
01:00012F60 ?_new@inputStream_string@@SAXPB_WPAPAVinputStream@@@@Z  (Idle)
--- From 'Obj\filesystem.5B0F823E.obj'
01:00012F88 ?_new_segmented@inputStream_string@@SAXPAUsegmented_utf16_struct@3@PAPAVinputStream@@@@Z 
--- From 'Obj\string.19AABD3B.obj'
01:00012FB0 ?_object_facts_initializer$@inputStream_string@@SGXQAV1@@@Z 
01:0001343C outputStream_string?_initObject@@@QAGXQAV1@H@Z 
01:0001346C ?@create_object@outputStream_string@@SGQAV1@@XZ 
01:00013488 outputStream_string?_InternalFinalizer@@@QAGXQAV1@@Z 
01:00013734 inputStream_string?_initObject@@@QAGXQAV1@H@Z 
01:0001376C ?@create_object@inputStream_string@@SGQAV1@@XZ 
01:00013788 inputStream_string?_InternalFinalizer@@@QAGXQAV1@@Z 
--- From 'Obj\string8.355639C6.obj'
01:000137A0 ?isValidCodePage@string8@@SAXPBUcodePage@core@@@Z  (Idle)
01:000137BC ?isValidToRead@string8@@SAXPAD@Z  (Idle)
01:000137D4 ?isValidToRead@string8@@SAXPADPBUbyteCount@core@@@Z 
01:000137F4 ?_fromUtf8@string8@@SAXPADPAPB_W@Z  (Idle)
01:00013810 ?_fromUtf8@string8@@SAXPADPBUbyteCountOptional@core@@PAPB_W@Z  (Idle)
01:00013838 ?_toUtf8@string8@@SAXPB_WPAPAD@Z  (Idle)
01:00013858 ?_toUtf8@string8@@SAXPB_WAAUbyteCount@core@@PAPAD@Z 
--- From 'Obj\multithread_api.57E3A62D.obj'
01:00013880 ?_mapFromString@string8@@SAXPB_WPAPAD@Z 
--- From 'Obj\string8.355639C6.obj'
01:0001389C ?_mapFromString@string8@@SAXPB_WPBUcodePage@core@@PAPAD@Z 
01:000138C0 ?_mapFromString@string8@@SAXPB_WPBUcodePage@core@@AAUbyteCount@3@PAPAD@Z 
01:000138E8 ?_toUtf8_buffer@string8@@SAXPAXPBUcharCount@core@@AAUbyteCount@3@PAPAD@Z  (Idle)
01:00013924 ?_mapFromString@string8@@SAXPB_WPBUcodePage@core@@PBUcharCountOptional@3@AAUbyteCount@3@PAPAD@Z 
01:000139EC ?_mapToString@string8@@SAXPADPAPB_W@Z  (Idle)
--- From 'Obj\binary.248EF86D.obj'
01:00013A08 ?_mapToString@string8@@SAXPADPBUcodePage@core@@PAPB_W@Z 
--- From 'Obj\string8.355639C6.obj'
01:00013A24 ?_mapToString@string8@@SAXPADPBUcodePage@core@@PBUbyteCountOptional@3@PAPB_W@Z 
01:00013B10 ?_mapFromChar@string8@@SAX_WAAUchar8@core@@@Z  (Idle)
01:00013B2C ?_mapFromChar@string8@@SAX_WPBUcodePage@core@@AAUchar8@3@@Z 
01:00013BA4 ?_mapToChar@string8@@SAXPBUchar8@core@@PA_W@Z  (Idle)
01:00013BC0 ?_mapToChar@string8@@SAXPBUchar8@core@@PBUcodePage@3@PA_W@Z 
01:00013C3C ?_concat@string8@@SAXPADPADPAPAD@Z  (Idle)
01:00013CD0 ?_fromPosition@string8@@SAXPADPBUbyteCount@core@@PAPAD@Z  (Idle)
01:00013D0C ?checkPosition@string8@@SAXPBUbyteCount@core@@PAD@Z 
--- From 'Obj\memory_api.EF10D306.obj'
01:00013D3C ?_createCopy@string8@@SAXPADPAPAD@Z 
--- From 'Obj\string8.355639C6.obj'
01:00013D9C ?_createCopy@string8@@SAXPADPBUbyteCount@core@@PAPAD@Z 
01:00013DDC ?_copyFromBuffer@string8@@SAXPAXPBUbyteCount@core@@PAPAD@Z  (Idle)
01:00013E54 ?_tryLength@string8@@SAXPADAAUbyteCount@core@@@Z 
01:00013E9C ?_tryFrontChar@string8@@SAXPADPAPADPA_W@Z  (Idle)
01:00013EB8 ?_tryFrontChar@string8@@SAXPADPAPADPBUcodePage@core@@PA_W@Z 
01:00013F8C ?_tryFrontChar_utf8@string8@@SAXPADPAPADPA_W@Z 
01:00013FE8 ?_tryFrontChar_utf82@string8@@SAXPBUchar8@core@@PADPAPADPAI@Z 
01:000142C8 ?_tryGetIntermediateUtf8@string8@@SAXIPADPAPADPAI@Z 
01:00014370 ?_tryGetFirstByte@string8@@SAXPADPAPADAAUchar8@core@@@Z 
--- From 'Obj\time.6AFD2988.obj'
01:000143A0 ?new_UTC$@timeFormatter@@SAXQAV1@@@Z  (Idle)
01:000143CC ?new_UTC$@timeFormatter@@SAXQAV1@@PBUlcId@locale_native@@@Z  (Idle)
01:00014404 ?new$@timeFormatter@@SAXQAV1@@PAUtimeZoneAPI_struct@time_native@@@Z 
01:00014428 ?new$@timeFormatter@@SAXQAV1@@PAUtimeZoneAPI_struct@time_native@@PBUlcId@locale_native@@@Z 
01:00014440 ?_getDefaultLCID@timeFormatter@@SAXPAI@Z 
01:0001447C ?getDateAndTime$@timeFormatter@@SAXQAV1@@QAVgmtTime@@@PAHPAHPAHPAHPAH@Z 
01:000144AC ?getDateWeekAndTime$@timeFormatter@@SAXQAV1@@QAVgmtTime@@@PAHPAHPAHPAHPAHPAH@Z 
01:0001452C ?getDateAndTime$@timeFormatter@@SAXQAV1@@QAVgmtTime@@@PAHPAHPAHPAHPAHPAH@Z 
01:0001456C ?getDateAndTimeDetailed$@timeFormatter@@SAXQAV1@@QAVgmtTime@@@PAHPAHPAHPAHPAHPAPAN@Z 
01:0001460C ?setDateAndTime$@timeFormatter@@SAXQAV1@@QAVgmtTime@@@HHHHH@Z 
01:00014624 ?setDateAndTime$@timeFormatter@@SAXQAV1@@QAVgmtTime@@@HHHHHH@Z 
01:00014678 ?setDateAndTimeDetailed$@timeFormatter@@SAXQAV1@@QAVgmtTime@@@HHHHHPAN@Z 
01:000146AC ?getTime$@timeFormatter@@SAXQAV1@@QAVgmtTime@@@PAHPAHPAH@Z 
01:000146E0 ?setTime$@timeFormatter@@SAXQAV1@@QAVgmtTime@@@HHH@Z 
01:00014750 ?_getTime$@timeFormatter@@SAXQAV1@@QAVgmtTime@@@PAAAUlocalTimeValue@core@@@Z 
01:00014758 ?setTime$@timeFormatter@@SAXQAV1@@QAVgmtTime@@@PAPBUlocalTimeValue@core@@@Z 
01:00014760 ?getTimeDetailed$@timeFormatter@@SAXQAV1@@QAVgmtTime@@@PAHPAHPAPAN@Z 
01:00014794 ?setTimeDetailed$@timeFormatter@@SAXQAV1@@QAVgmtTime@@@HHPAN@Z 
01:00014804 ?getDate$@timeFormatter@@SAXQAV1@@QAVgmtTime@@@PAHPAHPAH@Z 
01:00014838 ?setDate$@timeFormatter@@SAXQAV1@@QAVgmtTime@@@HHH@Z 
01:000148EC ?isDaylightTime$@timeFormatter@@SAXQAV1@@QAVgmtTime@@@@Z 
01:00014920 ?isLeapYear$@timeFormatter@@SAXQAV1@@QAVgmtTime@@@@Z 
01:00014954 ?_getLocalTime$@timeFormatter@@SAXQAV1@@QAVgmtTime@@@PAAAUlocalTimeValue@core@@@Z 
01:00014994 ?_getLocalTimeAsStruct$@timeFormatter@@SAXQAV1@@QAVgmtTime@@@PAPAUsystemTime_struct@time_native@@@Z  (Idle)
01:000149C0 ?setLocalTime$@timeFormatter@@SAXQAV1@@QAVgmtTime@@@PAPBUlocalTimeValue@core@@@Z 
01:000149F8 ?getMonthByDayOfYear@timeFormatter@@SAXIHIPAHPAI@Z  (Idle)
01:00014A7C ?weekRule$@timeFormatter@@SGPAUweekRule_struct@1@QAV1@@@Z 
01:00014AD4 ?getWeek$@timeFormatter@@SAXQAV1@@QAVgmtTime@@@PAHPAHPAH@Z 
01:00014B18 ?getWeek_rule$@timeFormatter@@SAXQAV1@@PAUweekRule_struct@1@QAVgmtTime@@@PAHPAHPAH@Z 
01:00014B90 ?getWeek_firstDay$@timeFormatter@@SAXQAV1@@QAVgmtTime@@@PAHPAHPAH@Z 
01:00014CF4 ?getWeek_firstFullWeek$@timeFormatter@@SAXQAV1@@QAVgmtTime@@@PAHPAHPAH@Z 
01:00014E8C ?getWeek_iso8601$@timeFormatter@@SAXQAV1@@QAVgmtTime@@@PAHPAHPAH@Z 
01:00015060 ?_localeWeekday$@timeFormatter@@SAXQAV1@@HPAH@Z 
01:000150C8 ?_daysBeforeFirstWeek$@timeFormatter@@SAXQAV1@@HPAH@Z 
01:00015164 ?daysBeforeFirstWeek_use1JanWeek@timeFormatter@@SAXPAUweekRule_struct@1@H@Z 
01:0001518C ?setWeek$@timeFormatter@@SAXQAV1@@QAVgmtTime@@@HHH@Z 
01:00015258 ?_toSimpleString$@timeFormatter@@SAXQAV1@@QAVgmtTime@@@PAPB_W@Z 
01:000152A8 ?setFromSimpleString$@timeFormatter@@SAXQAV1@@QAVgmtTime@@@PB_W@Z 
01:0001541C ?_formatDateTime$@timeFormatter@@SAXQAV1@@QAVgmtTime@@@PB_W2PAPB_W@Z 
01:00015470 ?_formatLongDate$@timeFormatter@@SAXQAV1@@QAVgmtTime@@@PAPB_W@Z 
01:000154C0 ?_formatShortDate$@timeFormatter@@SAXQAV1@@QAVgmtTime@@@PAPB_W@Z 
01:00015510 ?_formatDate$@timeFormatter@@SAXQAV1@@QAVgmtTime@@@PB_WPAPB_W@Z 
01:00015560 ?_formatTime$@timeFormatter@@SAXQAV1@@QAVgmtTime@@@PAPB_W@Z 
01:000155AC ?_formatTime$@timeFormatter@@SAXQAV1@@QAVgmtTime@@@PB_WPAPB_W@Z 
01:00015610 ?_addFractionsIfPresent@timeFormatter@@SAXPB_WPAUsystemTime_struct@time_native@@PAPB_W@Z 
01:00015674 ?replaceFractionsInStringList@timeFormatter@@SAXQAVoutputStream_string@@@PAU?$__packedList_struct@PB_W@@PBUunsigned16@core@@@Z 
01:00015720 ?performReplacements@timeFormatter@@SAXQAVoutputStream_string@@@PB_W1PBUunsigned16@core@@@Z 
01:00015884 ?setFromString$@timeFormatter@@SAXQAV1@@QAVgmtTime@@@PB_W@Z 
01:000159B8 ?wrongStringException@timeFormatter@@SAXPBUtraceId@exception@@@Z 
01:00015A18 ?setFromString$@timeFormatter@@SAXQAV1@@QAVgmtTime@@@PB_W2@Z 
01:00015E44 ?getCommentPositionList@timeFormatter@@SAXPB_WHPAPAU?$__packedList_struct@PAPAUdateTimePos_struct@1@@@PAPB_W@Z 
01:00016050 ?_getNextQuote@timeFormatter@@SAXPB_WPAI@Z 
01:000160C8 ?_checkDoubleQuote@timeFormatter@@SAXPBUcharCount@core@@HPAI@Z 
01:000160EC ?_addTemplatePosition@timeFormatter@@SAXPB_WPAU?$__packedList_struct@0@@PAUdateTime_struct@1@PAU?$__packedList_struct@PAUdateTimePos_struct@1@@@PAPAU?$__packedList_struct@PAPAU41@@@@Z 
01:000161A4 ?_addDayTemplatePosition@timeFormatter@@SAXPB_WPAU?$__packedList_struct@PAUdateTimePos_struct@1@@@PAPAU?$__packedList_struct@PAPAU21@@@@Z 
01:00016290 ?_getOrderedList@timeFormatter@@SAXPAU?$__packedList_struct@PAUdateTimePos_struct@1@@@PAPAU?$__packedList_struct@PAPAU21@@@@Z 
01:0001633C ?_getOrderedListEx@timeFormatter@@SAXPAU?$__packedList_struct@PAUdateTimePos_struct@1@@@PAU21@0PAPAU?$__packedList_struct@PAPAU21@@@@Z 
01:000163E8 ?tryGetValues$@timeFormatter@@SAXQAV1@@PAU?$__packedList_struct@PAUdateTimePos_struct@1@@@PB_WIHHHHHHHPAN2PAUtimeDesignator_struct@1@PAHPAHPAHPAHPAHPAHPAPANPAPB_WPAPAU51@@Z 
01:00016514 ?tryGetValueForListItem$@timeFormatter@@SAXQAV1@@PAUdateTime_struct@1@PAUtemplateAndPosition_struct@1@PB_WIHHHHHHHPAN3PAUtimeDesignator_struct@1@PAHPAHPAHPAHPAHPAHPAHPAPANPAPB_WPAPAU71@@Z 
01:000168B8 ?checkComment@timeFormatter@@SAXPAUtemplateAndPosition_struct@1@PB_WIH@Z 
01:00016980 ?_tryGetYearValue@timeFormatter@@SAXPAUtemplateAndPosition_struct@1@PB_WIHPAH@Z 
01:000169E0 ?_handlingCentury@timeFormatter@@SAXPBUcharCount@core@@HPAH@Z 
01:00016A0C ?_tryGetFractionValue@timeFormatter@@SAXPAUtemplateAndPosition_struct@1@PB_WIHPAPAN@Z 
01:00016AEC ?tryGetValueFromTemplate@timeFormatter@@SAXPAUtemplateAndPosition_struct@1@PB_WIHPAHPAH@Z 
01:00016B7C ?tryGetValueForOneCharTemplate@timeFormatter@@SAXPB_WIPBUcharCount@core@@HPAHPAH@Z 
01:00016C30 ?_tryGetValue@timeFormatter@@SAXPB_WIPBUcharCount@core@@H2PAH@Z 
01:00016CE0 ?tryGetMonthValue$@timeFormatter@@SAXQAV1@@PAUtemplateAndPosition_struct@1@PB_WIHPAHPAH@Z 
01:00016E0C ?tryGetMonthFromString$@timeFormatter@@SAXQAV1@@IPB_WIPBUcharCount@core@@PAHPAI@Z 
01:00016F1C ?tryGetDayValue$@timeFormatter@@SAXQAV1@@PAUtemplateAndPosition_struct@1@PB_WIHHPAHPAH@Z 
01:000170AC ?_tryGetDayNameLength$@timeFormatter@@SAXQAV1@@PBUlcType@locale_native@@PB_WIPBUcharCount@core@@PAI@Z 
01:00017150 ?tryGetTimeMarkerValue$@timeFormatter@@SAXQAV1@@PAUtemplateAndPosition_struct@1@PB_WIHPAPAUtimeDesignator_struct@1@PAH@Z 
01:00017208 ?tryGetTimeMarker$@timeFormatter@@SAXQAV1@@PB_WIPBUcharCount@core@@HPAPAUtimeDesignator_struct@1@PAI@Z 
01:000172B8 ?_checkTimeMarker$@timeFormatter@@SAXQAV1@@PB_WI1PBUcharCount@core@@HPAI@Z 
01:00017364 ?_convertTo24FormatIfNeeded@timeFormatter@@SAXIPB_WPAUtimeDesignator_struct@1@PAI@Z 
01:000173EC ?_pm_am@timeFormatter@@SAXIPAUtimeDesignator_struct@1@PAI@Z 
01:0001744C ?_getAvailableTimeZones@timeFormatter@@SAXPAPAU?$__packedList_struct@PAPAUtimeZoneAPI_struct@time_native@@@@@Z  (Idle)
01:000174D0 ?_getTimeZoneInformation@timeFormatter@@SAXPAPAUtimeZoneAPI_struct@time_native@@@Z  (Idle)
01:000174D8 ?_getTimeZoneInformation@timeFormatter@@SAXPB_WPAPAUtimeZoneAPI_struct@time_native@@@Z 
01:000174E0 ?_gmtTimeToLocalTime$@timeFormatter@@SAXQAV1@@PAPBUgmtTimeValue@core@@PAAAUlocalTimeValue@4@@Z 
01:0001750C ?_localTimeToGmtTime$@timeFormatter@@SAXQAV1@@PAPBUlocalTimeValue@core@@PAAAUgmtTimeValue@4@@Z 
01:00017538 ?_getTimeZoneOffset$@timeFormatter@@SAXQAV1@@PAPBUgmtTimeValue@core@@PAH@Z 
01:00017564 ?_newFromLocalTime$@timeFormatter@@SAXQAV1@@PAPBUlocalTimeValue@core@@PAPAVtime@@@@Z 
01:000175A4 ?_new_UTC@timeFormatter@@SAXPAPAV1@@@Z  (Idle)
01:000175CC ?_new_UTC@timeFormatter@@SAXPBUlcId@locale_native@@PAPAV1@@@Z  (Idle)
01:000175F4 ?_new@timeFormatter@@SAXPAUtimeZoneAPI_struct@time_native@@PAPAV1@@@Z  (Idle)
01:0001761C ?_new@timeFormatter@@SAXPAUtimeZoneAPI_struct@time_native@@PBUlcId@locale_native@@PAPAV1@@@Z  (Idle)
01:00017648 ?__lateFactInit$defaultformatter$0$timeFormatter@classDB@1@SAXPAPAV1@@@Z 
01:00017678 ?defaultFormatter@timeFormatter@@SGXQAV1@@@Z  (Idle)
01:00017684 ?defaultFormatter@timeFormatter@@SGQAV1@@XZ 
01:000176BC ?timeZone@timeFormatter@@SGPAUtimeZoneAPI_struct@time_native@@QAV1@@@Z 
01:000176C8 ?locale@timeFormatter@@SGPBUlcId@locale_native@@QAV1@@@Z 
01:000176D4 ?raise_wrongStringFormat_explicit@time_exception@@SAXPAUprogramPoint_struct@core@@PB_W1@Z 
01:0001779C ?raise_cannotGetTimeZoneInformation_explicit@time_exception@@SAXPAUprogramPoint_struct@core@@PB_WI@Z  (Idle)
01:00017864 ?now$@time@@SAXQAV1@@@Z 
01:00017898 ?newZero$@time@@SAXQAV1@@@Z 
01:000178B0 ?newFromGMT$@time@@SAXQAV1@@PAPBUgmtTimeValue@core@@@Z 
01:000178C4 ?new$@time@@SAXQAV1@@QAVgmtTime@@@@Z  (Idle)
01:000178EC ?newFromLocalTime$@time@@SAXQAV1@@PAPBUlocalTimeValue@core@@@Z  (Idle)
01:00017948 ?newFromTimeZone$@time@@SAXQAV1@@PAPBUlocalTimeValue@core@@PAUtimeZoneAPI_struct@time_native@@@Z  (Idle)
01:000179A8 ?new$@time@@SAXQAV1@@HHHHHPAN@Z  (Idle)
01:00017A3C ?newGMT$@time@@SAXQAV1@@HHHHHPAN@Z 
01:00017A58 ?newDate$@time@@SAXQAV1@@HHH@Z  (Idle)
01:00017A78 ?newTime$@time@@SAXQAV1@@HHPAN@Z  (Idle)
01:00017A94 ?newFromSimpleString$@time@@SAXQAV1@@PB_W@Z  (Idle)
01:00017AB0 ?_getCurrentGmtTimeValue@time@@SAXPAAAUgmtTimeValue@core@@@Z 
01:00017AF0 ?_compare$@time@@SAXQAVgmtTime@@@0PAPAUcompareResult_struct@_builtIn@@@Z 
01:00017B5C ?before$@time@@SAXQAVgmtTime@@@0@Z 
01:00017B88 ?beforeOrSameTime$@time@@SAXQAVgmtTime@@@0@Z 
01:00017BB4 ?sameTime$@time@@SAXQAVgmtTime@@@0@Z 
01:00017BE0 ?_getDuration$@time@@SAXQAVgmtTime@@@0PAPAVduration@@@@Z 
01:00017C08 ?addDuration$@time@@SAXQAVgmtTime@@@QAVduration@@@@Z 
01:00017C9C ?subtractDuration$@time@@SAXQAVgmtTime@@@QAVduration@@@@Z 
01:00017D30 ?getGmtDateAndTime$@time@@SAXQAVgmtTime@@@PAHPAHPAHPAHPAHPAPAN@Z 
01:00017D8C ?getGmtDateAndTime@time@@SAXPAPBUgmtTimeValue@core@@PAHPAHPAHPAHPAHPAPAN@Z 
01:00017EA0 ?setGmtDateAndTime$@time@@SAXQAVgmtTime@@@HHHHHPAN@Z 
01:00017EFC ?setDate$@time@@SAXQAV1@@HHH@Z 
01:00017F5C ?getDate$@time@@SAXQAV1@@PAHPAHPAH@Z 
01:00017FBC ?setTime$@time@@SAXQAV1@@HHH@Z 
01:0001801C ?getTime$@time@@SAXQAV1@@PAHPAHPAH@Z 
01:0001807C ?setTime_localTimeValue$@time@@SAXQAV1@@PAPBUlocalTimeValue@core@@@Z 
01:000180CC ?_getTime$@time@@SAXQAV1@@PAAAUlocalTimeValue@core@@@Z 
01:0001811C ?setTimeDetailed$@time@@SAXQAV1@@HHPAN@Z 
01:0001817C ?getTimeDetailed$@time@@SAXQAV1@@PAHPAHPAPAN@Z 
01:000181DC ?getWeek$@time@@SAXQAV1@@PAHPAHPAH@Z 
01:0001823C ?setWeek$@time@@SAXQAV1@@HHH@Z 
01:0001829C ?setDateAndTime$@time@@SAXQAV1@@HHHHH@Z 
01:00018314 ?getDateAndTime$@time@@SAXQAV1@@PAHPAHPAHPAHPAH@Z 
01:0001838C ?setDateAndTime$@time@@SAXQAV1@@HHHHHH@Z 
01:00018410 ?getDateAndTime$@time@@SAXQAV1@@PAHPAHPAHPAHPAHPAH@Z 
01:00018494 ?setDateAndTimeDetailed$@time@@SAXQAV1@@HHHHHPAN@Z 
01:00018518 ?getDateAndTimeDetailed$@time@@SAXQAV1@@PAHPAHPAHPAHPAHPAPAN@Z 
01:0001859C ?setSystemClock@time@@SAXQAV1@@@Z  (Idle)
01:000187D8 ?_formatLongDate$@time@@SAXQAV1@@PAPB_W@Z 
01:00018828 ?_formatShortDate$@time@@SAXQAV1@@PAPB_W@Z 
01:00018878 ?_formatDate$@time@@SAXQAV1@@PB_WPAPB_W@Z 
01:000188D0 ?_formatTime$@time@@SAXQAV1@@PAPB_W@Z 
01:00018920 ?_formatTime$@time@@SAXQAV1@@PB_WPAPB_W@Z 
01:00018978 ?_toSimpleString$@time@@SAXQAV1@@PAPB_W@Z 
01:000189C8 ?setFromSimpleString$@time@@SAXQAV1@@PB_W@Z 
01:00018A18 ?_formatDateTime$@time@@SAXQAV1@@PB_W1PAPB_W@Z 
01:00018A78 ?setFromString$@time@@SAXQAV1@@PB_W1@Z 
01:00018AD0 ?setFromString$@time@@SAXQAV1@@PB_W@Z 
01:00018B20 ?isDaylightTime$@time@@SAXQAV1@@@Z 
01:00018B68 ?isLeapYear$@time@@SAXQAV1@@@Z 
01:00018B98 ?isLeapYear@time@@SAXH@Z 
01:00018C64 ?_getDayOfWeek@time@@SAXHHHPAH@Z 
01:00018CB4 ?_dayOfYear@time@@SAXHHHPAH@Z  (Idle)
01:00018D38 ?_dayOfYearEx@time@@SAXIIHPAH@Z 
01:00018DCC ?_getDaysInMonth@time@@SAXHHPAH@Z 
01:00018E5C ?_daysInMonth_nonLeap@time@@SAXHPAH@Z 
01:00018F98 ?isValidDate@time@@SAXHHH@Z  (Idle)
01:00018FE8 ?_calculateLocalTimeValue@time@@SAXHHHHHPANPAAAUlocalTimeValue@core@@@Z 
01:0001932C ?normalize@time@@SAXHHHHHPANPAHPAHPAHPAHPAHPAPAN@Z 
01:000193CC ?divNormRest_integer@time@@SAXHHPAHPAH@Z  (Idle)
01:00019428 ?divNormRest_real@time@@SAXPANHPAHPAPAN@Z 
01:00019518 ?normalizeMonth@time@@SAXHPAHPAH@Z 
01:00019550 ?addCalendarDuration$@time@@SAXQAV1@@QAVcalendarDuration@@@@Z 
01:00019568 ?subtractCalendarDuration$@time@@SAXQAV1@@QAVcalendarDuration@@@@Z 
01:0001957C ?addCalendarDurationWithSign$@time@@SAXQAV1@@QAVcalendarDuration@@@H@Z 
01:000196FC ?setTime$@time@@SAXQAV1@@0@Z 
01:00019784 ?_tickclock_init/0nf$1@time@@SAXPAPA_K@Z 
01:000197A8 ?_tickclock_init/0nf$2@time@@SAXPAPA_K@Z 
01:000197EC ?_tickclock_init/0nf$3@time@@SAXPAPA_K@Z 
01:00019838 ?_tickClock_init@time@@SAXPAPA$?_function$1@core@@SAXPAPA_K@Z$@Z  (Idle)
01:00019924 ?_getTickCount32As64@time@@SAXPAPA_K@Z 
01:000199DC ?_getTickCount@time@@SAXPAPA_K@Z  (Idle)
01:00019A30 ?_getTickCountInMSec@time@@SAXPAPA_K@Z  (Idle)
01:00019A78 ?_queryTickResolution@time@@SAXPAPA_K@Z  (Idle)
01:00019A9C ?_presenter$@time@@SAXQAVgmtTime@@@PAPAUpresentation_struct@presenter@@@Z 
--- From 'Obj\core.5D9B9483.obj'
01:00019ADC ?_presenter_gmtTimeValue@time@@SAXPAPBU2core@@PAPAUpresentation_struct@presenter@@@Z 
01:00019B58 ?_presenter_localTimeValue@time@@SAXPAPBU2core@@PAPAUpresentation_struct@presenter@@@Z 
--- From 'Obj\time.6AFD2988.obj'
01:00019BA0 ?_presenter_localTimeValue2@time@@SAXPAPBUgmtTimeValue@core@@PAPBUlocalTimeValue@3@PAPAUpresentation_struct@presenter@@@Z 
01:00019C54 ?writePresent_dateTime@time@@SAXQAVoutputStream@@@PA_KH@Z 
01:00019DF4 ?writePresent_zone@time@@SAXQAVoutputStream@@@H@Z 
01:00019F20 ?new$@time@@SAXQAV1@@@Z  (Idle)
01:00019F28 ?_getInterval$@time@@SAXQAVgmtTime@@@0PAPAVduration@@@@Z 
01:00019F30 ?addInterval$@time@@SAXQAVgmtTime@@@QAVduration@@@@Z 
01:00019F38 ?subtractInterval$@time@@SAXQAVgmtTime@@@QAVduration@@@@Z 
01:00019F40 ?addCalendarInterval$@time@@SAXQAV1@@QAVcalendarDuration@@@@Z 
01:00019F48 ?subtractCalendarInterval$@time@@SAXQAV1@@QAVcalendarDuration@@@@Z 
01:00019F50 ?_now@time@@SAXPAPAV1@@@Z  (Idle)
01:00019F78 ?_newZero@time@@SAXPAPAV1@@@Z 
01:00019FA0 ?_new@time@@SAXQAVgmtTime@@@PAPAV1@@@Z  (Idle)
01:00019FC8 ?_newFromGMT@time@@SAXPAPBUgmtTimeValue@core@@PAPAV1@@@Z 
01:00019FF0 ?_newFromLocalTime@time@@SAXPAPBUlocalTimeValue@core@@PAPAV1@@@Z  (Idle)
01:0001A018 ?_newFromTimeZone@time@@SAXPAPBUlocalTimeValue@core@@PAUtimeZoneAPI_struct@time_native@@PAPAV1@@@Z  (Idle)
01:0001A044 ?_new@time@@SAXHHHHHPANPAPAV1@@@Z  (Idle)
01:0001A07C ?_newGMT@time@@SAXHHHHHPANPAPAV1@@@Z  (Idle)
01:0001A0B4 ?_newDate@time@@SAXHHHPAPAV1@@@Z 
01:0001A0E4 ?_newTime@time@@SAXHHPANPAPAV1@@@Z  (Idle)
01:0001A114 ?_newFromSimpleString@time@@SAXPB_WPAPAV1@@@Z  (Idle)
01:0001A13C ?_new@time@@SAXPAPAV1@@@Z  (Idle)
01:0001A164 ?__lateFactInit$lasttickcount$0$time@classDB@1@SAXPAPA_K@Z 
01:0001A198 ?__lateFactInit$tickclock$0$time@classDB@1@SAXPAPA$?_function$1@core@@SAXPAPA_K@Z$@Z 
01:0001A1A0 ?gmtNowFunction@time@@SGXX@Z 
01:0001A1AC ?gmtNowFunction@time@@SGXXZ 
01:0001A1B4 ?gmtTimeValue@time@@SAXQAVgmtTime@@@PAPBU0core@@@Z 
01:0001A1C8 ?_gmtTimeValue@time@@SAXQAVgmtTime@@@PAAAU0core@@@Z 
01:0001A1DC ?new$@gmtTime@@SAXQAV1@@@Z  (Idle)
01:0001A1E4 ?now$@gmtTime@@SAXQAV1@@@Z 
01:0001A1EC ?newZero$@gmtTime@@SAXQAV1@@@Z  (Idle)
01:0001A1F4 ?new$@gmtTime@@SAXQAV1@@PAPBUgmtTimeValue@core@@@Z  (Idle)
01:0001A1FC ?new$@gmtTime@@SAXQAV1@@HHHHHPAN@Z  (Idle)
01:0001A204 ?_presenter$@gmtTime@@SAXQAV1@@PAPAUpresentation_struct@presenter@@@Z 
01:0001A22C ?_presenter_gmtTimeValue@gmtTime@@SAXPAPBU2core@@PAPAUpresentation_struct@presenter@@@Z  (Idle)
01:0001A234 ?_presenter_localTimeValue@gmtTime@@SAXPAPBU2core@@PAPAUpresentation_struct@presenter@@@Z  (Idle)
01:0001A23C ?_getCurrentGmtTimeValue@gmtTime@@SAXPAAAUgmtTimeValue@core@@@Z  (Idle)
01:0001A244 ?gmtNowFunction@gmtTime@@SGXX@Z  (Idle)
01:0001A25C ?gmtNowFunction@gmtTime@@SGXXZ  (Idle)
01:0001A274 ?_new@gmtTime@@SAXPAPAV1@@@Z  (Idle)
01:0001A29C ?_now@gmtTime@@SAXPAPAV1@@@Z  (Idle)
01:0001A2C4 ?_newZero@gmtTime@@SAXPAPAV1@@@Z  (Idle)
01:0001A2EC ?_new@gmtTime@@SAXPAPBUgmtTimeValue@core@@PAPAV1@@@Z  (Idle)
01:0001A314 ?_new@gmtTime@@SAXHHHHHPANPAPAV1@@@Z  (Idle)
01:0001A34C ?_get$@duration@@SAXQAV1@@PAAAUdurationValue@core@@@Z 
01:0001A360 ?new$@duration@@SAXQAV1@@@Z  (Idle)
01:0001A368 ?new$@duration@@SAXQAV1@@PAPBUdurationValue@core@@@Z  (Idle)
01:0001A37C ?new$@duration@@SAXQAV1@@HHHPAN@Z  (Idle)
01:0001A384 ?new$@duration@@SAXQAV1@@QAVgmtTime@@@1@Z  (Idle)
01:0001A42C ?less$@duration@@SAXQAV1@@0@Z 
01:0001A47C ?lessOrEqual$@duration@@SAXQAV1@@0@Z 
01:0001A4CC ?equal$@duration@@SAXQAV1@@0@Z 
01:0001A50C ?between$@duration@@SAXQAV1@@00@Z 
01:0001A59C ?add$@duration@@SAXQAV1@@0@Z 
01:0001A604 ?subtract$@duration@@SAXQAV1@@0@Z 
01:0001A66C ?multiply$@duration@@SAXQAV1@@PAN@Z 
01:0001A6DC ?setInterval$@duration@@SAXQAV1@@HHHH@Z 
01:0001A730 ?setIntervalDetailed$@duration@@SAXQAV1@@HHHPAN@Z 
01:0001A738 ?getInterval$@duration@@SAXQAV1@@PAHPAHPAHPAH@Z 
01:0001A76C ?getIntervalDetailed$@duration@@SAXQAV1@@PAHPAHPAHPAPAN@Z 
01:0001A774 ?getFields$@duration@@SAXQAV1@@PAHPAHPAHPAPAN@Z 
01:0001A7B4 ?getFields2@duration@@SAXPAPBUdurationValue@core@@PAHPAHPAHPAPAN@Z 
01:0001A8F4 ?setFields$@duration@@SAXQAV1@@HHHPAN@Z 
01:0001AA04 ?_presenter$@duration@@SAXQAV1@@PAPAUpresentation_struct@presenter@@@Z 
01:0001AB24 ?iso8601@duration@@SGPB_WQAV1@@@Z 
01:0001AB6C ?_format$@duration@@SAXQAV1@@PB_W11111PAPB_W@Z 
01:0001AF7C ?_new@duration@@SAXPAPAV1@@@Z  (Idle)
01:0001AFA4 ?_new@duration@@SAXPAPBUdurationValue@core@@PAPAV1@@@Z 
01:0001AFCC ?_new@duration@@SAXHHHPANPAPAV1@@@Z  (Idle)
01:0001B000 ?_new@duration@@SAXQAVgmtTime@@@0PAPAV1@@@Z 
01:0001B02C ?_object_facts_initializer$@duration@@SGXQAV1@@@Z 
01:0001B044 ?new$@calendarDuration@@SAXQAV1@@@Z  (Idle)
01:0001B04C ?new$@calendarDuration@@SAXQAV1@@HHHHHPAN@Z  (Idle)
01:0001B054 ?setInterval$@calendarDuration@@SAXQAV1@@HHHHHPAN@Z 
01:0001B084 ?getInterval$@calendarDuration@@SAXQAV1@@PAHPAHPAHPAHPAHPAPAN@Z 
01:0001B0C0 ?less$@calendarDuration@@SAXQAV1@@0QAVgmtTime@@@@Z 
01:0001B148 ?lessOrEqual$@calendarDuration@@SAXQAV1@@0QAVgmtTime@@@@Z 
01:0001B1D0 ?equal$@calendarDuration@@SAXQAV1@@0QAVgmtTime@@@@Z 
01:0001B258 ?add$@calendarDuration@@SAXQAV1@@0@Z 
01:0001B324 ?subtract$@calendarDuration@@SAXQAV1@@0@Z 
01:0001B3F0 ?_new@calendarDuration@@SAXPAPAV1@@@Z  (Idle)
01:0001B418 ?_new@calendarDuration@@SAXHHHHHPANPAPAV1@@@Z  (Idle)
01:0001B450 ?_object_facts_initializer$@calendarDuration@@SGXQAV1@@@Z 
01:0001B4C4 timeFormatter?_initObject@@@QAGXQAV1@H@Z 
01:0001B4DC ?@create_object@timeFormatter@@SGQAV1@@XZ 
01:0001B4F8 timeFormatter?_InternalFinalizer@@@QAGXQAV1@@Z 
01:0001B59C time?_initObject@@@QAGXQAV1@H@Z 
01:0001B5B4 ?@create_object@time@@SGQAV1@@XZ 
01:0001B5D0 time?_InternalFinalizer@@@QAGXQAV1@@Z 
01:0001BD40 gmtTime?_initObject@@@QAGXQAV1@H@Z 
01:0001BD68 ?@create_object@gmtTime@@SGQAV1@@XZ 
01:0001BD84 gmtTime?_InternalFinalizer@@@QAGXQAV1@@Z 
01:0001BD9C duration?_initObject@@@QAGXQAV1@H@Z 
01:0001BDC0 ?@create_object@duration@@SGQAV1@@XZ 
01:0001BDDC duration?_InternalFinalizer@@@QAGXQAV1@@Z 
01:0001BDF0 calendarDuration?_initObject@@@QAGXQAV1@H@Z 
01:0001BE14 ?@create_object@calendarDuration@@SGQAV1@@XZ 
01:0001BE30 calendarDuration?_InternalFinalizer@@@QAGXQAV1@@Z 
--- From 'Obj\vpidomains.E7102A6D.obj'
01:0001BE40 ?_toFont_logfont@vpiDomains@@SAXPAUlogfont_struct@gui_native@@AAU41@@Z  (Idle)
01:0001BEE8 ?_fromFont_logfont@vpiDomains@@SAXPBU21@PAPAUlogfont_struct@gui_native@@@Z  (Idle)
01:0001BEF8 ?_eventFormat@vpiDomains@@SAXPAUevent_struct@1@PAPB_W@Z  (Idle)
01:0001BFC4 ?_presenter_event@vpiDomains@@SAXPAUevent_struct@1@PAPAUpresentation_struct@presenter@@@Z 
--- From 'Obj\console.E8EB4F3C.obj'
01:0001C110 ?_getStdHandle@console_api@@SAXIAAUfileHandle@core@@@Z 
--- From 'Obj\console_api.1787DB80.obj'
01:0001C150 ?setStdHandle@console_api@@SAXIPBUfileHandle@core@@@Z  (Idle)
01:0001C18C ?addConsoleCtrlHandler@console_api@@SAXX@Z  (Idle)
01:0001C1C8 ?removeConsoleCtrlHandler@console_api@@SAXX@Z  (Idle)
--- From 'Obj\console.E8EB4F3C.obj'
01:0001C204 ?setConsoleCP@console_api@@SAXPBUcodePage@core@@@Z 
01:0001C23C ?setConsoleOutputCP@console_api@@SAXPBUcodePage@core@@@Z 
--- From 'Obj\exe.D80FC844.obj'
01:0001C280 ?hInstance@exe_api@@SGPBUhModule@core@@XZ 
--- From 'Obj\exe_api.026B8342.obj'
01:0001C2AC ?hInstanceExe@exe_api@@SGPBUhModule@core@@XZ 
--- From 'Obj\exe.D80FC844.obj'
01:0001C2C4 ?_getModuleNameByAddress@exe_api@@SAXPBUhModule@core@@PAPB_W@Z 
--- From 'Obj\exe_api.026B8342.obj'
01:0001C380 ?_isOSConsoleApplication@exe_api@@SAXPB_WPAPAUboolean_struct@_builtIn@@@Z  (Idle)
--- From 'Obj\exe.D80FC844.obj'
01:0001C550 ?run@exe_api@@SAXXPAUrunMode_struct@1@@Z 
--- From 'Obj\exe_api.026B8342.obj'
01:0001C6CC ?coInitialize@exe_api@@SAXPAU?$__packedList_struct@PAUcoInit_struct@1@@@@Z  (Idle)
01:0001C76C ?coUninitialize@exe_api@@SAXXZ  (Idle)
01:0001C778 ?_toCoInitFlag@exe_api@@SAXPAU?$__packedList_struct@PAUcoInit_struct@1@@@PAI@Z 
01:0001C7D4 ?_coInitMap@exe_api@@SAXPAUcoInit_struct@1@PAI@Z 
--- From 'Obj\filesystem_api.C5B8AF1A.obj'
01:0001C810 _GetFileInformationByHandleEx@16  (Idle)
--- From 'Obj\filesystem.5B0F823E.obj'
01:0001C834 _GetFinalPathNameByHandleW@16 
--- From 'Obj\filesystem_api.C5B8AF1A.obj'
01:0001C858 ?fileAttributeCorrespondence@fileSystem_api@@SAXPAUfileAttributeAtom_struct@1@PAI@Z  (Idle)
--- From 'Obj\filesystem.5B0F823E.obj'
01:0001C8D4 ?_toApiAttributes@fileSystem_api@@SAXPAU?$__packedList_struct@PAUfileAttributeAtom_struct@1@@@PAI@Z 
--- From 'Obj\filesystem_api.C5B8AF1A.obj'
01:0001C8F0 ?_toApiAttributes@fileSystem_api@@SAXPAU?$__packedList_struct@PAUfileAttributeAtom_struct@1@@@IPAI@Z 
--- From 'Obj\filesystem.5B0F823E.obj'
01:0001C94C ?_fromApiAttributes@fileSystem_api@@SAXIPAPAU?$__packedList_struct@PAPAUfileAttributeAtom_struct@1@@@@Z 
--- From 'Obj\filesystem_api.C5B8AF1A.obj'
01:0001C9B0 ?_convertToFileAttribute_nd@fileSystem_api@@SAXIPAPAUfileAttributeAtom_struct@1@@Z 
--- From 'Obj\filesystem.5B0F823E.obj'
01:0001C9F0 ?_createFile@fileSystem_api@@SAXPB_WIPAUaccessPermit_struct@1@IPAU?$__packedList_struct@PAUfileAttributeAtom_struct@1@@@AAUfileHandle@core@@@Z 
--- From 'Obj\filesystem_api.C5B8AF1A.obj'
01:0001CA30 ?_toShareModeAPI@fileSystem_api@@SAXPAUaccessPermit_struct@1@PAI@Z 
01:0001CA6C ?_createFile_flag@fileSystem_api@@SAXPB_WIIIIAAUfileHandle@core@@@Z 
--- From 'Obj\filesystem.5B0F823E.obj'
01:0001CAB8 ?_getFileSize@fileSystem_api@@SAXPBUfileHandle@core@@PAAAUfileSize@1@@Z 
01:0001CB00 ?_setFilePointer@fileSystem_api@@SAXPBUfileHandle@core@@PA_JIPAAAUfileSize@1@@Z 
01:0001CB5C ?getVolumeInformation@fileSystem_api@@SAXPB_WPAPB_WPAI1@Z 
01:0001CC30 ?raise_cannotCreate_explicit@fileSystem_api@@SAXPAUprogramPoint_struct@core@@PB_WPBUhResult@3@@Z 
--- From 'Obj\filesystem_api.C5B8AF1A.obj'
01:0001CD60 ?raise_cannotGetFileSize_explicit@fileSystem_api@@SAXPAUprogramPoint_struct@core@@PBUfileHandle@3@PBUhResult@3@@Z 
01:0001CDE8 ?raise_cannotSetFilePointer_explicit@fileSystem_api@@SAXPAUprogramPoint_struct@core@@PBUfileHandle@3@PA_JIPBUhResult@3@@Z 
--- From 'Obj\filesystem.5B0F823E.obj'
01:0001CF10 ?crlf_lf@fileSystem_api@@SAXPAXHPAUboolean_struct@_builtIn@@PAPAXAAUbyteCount@core@@PAPAU?$__packedList_struct@AAU45@@@PAPAU23@@Z 
--- From 'Obj\filesystem_api.C5B8AF1A.obj'
01:0001CF94 ?prepareSearch@fileSystem_api@@SAXPAXHAAUbyteCount@core@@PAPAUboolean_struct@_builtIn@@@Z 
01:0001D018 ?searchCRLF@fileSystem_api@@SAXPAXPBUbyteCount@core@@1AAU23@PAPAU?$__packedList_struct@AAU23@@@3@Z 
01:0001D100 ?_tryGetPositionOfCRLF@fileSystem_api@@SAXPAXHPBUbyteCount@core@@AAU23@@Z 
01:0001D178 ?_convertCRLF_IfNeeded@fileSystem_api@@SAXPAUboolean_struct@_builtIn@@PAXPBUbyteCount@core@@PAU?$__packedList_struct@PBU45@@@2PAPAX@Z 
01:0001D284 ?checkFirstPos@fileSystem_api@@SAXPBUbyteCount@core@@PAU?$__packedList_struct@PBU23@@@PAXPAPAX3PAPAU?$__packedList_struct@AAU23@@@@Z 
01:0001D2FC ?_mem_move@fileSystem_api@@SAXPAXPAXPBUbyteCount@core@@PAPAX@Z 
01:0001D324 ?_mem_copy@fileSystem_api@@SAXPAXPAXPBUbyteCount@core@@PAPAX@Z 
01:0001D34C ?convertCRLF_LF@fileSystem_api@@SAXXPAXPAXPBUbyteCount@core@@PAU?$__packedList_struct@PBU23@@@@Z 
--- From 'Obj\filesystem.5B0F823E.obj'
01:0001D3DC ?crlf_lf@fileSystem_api@@SAXPB_W@Z 
--- From 'Obj\filesystem_api.C5B8AF1A.obj'
01:0001D3F4 ?do_CRLF_LF@fileSystem_api@@SAXPB_W0@Z 
--- From 'Obj\filesystem.5B0F823E.obj'
01:0001D488 ?lf_crlf@fileSystem_api@@SAXPAXPBUbyteCountOptional@core@@PAPAXAAUbyteCount@3@@Z 
--- From 'Obj\filesystem_api.C5B8AF1A.obj'
01:0001D4FC ?_getSize@fileSystem_api@@SAXPB_WPBUbyteCountOptional@core@@AAUbyteCount@3@@Z 
01:0001D538 ?searchLineFeeds@fileSystem_api@@SAXPAXPBUbyteCount@core@@1AAU23@PAPAU?$__packedList_struct@AAU23@@@3@Z 
01:0001D5F8 ?_convertToCRLF_IfNeeded@fileSystem_api@@SAXPAXPBUbyteCount@core@@PAU?$__packedList_struct@PBU23@@@1PAPAX@Z 
01:0001D65C ?convertToCRLF@fileSystem_api@@SAXPAXPAXPBUbyteCount@core@@PAU?$__packedList_struct@PBU23@@@@Z 
--- From 'Obj\filesystem.5B0F823E.obj'
01:0001D6FC ?removeDirectory@fileSystem_api@@SAXPB_W@Z 
01:0001D798 ?createDirectory@fileSystem_api@@SAXPB_WPAUsecurity_attributes_struct@windowsAPI@@@Z 
01:0001D838 ?moveFile@fileSystem_api@@SAXPB_W0@Z 
01:0001D92C ?setVolumeLabel@fileSystem_api@@SAXPB_W0@Z 
01:0001DA20 ?getDiskFreeSpaceEx@fileSystem_api@@SAXPB_WPAAAUfileSize@1@11@Z 
--- From 'Obj\filesystem_api.C5B8AF1A.obj'
01:0001DAF8 ?_getcurrentdirectory/0nf$1@fileSystem_api@@SAXPB_WPBUcharCount@core@@AAU23@@Z 
--- From 'Obj\filesystem.5B0F823E.obj'
01:0001DB10 ?_getCurrentDirectory@fileSystem_api@@SAXPAPB_W@Z 
01:0001DB44 ?setCurrentDirectory@fileSystem_api@@SAXPB_W@Z 
--- From 'Obj\filesystem_api.C5B8AF1A.obj'
01:0001DC58 ?_getshortpathname/1nf$1@fileSystem_api@@SAXPAUgetshortpathname/1nf$1_struct@1@PB_WPBUcharCount@core@@AAU45@@Z 
--- From 'Obj\filesystem.5B0F823E.obj'
01:0001DC7C ?_getShortPathName@fileSystem_api@@SAXPB_WPAPB_W@Z 
--- From 'Obj\filesystem_api.C5B8AF1A.obj'
01:0001DD2C ?_getlongpathname/1nf$1@fileSystem_api@@SAXPAUgetlongpathname/1nf$1_struct@1@PB_WPBUcharCount@core@@AAU45@@Z 
--- From 'Obj\filesystem.5B0F823E.obj'
01:0001DD50 ?_getLongPathName@fileSystem_api@@SAXPB_WPAPB_W@Z 
01:0001DE00 ?_getFileAttributesEx@fileSystem_api@@SAXPB_WPAPAUfileAttributesInfo_struct@fileSystem_native@@@Z 
--- From 'Obj\filesystem_api.C5B8AF1A.obj'
01:0001DF14 ?_gettemppath/0nf$1@fileSystem_api@@SAXPB_WPBUcharCount@core@@AAU23@@Z 
--- From 'Obj\filesystem.5B0F823E.obj'
01:0001DF2C ?_getTempPath@fileSystem_api@@SAXPAPB_W@Z 
01:0001DF60 ?findClose@fileSystem_api@@SAXPBUsearchHandle@fileSystem_native@@@Z 
--- From 'Obj\filesystem_api.C5B8AF1A.obj'
01:0001DFA8 ?raise_nativeCallException_explicit@fileSystem_api@@SAXPAUprogramPoint_struct@core@@PBUhResult@3@PAU?$__packedList_struct@PAUnamedValue_struct@3@PAUvalue_struct@3@@@@Z 
01:0001DFD4 ?_firstSizeThenOperation_explicit@fileSystem_api@@SAXPAUprogramPoint_struct@core@@PAU?$__packedList_struct@PAUnamedValue_struct@3@PAUvalue_struct@3@@@XPAPB_W@Z 
--- From 'Obj\filesystem.5B0F823E.obj'
01:0001E090 ?readFile@fileSystem_api@@SAXPBUfileHandle@core@@PAXPBUbyteCount@3@AAU43@@Z 
01:0001E0A4 ?readFile@fileSystem_api@@SAXPBUfileHandle@core@@PAXPBUbyteCount@3@AAU43@PBUhResult@3@@Z 
--- From 'Obj\filesystem_api.C5B8AF1A.obj'
01:0001E14C ?readFile_pipe@fileSystem_api@@SAXPBUfileHandle@core@@PAXPBUbyteCount@3@AAU43@@Z  (Idle)
01:0001E164 ?readFile_overlapped@fileSystem_api@@SAXPBUfileHandle@core@@PAXPBUbyteCount@3@PAUoverlapped_struct@fileSystem_native@@@Z  (Idle)
01:0001E178 ?readFile_overlapped@fileSystem_api@@SAXPBUfileHandle@core@@PAXPBUbyteCount@3@PAUoverlapped_struct@fileSystem_native@@PBUhResult@3@@Z 
--- From 'Obj\filesystem.5B0F823E.obj'
01:0001E1CC ?writeFile@fileSystem_api@@SAXPBUfileHandle@core@@PAXPBUbyteCount@3@AAU43@@Z 
--- From 'Obj\filesystem_api.C5B8AF1A.obj'
01:0001E268 ?writeFile_overlapped@fileSystem_api@@SAXPBUfileHandle@core@@PAXPBUbyteCount@3@PAUoverlapped_struct@fileSystem_native@@@Z  (Idle)
01:0001E27C ?writeFile_overlapped@fileSystem_api@@SAXPBUfileHandle@core@@PAXPBUbyteCount@3@PAUoverlapped_struct@fileSystem_native@@PBUhResult@3@@Z 
--- From 'Obj\filesystem.5B0F823E.obj'
01:0001E330 ?closeHandle@fileSystem_api@@SAXPBUhandle@_builtIn@@@Z 
--- From 'Obj\filesystem_api.C5B8AF1A.obj'
01:0001E3C4 ?closeHandle_robust@fileSystem_api@@SAXPBUhandle@_builtIn@@@Z  (Idle)
--- From 'Obj\filesystem.5B0F823E.obj'
01:0001E3D4 ?flushFileBuffers@fileSystem_api@@SAXPBUfileHandle@core@@@Z 
--- From 'Obj\multithread_api.57E3A62D.obj'
01:0001E468 ?_duplicateHandle@fileSystem_api@@SAXPBUprocessHandle@windowsAPI@@PBUhandle@_builtIn@@0IHIAAU45@@Z 
--- From 'Obj\filesystem_api.C5B8AF1A.obj'
01:0001E50C ?tryGetOverlappedResult_wait@fileSystem_api@@SAXPBUfileHandle@core@@PAUoverlapped_struct@fileSystem_native@@AAUbyteCount@3@@Z  (Idle)
01:0001E52C ?tryGetOverlappedResult_noWait@fileSystem_api@@SAXPBUfileHandle@core@@PAUoverlapped_struct@fileSystem_native@@AAUbyteCount@3@@Z  (Idle)
01:0001E548 ?getOverlappedResult2@fileSystem_api@@SAXPBUfileHandle@core@@PAUoverlapped_struct@fileSystem_native@@AAUbyteCount@3@PBUbooleanInt@3@PBUhResult@3@@Z 
01:0001E5F0 ?_createIoCompletionPort@fileSystem_api@@SAXIAAUioCompletionPort@1@@Z  (Idle)
01:0001E620 ?_createIoCompletionPort@fileSystem_api@@SAXIPBUhandle@_builtIn@@PAXAAUioCompletionPort@1@@Z  (Idle)
01:0001E658 ?attachIoCompletionPort@fileSystem_api@@SAXPBUioCompletionPort@1@PBUhandle@_builtIn@@PAX@Z  (Idle)
01:0001E67C ?_createIoCompletionPort2@fileSystem_api@@SAXPBUhandle@_builtIn@@PBUioCompletionPort@1@PAXIAAU41@@Z 
01:0001E6FC ?tryGetQueuedCompletionStatus@fileSystem_api@@SAXPBUioCompletionPort@1@AAUbyteCount@core@@PAPAXPAPAUoverlapped_struct@fileSystem_native@@I@Z  (Idle)
01:0001E760 ?getQueuedCompletionStatus@fileSystem_api@@SAXPBUioCompletionPort@1@AAUbyteCount@core@@PAPAXPAPAUoverlapped_struct@fileSystem_native@@@Z  (Idle)
01:0001E7C4 ?checkQueuedCompletionStatusException_explicit@fileSystem_api@@SAXPAUprogramPoint_struct@core@@PBUhResult@3@PBUbyteCount@3@PAXPAUoverlapped_struct@fileSystem_native@@@Z 
01:0001E94C ?_tryGetQueuedCompletionStatus_hResult@fileSystem_api@@SAXPBUioCompletionPort@1@AAUbyteCount@core@@PAPAXPAPAUoverlapped_struct@fileSystem_native@@IAAU85@@Z 
01:0001E988 ?_getQueuedCompletionStatus_hResult@fileSystem_api@@SAXPBUioCompletionPort@1@AAUbyteCount@core@@PAPAXPAPAUoverlapped_struct@fileSystem_native@@AAU85@@Z 
01:0001E9D8 ?_getQueuedCompletionStatus_hResult2_explicit@fileSystem_api@@SAXPAUprogramPoint_struct@core@@PBUioCompletionPort@1@AAUbyteCount@3@PAPAXPAPAUoverlapped_struct@fileSystem_native@@IAAUhResult@3@@Z 
01:0001EA74 ?getQueuedCompletionStatusException_explicit@fileSystem_api@@SAXPAUprogramPoint_struct@core@@PBUhResult@3@PAU?$__packedList_struct@PAUnamedValue_struct@3@PAUvalue_struct@3@@@@Z 
01:0001EA94 ?postQueuedCompletionStatus@fileSystem_api@@SAXPBUioCompletionPort@1@PAUoverlapped_struct@fileSystem_native@@@Z  (Idle)
01:0001EAAC ?postQueuedCompletionStatus@fileSystem_api@@SAXPBUioCompletionPort@1@PAUoverlapped_struct@fileSystem_native@@PBUbyteCount@core@@@Z  (Idle)
01:0001EAC0 ?postQueuedCompletionStatus@fileSystem_api@@SAXPBUioCompletionPort@1@PAUoverlapped_struct@fileSystem_native@@PBUbyteCount@core@@PAX@Z 
01:0001EB00 ?readDirectoryChanges@fileSystem_api@@SAXPBUfileHandle@core@@PAXPBUbyteCount@3@PAUboolean_struct@_builtIn@@IAAU43@@Z  (Idle)
01:0001EB18 ?readDirectoryChanges_overlapped@fileSystem_api@@SAXPBUfileHandle@core@@PAXPBUbyteCount@3@PAUboolean_struct@_builtIn@@IPAUoverlapped_struct@fileSystem_native@@@Z  (Idle)
01:0001EB44 ?readDirectoryChanges_overlapped@fileSystem_api@@SAXPBUfileHandle@core@@PAXPBUbyteCount@3@PAUboolean_struct@_builtIn@@IPAUoverlapped_struct@fileSystem_native@@X@Z  (Idle)
01:0001EB74 ?readDirectoryChanges2@fileSystem_api@@SAXPBUfileHandle@core@@PAXPBUbyteCount@3@PAUboolean_struct@_builtIn@@IAAU43@PAUoverlapped_struct@fileSystem_native@@X@Z 
01:0001EBD4 ?cancelIo@fileSystem_api@@SAXPBUfileHandle@core@@@Z  (Idle)
01:0001EC68 ?fileAttributeCorrespondence@fileSystem_api@@SAXPAPAUfileAttributeAtom_struct@1@I@Z  (Idle)
01:0001ED40 ?fileAttributeCorrespondence@fileSystem_api@@SAXPAPAUfileAttributeAtom_struct@1@PAI@Z 
01:0001EE6C ?fileAttributeCorrespondence@fileSystem_api@@SAXPAUfileAttributeAtom_struct@1@I@Z  (Idle)
--- From 'Obj\gui_api.9FE53D0D.obj'
01:0001EF20 ?_createDialog@gui_native@@SAXPBUhModule@core@@HPBUhwnd@3@XAAU43@@Z  (Idle)
01:0001EF40 ?_createDialogIndirect@gui_native@@SAXPBUhModule@core@@PAUdlgTemplate_struct@1@PBUhwnd@3@XAAU63@@Z  (Idle)
01:0001EF60 ?_createDialog@gui_native@@SAXPBUhModule@core@@PB_WPBUhwnd@3@XAAU43@@Z  (Idle)
01:0001EF80 ?_createDialogIndirect@gui_native@@SAXPBUhModule@core@@PAUdlgTemplateEx_struct@1@PBUhwnd@3@XAAU63@@Z  (Idle)
01:0001EFA0 _AddClipboardFormatListener@4  (Idle)
01:0001EFC4 ?setScrollRange@gui_api@@SAXPBUhwnd@core@@PBUscrollBar@gui_native@@HHPAUboolean_struct@_builtIn@@@Z  (Idle)
01:0001F01C ?getScrollRange@gui_api@@SAXPBUhwnd@core@@PBUscrollBar@gui_native@@PAHPAH@Z  (Idle)
01:0001F05C ?_getScrollInfo@gui_api@@SAXPBUhwnd@core@@PBUscrollBar@gui_native@@PAPAUscrollInfo_struct@1@@Z  (Idle)
01:0001F078 ?_getScrollInfo@gui_api@@SAXPBUhwnd@core@@PBUscrollBar@gui_native@@IPAPAUscrollInfo_struct@1@@Z 
01:0001F138 ?_setScrollInfo@gui_api@@SAXPBUhwnd@core@@PBUscrollBar@gui_native@@PAUscrollInfo_struct@1@PAUboolean_struct@_builtIn@@IPAH@Z  (Idle)
01:0001F1C0 ?_scrollWindowEx@gui_api@@SAXPBUhwnd@core@@HHPAUrct_struct@vpiDomains@@IPAH@Z  (Idle)
01:0001F1DC ?_scrollWindowEx@gui_api@@SAXPBUhwnd@core@@HHPAUrct_struct@vpiDomains@@I3PAH@Z 
01:0001F1F8 ?_scrollWindowEx@gui_api@@SAXPBUhwnd@core@@HHPAUrct_struct@vpiDomains@@I3PBUhRgn@gui_native@@PAH@Z 
01:0001F214 ?_scrollWindowEx@gui_api@@SAXPBUhwnd@core@@HHPAUrct_struct@vpiDomains@@I3PBUhRgn@gui_native@@PAPAU45@PAH@Z  (Idle)
01:0001F240 ?_scrollWindowEx2@gui_api@@SAXPBUhwnd@core@@HHPAUrct_struct@vpiDomains@@I3PBUhRgn@gui_native@@3PAH@Z 
01:0001F294 ?_getScrollBarInfo@gui_api@@SAXPBUhwnd@core@@IPAPAUscrollBarInfo_struct@1@@Z  (Idle)
01:0001F38C ?_getUpdateRgn@gui_api@@SAXPBUhwnd@core@@PBUhRgn@gui_native@@PAUboolean_struct@_builtIn@@PAH@Z  (Idle)
01:0001F3E4 ?_tryGetUpdateRect@gui_api@@SAXPBUhwnd@core@@PAUboolean_struct@_builtIn@@PAPAUrct_struct@vpiDomains@@@Z  (Idle)
01:0001F430 ?isWindowObscured@gui_api@@SAXPBUhwnd@core@@@Z  (Idle)
01:0001F4CC ?_makePoints@gui_api@@SAXPBUlParam@gui_native@@PAPAUpnt_struct@vpiDomains@@@Z  (Idle)
01:0001F524 ?getInteger16@gui_api@@SAXPBUunsignedNative@_builtIn@@AAUinteger16@core@@1@Z  (Idle)
01:0001F55C ?getUnsigned16@gui_api@@SAXPBUunsignedNative@_builtIn@@AAUunsigned16@core@@1@Z 
01:0001F598 ?_makeLParam@gui_api@@SAXPAUpnt_struct@vpiDomains@@AAUlParam@gui_native@@@Z  (Idle)
01:0001F618 ?_getWindowPlacement@gui_api@@SAXPBUhwnd@core@@PAPAUwindowPlacement_struct@1@@Z  (Idle)
01:0001F6C4 ?setWindowPlacement@gui_api@@SAXPBUhwnd@core@@PAUwindowPlacement_struct@1@@Z  (Idle)
01:0001F774 ?_getTextExtentPoint32@gui_api@@SAXPBUhDC@gui_native@@PB_WPAPAUsize_struct@3@@Z  (Idle)
01:0001F7A8 ?_getTextExtentPoint32@gui_api@@SAXPBUhDC@gui_native@@PB_WPBUcharCount@core@@PAPAUsize_struct@3@@Z 
01:0001F814 ?_getTextMetrics@gui_api@@SAXPBUhDC@gui_native@@PAPAUtextmetric_struct@3@@Z  (Idle)
01:0001F868 ?_registerClassEx@gui_api@@SAXIXHHPBUhModule@core@@PBUhIcon@gui_native@@PBUhCursor@5@PBUhBrush@5@PB_W85AAUatom@5@@Z  (Idle)
01:0001F95C ?unregisterClass@gui_api@@SAXPB_W@Z  (Idle)
01:0001F970 ?unregisterClass@gui_api@@SAXPB_WPBUhModule@core@@@Z 
01:0001FA04 ?_createWindowEx@gui_api@@SAXIPB_W1IHHHHPBUhwnd@core@@PBUhMenu@gui_native@@PBUhModule@3@PAXAAU23@@Z  (Idle)
01:0001FAC0 ?_mkDlgTemplate@gui_api@@SAXPAUdlgTemplate_struct@1@PAPAU2gui_native@@@Z  (Idle)
01:000202C8 ?writeVarArray@gui_api@@SAXQAVoutputStream@@@PAUvarArray_struct@1@@Z 
01:000203F0 ?align32@gui_api@@SAXQAVoutputStream@@@@Z 
01:000204B4 ?_createDialogIndirectParam@gui_api@@SAXPBUhModule@core@@PAUdlgTemplate_struct@1@PBUhwnd@3@XPBUlParam@gui_native@@AAU63@@Z  (Idle)
01:00020510 ?_beginPaint@gui_api@@SAXPBUhwnd@core@@PAPAUpaintStruct_struct@gui_native@@AAUhDC@5@@Z  (Idle)
01:00020568 ?endPaint@gui_api@@SAXPBUhwnd@core@@PAUpaintStruct_struct@gui_native@@@Z  (Idle)
01:0002057C ?_getClientRect@gui_api@@SAXPBUhwnd@core@@PAPAUrct_struct@vpiDomains@@@Z  (Idle)
01:000205D0 ?_getWindow_handle@gui_api@@SAXPBUhwnd@core@@HAAU4_builtIn@@@Z  (Idle)
01:000206D0 ?_setWindow_handle@gui_api@@SAXPBUhwnd@core@@HPBU4_builtIn@@AAU45@@Z  (Idle)
01:00020720 ?_getWindow_integer@gui_api@@SAXPBUhwnd@core@@HPAH@Z  (Idle)
01:00020750 ?_setWindow_integer@gui_api@@SAXPBUhwnd@core@@HHPAH@Z  (Idle)
01:00020798 ?_getWindow_unsigned@gui_api@@SAXPBUhwnd@core@@HPAI@Z  (Idle)
01:000207C8 ?_setWindow_unsigned@gui_api@@SAXPBUhwnd@core@@HIPAI@Z  (Idle)
01:00020810 ?_getWindow_style@gui_api@@SAXPBUhwnd@core@@PAI@Z  (Idle)
01:0002082C ?setWindow_style@gui_api@@SAXPBUhwnd@core@@I@Z  (Idle)
01:0002084C ?_getWindow_exstyle@gui_api@@SAXPBUhwnd@core@@PAI@Z  (Idle)
01:00020868 ?setWindow_exstyle@gui_api@@SAXPBUhwnd@core@@I@Z  (Idle)
01:00020888 ?_getWindow_wndProc@gui_api@@SAXPBUhwnd@core@@PAX@Z  (Idle)
01:000208B0 ?_setWindow_wndProc@gui_api@@SAXPBUhwnd@core@@XPAX@Z  (Idle)
01:000208D8 ?_getClass_handle@gui_api@@SAXPBUhwnd@core@@HAAU4_builtIn@@@Z  (Idle)
01:00020924 ?_setClass_handle@gui_api@@SAXPBUhwnd@core@@HPBU4_builtIn@@AAU45@@Z  (Idle)
01:00020974 ?_getClass_integer@gui_api@@SAXPBUhwnd@core@@HPAH@Z  (Idle)
01:000209A4 ?_setClass_integer@gui_api@@SAXPBUhwnd@core@@HHPAH@Z  (Idle)
01:000209EC ?_getClass_unsigned@gui_api@@SAXPBUhwnd@core@@HPAI@Z  (Idle)
01:00020A1C ?_setClass_unsigned@gui_api@@SAXPBUhwnd@core@@HIPAI@Z  (Idle)
01:00020A64 ?extTextOut@gui_api@@SAXPBUhDC@gui_native@@HHIPAUrct_struct@vpiDomains@@PB_W@Z  (Idle)
01:00020A90 ?extTextOut@gui_api@@SAXPBUhDC@gui_native@@HHIPAUrct_struct@vpiDomains@@PB_WPAX@Z  (Idle)
01:00020AC4 ?extTextOut@gui_api@@SAXPBUhDC@gui_native@@HHIPAUrct_struct@vpiDomains@@PB_WPBUcharCount@core@@PAX@Z 
01:00020B10 ?invalidateRect@gui_api@@SAXPBUhwnd@core@@PAUrct_struct@vpiDomains@@PBUbooleanInt@3@@Z  (Idle)
01:00020B50 ?invalidate@gui_api@@SAXPBUhwnd@core@@PBUbooleanInt@3@@Z  (Idle)
01:00020B68 ?bringWindowToTop@gui_api@@SAXPBUhwnd@core@@@Z  (Idle)
01:00020BA0 ?_tryGetForegroundWindow@gui_api@@SAXAAUhwnd@core@@@Z  (Idle)
01:00020BC0 ?_setForegroundWindow@gui_api@@SAXPBUhwnd@core@@PAPAUboolean_struct@_builtIn@@@Z  (Idle)
01:00020BF0 ?_setFocus@gui_api@@SAXPBUhwnd@core@@AAU23@@Z  (Idle)
01:00020C30 ?_getParent@gui_api@@SAXPBUhwnd@core@@AAU23@@Z  (Idle)
01:00020C70 ?_tryGetParent@gui_api@@SAXPBUhwnd@core@@AAU23@@Z  (Idle)
01:00020C90 ?_setParent@gui_api@@SAXPBUhwnd@core@@0AAU23@@Z  (Idle)
01:00020CD0 ?_clientToScreen@gui_api@@SAXPBUhwnd@core@@PAUpnt_struct@vpiDomains@@PAPAU45@@Z  (Idle)
01:00020D2C ?_screenToClient@gui_api@@SAXPBUhwnd@core@@PAUpnt_struct@vpiDomains@@PAPAU45@@Z  (Idle)
01:00020D88 ?_alloc_pnt@gui_api@@SAXHHPAPAUpnt_struct@vpiDomains@@@Z 
01:00020DB4 ?_adjustWindowRectEx@gui_api@@SAXPAUrct_struct@vpiDomains@@IPAUboolean_struct@_builtIn@@IPAPAU23@@Z  (Idle)
01:00020E34 ?deleteObject@gui_api@@SAXPBUhandle@_builtIn@@@Z  (Idle)
01:00020E44 ?_deleteObject@gui_api@@SAXPBUhandle@_builtIn@@PAPAUboolean_struct@3@@Z  (Idle)
01:00020E5C ?_selectObject@gui_api@@SAXPBUhDC@gui_native@@PBUhandle@_builtIn@@AAU45@@Z  (Idle)
01:00020EBC ?_selectObject_region@gui_api@@SAXPBUhDC@gui_native@@PBUhandle@_builtIn@@PAI@Z  (Idle)
01:00020F28 ?selectObjectDeleteOld@gui_api@@SAXPBUhDC@gui_native@@PBUhandle@_builtIn@@@Z  (Idle)
01:00020F50 ?_createFontIndirect@gui_api@@SAXPAUlogfont_struct@gui_native@@AAUhFont@3@@Z  (Idle)
01:00020FA0 ?_createAcceleratorTable@gui_api@@SAXPAU?$__packedList_struct@PAUaccel_struct@gui_native@@@@AAUhandle@_builtIn@@@Z  (Idle)
01:0002102C ?fillAccelTable@gui_api@@SAXPAXPAU?$__packedList_struct@PAUaccel_struct@gui_native@@@@@Z 
01:00021074 ?_allocMsg@gui_api@@SAXPAPAUmsg_struct@gui_native@@@Z  (Idle)
01:00021098 ?_getMessage_update@gui_api@@SAXPAUmsg_struct@gui_native@@PAPAUboolean_struct@_builtIn@@@Z  (Idle)
01:000210BC ?_getMessage_update@gui_api@@SAXPAUmsg_struct@gui_native@@PBUhwnd@core@@PAPAUboolean_struct@_builtIn@@@Z  (Idle)
01:000210DC ?_getMessage_update@gui_api@@SAXPAUmsg_struct@gui_native@@PBUhwnd@core@@IIPAPAUboolean_struct@_builtIn@@@Z 
01:00021140 ?deleteDC@gui_api@@SAXPBUhDC@gui_native@@@Z  (Idle)
01:00021178 ?releaseDC@gui_api@@SAXPBUhwnd@core@@PBUhDC@gui_native@@@Z  (Idle)
01:0002118C ?_releaseDC_result@gui_api@@SAXPBUhwnd@core@@PBUhDC@gui_native@@PAPAUboolean_struct@_builtIn@@@Z  (Idle)
01:000211B0 ?_tryGetDC@gui_api@@SAXPBUhwnd@core@@AAUhDC@gui_native@@@Z  (Idle)
01:000211D0 ?_getDC@gui_api@@SAXPBUhwnd@core@@AAUhDC@gui_native@@@Z  (Idle)
01:00021248 ?_getMenu@gui_api@@SAXPBUhwnd@core@@AAUhMenu@gui_native@@@Z  (Idle)
01:000212C4 ?_tryGetMenu@gui_api@@SAXPBUhwnd@core@@AAUhMenu@gui_native@@@Z 
01:00021314 ?_getMenuItemCount@gui_api@@SAXPBUhMenu@gui_native@@AAUpositive@core@@@Z  (Idle)
01:00021388 ?_getMenuItemInfo_index@gui_api@@SAXPBUhMenu@gui_native@@PBUpositive@core@@PAPAUmenuItemInfo_struct@3@@Z  (Idle)
01:000213A4 ?_getMenuItemInfo_index@gui_api@@SAXPBUhMenu@gui_native@@PBUpositive@core@@IPAPAUmenuItemInfo_struct@3@@Z 
01:000213D8 ?_getMenuItemInfo_id@gui_api@@SAXPBUhMenu@gui_native@@IPAPAUmenuItemInfo_struct@3@@Z  (Idle)
01:000213F4 ?_getMenuItemInfo_id@gui_api@@SAXPBUhMenu@gui_native@@IIPAPAUmenuItemInfo_struct@3@@Z 
01:0002141C ?_getMenuItemInfo2@gui_api@@SAXPBUhMenu@gui_native@@IPBUbooleanInt@core@@IPAPAUmenuItemInfo_struct@3@@Z 
01:00021584 ?_getMenuItemString_index@gui_api@@SAXPBUhMenu@gui_native@@PBUpositive@core@@PAPB_W@Z  (Idle)
01:000215B0 ?_getMenuItemString_id@gui_api@@SAXPBUhMenu@gui_native@@IPAPB_W@Z  (Idle)
01:000215DC ?insertMenuItem_first@gui_api@@SAXPBUhMenu@gui_native@@PAUmenuItemInfo_struct@3@@Z  (Idle)
01:000215F8 ?insertMenuItem_last@gui_api@@SAXPBUhMenu@gui_native@@PAUmenuItemInfo_struct@3@@Z  (Idle)
01:00021614 ?insertMenuItem_beforeIndex@gui_api@@SAXPBUhMenu@gui_native@@PBUpositiveOptional@core@@PAUmenuItemInfo_struct@3@@Z 
01:0002163C ?insertMenuItem_beforeId@gui_api@@SAXPBUhMenu@gui_native@@IPAUmenuItemInfo_struct@3@@Z  (Idle)
01:00021658 ?insertMenuItem2@gui_api@@SAXPBUhMenu@gui_native@@IPBUbooleanInt@core@@PAUmenuItemInfo_struct@3@@Z 
01:000216B4 ?endMenu@gui_api@@SAXXZ  (Idle)
01:000216E8 ?_messageBox@gui_api@@SAXPBUhwnd@core@@PB_W1IPAH@Z  (Idle)
01:00021730 ?_messageBoxEx@gui_api@@SAXPBUhwnd@core@@PB_W1IPBUinteger16@3@PAH@Z  (Idle)
01:0002177C ?moveWindow@gui_api@@SAXPBUhwnd@core@@HHHHPAUboolean_struct@_builtIn@@@Z  (Idle)
01:000217D4 ?_mkW@gui_api@@SAXHAAUwParam@gui_native@@@Z  (Idle)
01:000217E4 ?_mkL@gui_api@@SAXHAAUlParam@gui_native@@@Z 
01:000217F4 ?_mkR@gui_api@@SAXHAAUlResult@gui_native@@@Z  (Idle)
01:00021804 ?_makeIntResource@gui_api@@SAXIPAPB_W@Z  (Idle)
01:00021828 ?isCtrlColorMsg@gui_api@@SAXI@Z  (Idle)
01:00021874 ?openClipboard@gui_api@@SAXPBUhwnd@core@@@Z  (Idle)
01:000218AC ?clipboardIsAvailable@gui_api@@SAXPBUhwnd@core@@@Z  (Idle)
01:000218D4 ?closeClipboard@gui_api@@SAXXZ  (Idle)
01:00021908 ?_getClipboardOwner@gui_api@@SAXAAUhwnd@core@@@Z  (Idle)
01:00021944 ?_setClipboardViewer@gui_api@@SAXPBUhwnd@core@@AAU23@@Z  (Idle)
01:00021980 ?_getClipboardViewer@gui_api@@SAXAAUhwnd@core@@@Z  (Idle)
01:000219BC ?_changeClipboardChain@gui_api@@SAXPBUhwnd@core@@0PAPAUboolean_struct@_builtIn@@@Z  (Idle)
01:000219E0 ?setClipboardData@gui_api@@SAXIPBUhandle@_builtIn@@@Z  (Idle)
01:00021A1C ?_getClipboardData@gui_api@@SAXIAAUhandle@_builtIn@@@Z  (Idle)
01:00021A58 ?_registerClipboardFormat@gui_api@@SAXPB_WPAI@Z  (Idle)
01:00021A94 ?_countClipboardFormats@gui_api@@SAXPAH@Z  (Idle)
01:00021AD0 ?_enumClipboardFormats@gui_api@@SAXIPAI@Z  (Idle)
01:00021B0C ?_getClipboardFormatName@gui_api@@SAXIPAPB_W@Z  (Idle)
01:00021B64 ?emptyClipboard@gui_api@@SAXXZ  (Idle)
01:00021B98 ?isClipboardFormatAvailable@gui_api@@SAXI@Z  (Idle)
01:00021BB4 ?_getPriorityClipboardFormat@gui_api@@SAXPAXHPAH@Z  (Idle)
01:00021BF4 ?_getOpenClipboardWindow@gui_api@@SAXAAUhwnd@core@@@Z  (Idle)
01:00021C30 ?destroyWindow@gui_api@@SAXPBUhwnd@core@@@Z  (Idle)
01:00021C68 ?_getText@gui_api@@SAXPBUhwnd@core@@PAPB_W@Z  (Idle)
01:00021CEC ?setText@gui_api@@SAXPBUhwnd@core@@PB_W@Z  (Idle)
01:00021D20 ?_getWindowRect@gui_api@@SAXPBUhwnd@core@@PAPAUrct_struct@vpiDomains@@@Z  (Idle)
01:00021D78 ?_loadImage_file@gui_api@@SAXPB_WIPBUpositive@core@@2IAAUhandle@_builtIn@@@Z  (Idle)
01:00021E00 ?_loadImage_oem@gui_api@@SAXPBUresid@vpiDomains@@IPBUpositive@core@@2IAAUhandle@_builtIn@@@Z  (Idle)
01:00021E64 ?_loadImage_resId@gui_api@@SAXPBUresid@vpiDomains@@IPBUpositive@core@@2IAAUhandle@_builtIn@@@Z  (Idle)
01:00021EE0 ?_loadImage_resId@gui_api@@SAXPBUhModule@core@@PBUresid@vpiDomains@@IPBUpositive@3@3IAAUhandle@_builtIn@@@Z  (Idle)
01:00021F40 ?_loadImage@gui_api@@SAXPBUhModule@core@@PB_WIPBUpositive@3@3IPAUvalue_struct@3@AAUhandle@_builtIn@@@Z 
01:00021FDC ?_getWindowThreadProcessId@gui_api@@SAXPBUhwnd@core@@AAUthreadID@multiThread_native@@@Z  (Idle)
01:00021FFC ?_getWindowThreadProcessId@gui_api@@SAXPBUhwnd@core@@AAUprocessID@multiThread_native@@AAUthreadID@5@@Z 
01:0002203C ?attachThreadInput@gui_api@@SAXIIPAUboolean_struct@_builtIn@@@Z  (Idle)
01:0002208C ?_setActiveWindow@gui_api@@SAXPBUhwnd@core@@AAU23@@Z  (Idle)
01:000220C8 ?rectangle@gui_api@@SAXPBUhDC@gui_native@@PAUrct_struct@vpiDomains@@@Z  (Idle)
01:0002210C ?rectangle@gui_api@@SAXPBUhDC@gui_native@@HHHH@Z 
01:00022150 ?angleArc@gui_api@@SAXPBUhDC@gui_native@@HHIPANPAN@Z  (Idle)
01:000221E4 ?arc@gui_api@@SAXPBUhDC@gui_native@@HHHHHHHH@Z  (Idle)
01:00022234 ?arcTo@gui_api@@SAXPBUhDC@gui_native@@HHHHHHHH@Z  (Idle)
01:00022284 ?_getArcDirection@gui_api@@SAXPBUhDC@gui_native@@PAH@Z  (Idle)
01:0002229C ?_setArcDirection@gui_api@@SAXPBUhDC@gui_native@@HPAH@Z  (Idle)
01:000222DC ?_moveTo@gui_api@@SAXPBUhDC@gui_native@@HHPAPAUpnt_struct@vpiDomains@@@Z  (Idle)
01:00022334 ?moveTo@gui_api@@SAXPBUhDC@gui_native@@HH@Z  (Idle)
01:00022374 ?lineTo@gui_api@@SAXPBUhDC@gui_native@@HH@Z  (Idle)
01:000223B4 ?polyBezier@gui_api@@SAXPBUhDC@gui_native@@PAU?$__packedList_struct@PAUpnt_struct@vpiDomains@@@@@Z  (Idle)
01:00022428 ?polyBezierTo@gui_api@@SAXPBUhDC@gui_native@@PAU?$__packedList_struct@PAUpnt_struct@vpiDomains@@@@@Z  (Idle)
01:0002249C ?polyDraw@gui_api@@SAXPBUhDC@gui_native@@PAU?$__packedList_struct@PAUpnt_struct@vpiDomains@@@@PAU?$__packedList_struct@PBUunsigned8@core@@@@@Z  (Idle)
01:00022594 ?polyline@gui_api@@SAXPBUhDC@gui_native@@PAU?$__packedList_struct@PAUpnt_struct@vpiDomains@@@@@Z  (Idle)
01:00022608 ?polylineTo@gui_api@@SAXPBUhDC@gui_native@@PAU?$__packedList_struct@PAUpnt_struct@vpiDomains@@@@@Z  (Idle)
01:0002267C ?polyPolyline@gui_api@@SAXPBUhDC@gui_native@@PAU?$__packedList_struct@PAUpnt_struct@vpiDomains@@@@PAU?$__packedList_struct@H@@@Z  (Idle)
01:00022718 ?chord@gui_api@@SAXPBUhDC@gui_native@@HHHHHHHH@Z  (Idle)
01:00022768 ?chord@gui_api@@SAXPBUhDC@gui_native@@PAUrct_struct@vpiDomains@@HHHH@Z  (Idle)
01:000227DC ?ellipse@gui_api@@SAXPBUhDC@gui_native@@HHHH@Z  (Idle)
01:00022820 ?ellipse@gui_api@@SAXPBUhDC@gui_native@@PAUrct_struct@vpiDomains@@@Z  (Idle)
01:00022864 ?fillRect@gui_api@@SAXPBUhDC@gui_native@@PAUrct_struct@vpiDomains@@PBUhBrush@3@@Z  (Idle)
01:0002290C ?fillRectSystemColor@gui_api@@SAXPBUhDC@gui_native@@PAUrct_struct@vpiDomains@@H@Z  (Idle)
01:000229B8 ?frameRect@gui_api@@SAXPBUhDC@gui_native@@PAUrct_struct@vpiDomains@@PBUhBrush@3@@Z  (Idle)
01:000229F8 ?invertRect@gui_api@@SAXPBUhDC@gui_native@@PAUrct_struct@vpiDomains@@@Z  (Idle)
01:00022A34 ?pie@gui_api@@SAXPBUhDC@gui_native@@PAUrct_struct@vpiDomains@@HHHH@Z  (Idle)
01:00022AA8 ?pie@gui_api@@SAXPBUhDC@gui_native@@HHHHHHHH@Z 
01:00022AF8 ?roundRect@gui_api@@SAXPBUhDC@gui_native@@PAUrct_struct@vpiDomains@@HH@Z  (Idle)
01:00022B54 ?roundRect@gui_api@@SAXPBUhDC@gui_native@@HHHHHH@Z 
01:00022BA0 ?drawFocusRect@gui_api@@SAXPBUhDC@gui_native@@PAUrct_struct@vpiDomains@@@Z  (Idle)
01:00022BDC ?polygon@gui_api@@SAXPBUhDC@gui_native@@PAU?$__packedList_struct@PAUpnt_struct@vpiDomains@@@@@Z  (Idle)
01:00022C50 ?polyPolygon@gui_api@@SAXPBUhDC@gui_native@@PAU?$__packedList_struct@PAU?$__packedList_struct@PAUpnt_struct@vpiDomains@@@@@@@Z  (Idle)
01:00022D68 ?_getROP2@gui_api@@SAXPBUhDC@gui_native@@PAI@Z  (Idle)
01:00022DA4 ?_setROP2@gui_api@@SAXPBUhDC@gui_native@@IPAI@Z  (Idle)
01:00022DE4 ?_setPixel@gui_api@@SAXPBUhDC@gui_native@@HHPBUcolor@vpiDomains@@AAU45@@Z  (Idle)
01:00022E04 ?trackMouseEvent@gui_api@@SAXPAUtrackMouseEvent_struct@gui_native@@@Z  (Idle)
01:00022E3C ?trackMouseHover@gui_api@@SAXPBUhwnd@core@@@Z  (Idle)
01:00022E74 ?trackMouseLeave@gui_api@@SAXPBUhwnd@core@@@Z  (Idle)
01:00022EAC ?setWindowPos@gui_api@@SAXPBUhwnd@core@@0HHHHI@Z  (Idle)
01:00022EF8 ?updateLayeredWindow@gui_api@@SAXPBUhwnd@core@@PBUhDC@gui_native@@PAUpnt_struct@vpiDomains@@PAUsize_struct@5@12PBUcolor@7@PAUblendFunction_struct@5@I@Z  (Idle)
01:00022F48 ?_getStockObject@gui_api@@SAXHAAUhandle@_builtIn@@@Z  (Idle)
01:00022FC0 ?_monitorFromPoint@gui_api@@SAXPAUpnt_struct@vpiDomains@@IAAUhMonitor@gui_native@@@Z  (Idle)
01:00022FE0 ?_monitorFromRect@gui_api@@SAXPAUrct_struct@vpiDomains@@IAAUhMonitor@gui_native@@@Z  (Idle)
01:00022FF8 ?_monitorFromWindow@gui_api@@SAXPBUhwnd@core@@IAAUhMonitor@gui_native@@@Z  (Idle)
01:00023010 ?_getMonitorInfo@gui_api@@SAXPBUhMonitor@gui_native@@PAPAUmonitorInfo_struct@1@@Z  (Idle)
01:00023134 ?_getDummy@gui_api@@SAXPAH@Z 
01:00023148 ?_mkKeyDown@gui_api@@SAXPBUunsigned16@core@@PAPAUinput_struct@gui_native@@@Z  (Idle)
01:00023178 ?_mkKeyUp@gui_api@@SAXPBUunsigned16@core@@PAPAUinput_struct@gui_native@@@Z  (Idle)
01:000231AC ?_mkKeyInputStructure@gui_api@@SAXPBUunsigned16@core@@0IIPBUlParam@gui_native@@PAPAUinput_struct@7@@Z 
01:00023240 ?sendinput/1np$1@gui_api@@SAXPAUsendinput/1np$1_struct@1@PAXPAUinput_struct@gui_native@@@Z 
01:0002325C ?sendInput@gui_api@@SAXPAU?$__packedList_struct@PAUinput_struct@gui_native@@@@@Z  (Idle)
01:00023374 ?_getMenuItemRect@gui_api@@SAXPBUhwnd@core@@PBUhMenu@gui_native@@PBUpositive@3@PAPAUrct_struct@vpiDomains@@@Z  (Idle)
01:000233D8 ?_setTimer@gui_api@@SAXPBUunsignedNative@_builtIn@@PBUpositive@core@@XAAU23@@Z  (Idle)
01:00023410 ?setTimer@gui_api@@SAXPBUhwnd@core@@PBUunsignedNative@_builtIn@@PBUpositive@3@X@Z  (Idle)
01:00023434 ?_setTimer@gui_api@@SAXPBUhwnd@core@@PBUunsignedNative@_builtIn@@PBUpositive@3@XAAU45@@Z 
01:00023480 ?killTimer@gui_api@@SAXPBUhwnd@core@@PBUunsignedNative@_builtIn@@@Z  (Idle)
01:000234BC ?_getIconInfo@gui_api@@SAXPBUhIcon@gui_native@@PAPAUiconInfo_struct@3@@Z  (Idle)
01:00023568 ?destroyIcon@gui_api@@SAXPBUhIcon@gui_native@@@Z  (Idle)
01:000235A0 ?_enableWindow@gui_api@@SAXPBUhwnd@core@@PAUboolean_struct@_builtIn@@PAPAU45@@Z  (Idle)
01:000235D8 ?tryTranslateAccelerator@gui_api@@SAXPBUhwnd@core@@PBUhandle@_builtIn@@PAUmsg_struct@gui_native@@@Z  (Idle)
01:000235F8 ?isDialogMessage@gui_api@@SAXPBUhwnd@core@@PAUmsg_struct@gui_native@@@Z  (Idle)
01:00023618 ?_tryGetNameOfMessage@gui_api@@SAXIPAPB_W@Z 
01:00023670 ?postMessage@gui_api@@SAXPBUhwnd@core@@IPBUwParam@gui_native@@PBUlParam@5@@Z  (Idle)
01:000236B0 ?_getObject_logfont@gui_api@@SAXPBUhFont@gui_native@@PAPAUlogfont_struct@3@@Z  (Idle)
01:000236DC ?_getObject@gui_api@@SAXQAVrTypeLibrary@TypeLibraries@RunTime@VIP@@PBUhandle@_builtIn@@PAX@Z 
01:00023750 ?showScrollBar@gui_api@@SAXPBUhwnd@core@@PBUscrollBar@gui_native@@PAUboolean_struct@_builtIn@@@Z  (Idle)
01:000237A0 ?_createPen@gui_api@@SAXHHPBUcolor@vpiDomains@@AAUhPen@gui_native@@@Z  (Idle)
01:000237E4 ?_createPalette@gui_api@@SAXPAUlogPalette_struct@gui_native@@AAUhPalette@3@@Z  (Idle)
01:00023820 ?_selectPalette@gui_api@@SAXPBUhDC@gui_native@@PBUhPalette@3@PAUboolean_struct@_builtIn@@AAU43@@Z  (Idle)
01:00023878 ?_realizePalette@gui_api@@SAXPBUhDC@gui_native@@PAI@Z  (Idle)
01:000238B8 ?_getTextFace@gui_api@@SAXPBUhDC@gui_native@@PAPB_W@Z  (Idle)
01:00023938 ?_drawText@gui_api@@SAXPBUhDC@gui_native@@PB_WPAUrct_struct@vpiDomains@@IPAH@Z  (Idle)
01:00023968 ?_drawText@gui_api@@SAXPBUhDC@gui_native@@PB_WPBUcharCountOptional@core@@PAUrct_struct@vpiDomains@@IPAH@Z 
01:000239B0 ?_selectClipRgn@gui_api@@SAXPBUhDC@gui_native@@PBUhRgn@3@PAH@Z  (Idle)
01:000239F0 ?_setBkColor@gui_api@@SAXPBUhDC@gui_native@@PBUcolor@vpiDomains@@AAU45@@Z  (Idle)
01:00023A30 ?_setBkMode@gui_api@@SAXPBUhDC@gui_native@@HPAH@Z  (Idle)
01:00023A70 ?_setTextColor@gui_api@@SAXPBUhDC@gui_native@@PBUcolor@vpiDomains@@AAU45@@Z  (Idle)
01:00023AB0 ?_getDlgItem@gui_api@@SAXPBUhwnd@core@@HAAU23@@Z  (Idle)
01:00023B80 ?_getForegroundWindow@gui_api@@SAXAAUhwnd@core@@@Z  (Idle)
01:00023B94 ?tryGetMessageUpdate@gui_api@@SAXPAUmsg_struct@gui_native@@PBUhwnd@core@@II@Z  (Idle)
01:00023BC8 ?_tryGetMessage@gui_api@@SAXPBUhwnd@core@@IIPAPAUmsg_struct@gui_native@@@Z  (Idle)
01:00023C08 gui_api_getParam 
01:00023C18 ?getInteger16@gui_api@@SAXPBUintegerNative@_builtIn@@AAUinteger16@core@@1@Z  (Idle)
01:00023C50 ?getInteger16@gui_api@@SAXPBUwParam@gui_native@@AAUinteger16@core@@1@Z  (Idle)
01:00023C88 ?getInteger16@gui_api@@SAXPBUlParam@gui_native@@AAUinteger16@core@@1@Z 
01:00023CC0 ?getInteger16@gui_api@@SAXPBUlResult@gui_native@@AAUinteger16@core@@1@Z  (Idle)
01:00023CF8 ?getUnsigned16@gui_api@@SAXPBUintegerNative@_builtIn@@AAUunsigned16@core@@1@Z 
01:00023D34 ?getUnsigned16@gui_api@@SAXPBUwParam@gui_native@@AAUunsigned16@core@@1@Z 
01:00023D70 ?getUnsigned16@gui_api@@SAXPBUlParam@gui_native@@AAUunsigned16@core@@1@Z 
01:00023DAC ?getUnsigned16@gui_api@@SAXPBUlResult@gui_native@@AAUunsigned16@core@@1@Z 
01:00023DE8 ?_createWindowEx@gui_api@@SAXIPBUatom@gui_native@@PB_WIHHHHPBUhwnd@core@@PBUhMenu@3@PBUhModule@5@PAXAAU45@@Z  (Idle)
01:00023EAC ?_createFontIndirect@gui_api@@SAXPBUfont@vpiDomains@@AAUhFont@gui_native@@@Z  (Idle)
01:00023EFC ?_mkW@gui_api@@SAXIAAUwParam@gui_native@@@Z 
01:00023F0C ?_mkL@gui_api@@SAXIAAUlParam@gui_native@@@Z 
01:00023F1C ?_mkR@gui_api@@SAXIAAUlResult@gui_native@@@Z  (Idle)
--- From 'Obj\locale_api.2E000328.obj'
01:00023F30 ?_makeLangId@locale_api@@SAXIIPAI@Z  (Idle)
01:00023F54 ?_primaryLangId@locale_api@@SAXIPAI@Z  (Idle)
01:00023F70 ?_subLangId@locale_api@@SAXIPAI@Z  (Idle)
01:00023F8C ?_makeLcId@locale_api@@SAXIIAAUlcId@locale_native@@@Z  (Idle)
01:00023FB0 ?_makeSortLcId@locale_api@@SAXIIIPAI@Z  (Idle)
01:00023FF8 ?_langIdFromLcId@locale_api@@SAXIPAI@Z  (Idle)
01:00024014 ?_sortIdFromLcId@locale_api@@SAXIPAI@Z  (Idle)
01:0002403C ?_sortVersionFromLcId@locale_api@@SAXIPAI@Z  (Idle)
01:00024058 ?_getNumberFormat@locale_api@@SAXPB_WPAPB_W@Z  (Idle)
01:0002407C ?_getNumberFormat@locale_api@@SAXPB_WPBUlcId@locale_native@@PAPB_W@Z 
01:00024098 ?_getNumberFormat@locale_api@@SAXPB_WPBUlcId@locale_native@@PAUnumberfmt_struct@3@PAPB_W@Z 
01:000240F0 ?_getLocaleInfo_integer@locale_api@@SAXPBUlcType@locale_native@@PAH@Z  (Idle)
01:00024114 ?_getLocaleInfo_integer@locale_api@@SAXPBUlcType@locale_native@@PBUlcId@3@PAH@Z 
01:00024140 ?_getLocaleInfo_string@locale_api@@SAXPBUlcType@locale_native@@PAPB_W@Z  (Idle)
01:00024164 ?_getLocaleInfo_string@locale_api@@SAXPBUlcType@locale_native@@PBUlcId@3@PAPB_W@Z 
--- From 'Obj\memory_api.EF10D306.obj'
01:000241C0 ?globalMemoryStatusEx@memory_api@@SAXPAIPAPA_K111111@Z  (Idle)
01:00024310 ?_alloc_memoryStatusEx@memory_api@@SAXIPAPAUmemoryStatusEx_struct@memory_native@@@Z 
01:00024384 ?_globalAlloc@memory_api@@SAXIPBUbyteCount@core@@AAUhGlobal@windowsAPI@@@Z  (Idle)
01:000243C8 ?globalFree@memory_api@@SAXPBUhGlobal@windowsAPI@@@Z  (Idle)
01:00024400 ?_globalLock@memory_api@@SAXPBUhGlobal@windowsAPI@@PAPAX@Z  (Idle)
01:0002443C ?globalUnlock@memory_api@@SAXPBUhGlobal@windowsAPI@@@Z  (Idle)
01:00024458 ?_globalUnlock@memory_api@@SAXPBUhGlobal@windowsAPI@@PAPAUboolean_struct@_builtIn@@@Z 
01:000244A0 ?_globalSize@memory_api@@SAXPBUhGlobal@windowsAPI@@AAUbyteCount@core@@@Z  (Idle)
01:000244F4 ?_mkGlobal_string@memory_api@@SAXPB_WAAUhGlobal@windowsAPI@@@Z  (Idle)
01:0002454C ?_getGlobal_string@memory_api@@SAXPBUhGlobal@windowsAPI@@PAPB_W@Z  (Idle)
01:00024640 ?_mkGlobal_string8@memory_api@@SAXPADAAUhGlobal@windowsAPI@@@Z  (Idle)
01:00024688 ?_getglobal_string8/1nf$1@memory_api@@SAXPAXPBUbyteCount@core@@PAPAD@Z 
01:0002469C ?_getGlobal_string8@memory_api@@SAXPBUhGlobal@windowsAPI@@PAPAD@Z  (Idle)
01:000246D0 ?_mkGlobal_binary@memory_api@@SAXQAEAAUhGlobal@windowsAPI@@@Z  (Idle)
01:0002470C ?_getGlobal_binary@memory_api@@SAXPBUhGlobal@windowsAPI@@QAPAE@Z  (Idle)
01:00024740 ?_mkGlobal_pointer@memory_api@@SAXPAXPBUbyteCount@core@@AAUhGlobal@windowsAPI@@@Z 
01:000247E0 ?_getGlobal_pointer@memory_api@@SAXQAVrTypeLibrary@TypeLibraries@RunTime@VIP@@PBUhGlobal@windowsAPI@@PA$?_function$3@core@@SAXPAXPBUbyteCount@1@PAX@Z$PAX@Z 
--- From 'Obj\shell_api.E8D4E14B.obj'
01:00024884 ?localFree@memory_api@@SAXQAVrTypeLibrary@TypeLibraries@RunTime@VIP@@X@Z 
--- From 'Obj\memory_api.EF10D306.obj'
01:000248BC ?_getProcessMemoryInfo@memory_api@@SAXPBUprocessHandle@windowsAPI@@PAPAUprocess_memory_counters_struct@memory_native@@@Z  (Idle)
--- From 'Obj\multithread_api.57E3A62D.obj'
01:00024930 _GetThreadDescriptionW@8  (Idle)
01:00024954 _SetThreadDescriptionW@8  (Idle)
01:00024978 _Wow64GetThreadSelectorEntry@12 
01:0002499C _GetThreadId@4  (Idle)
01:000249C0 ?_createEvent@multiThread_api@@SAXPB_WPAUboolean_struct@_builtIn@@1AAUsyncHandle@windowsAPI@@@Z  (Idle)
01:00024AF4 ?_createOrOpenEvent@multiThread_api@@SAXPB_WPAUboolean_struct@_builtIn@@1AAUsyncHandle@windowsAPI@@@Z  (Idle)
01:00024C08 ?_openEvent@multiThread_api@@SAXPB_WIAAUsyncHandle@windowsAPI@@@Z  (Idle)
01:00024C58 ?_openEvent@multiThread_api@@SAXPB_WAAUsyncHandle@windowsAPI@@@Z  (Idle)
01:00024C74 ?invokeNative_explicit@multiThread_api@@SAXPAUprogramPoint_struct@core@@PBUsyncHandle@windowsAPI@@X@Z  (Idle)
01:00024D08 ?setEvent@multiThread_api@@SAXPBUsyncHandle@windowsAPI@@@Z  (Idle)
01:00024D38 ?resetEvent@multiThread_api@@SAXPBUsyncHandle@windowsAPI@@@Z  (Idle)
01:00024D68 ?pulseEvent@multiThread_api@@SAXPBUsyncHandle@windowsAPI@@@Z  (Idle)
01:00024D98 ?_createMutex@multiThread_api@@SAXPB_WPAUboolean_struct@_builtIn@@AAUsyncHandle@windowsAPI@@@Z  (Idle)
01:00024E50 ?_openMutex@multiThread_api@@SAXPB_WAAUsyncHandle@windowsAPI@@@Z  (Idle)
01:00024EA0 ?releaseMutex@multiThread_api@@SAXPBUsyncHandle@windowsAPI@@@Z  (Idle)
01:00024ED0 ?_createSemaphore@multiThread_api@@SAXPB_WIIAAUsyncHandle@windowsAPI@@@Z  (Idle)
01:00024FFC ?_openSemaphore@multiThread_api@@SAXPB_WAAUsyncHandle@windowsAPI@@@Z  (Idle)
01:0002504C ?_releaseSemaphore@multiThread_api@@SAXPBUsyncHandle@windowsAPI@@IPAI@Z  (Idle)
01:00025138 ?_createWaitableTimer@multiThread_api@@SAXPB_WPAUboolean_struct@_builtIn@@AAUsyncHandle@windowsAPI@@@Z  (Idle)
01:00025210 ?_openWaitableTimer@multiThread_api@@SAXPB_WAAUsyncHandle@windowsAPI@@@Z  (Idle)
01:00025260 ?setWaitableTimer@multiThread_api@@SAXPBUsyncHandle@windowsAPI@@PAPBUdurationValue@core@@HPAUboolean_struct@_builtIn@@@Z  (Idle)
01:00025280 ?setWaitableTimer@multiThread_api@@SAXPBUsyncHandle@windowsAPI@@PAPBUdurationValue@core@@HXPAXPAUboolean_struct@_builtIn@@@Z 
01:0002542C ?cancelWaitableTimer@multiThread_api@@SAXPBUsyncHandle@windowsAPI@@@Z  (Idle)
--- From 'Obj\runtime_api.B1A642EC.obj'
01:0002545C ?isWow64Process@multiThread_api@@SAXPBUprocessHandle@windowsAPI@@@Z 
--- From 'Obj\multithread_api.57E3A62D.obj'
01:000254B0 ?mkwow64processfunc/0nf$1@multiThread_api@@SAXPBUprocessHandle@windowsAPI@@@Z 
01:000254BC ?mkwow64processfunc/0nf$2@multiThread_api@@SAXPAUmkwow64processfunc/0nf$2_struct@1@PBUprocessHandle@windowsAPI@@@Z 
01:000254F0 ?_mkWow64ProcessFunc@multiThread_api@@SAXPAPA$?predicate_dt$1@core@@SAXPBUprocessHandle@windowsAPI@@@Z$@Z  (Idle)
01:0002556C ?_handlingNullString@multiThread_api@@SAXPB_WPAPAUnamedValue_struct@core@@PAPAUvalue_struct@3@@Z  (Idle)
01:00025608 ?checkHandle_explicit@multiThread_api@@SAXPAUprogramPoint_struct@core@@PBUsyncHandle@windowsAPI@@PB_W2PAU?$__packedList_struct@PAUnamedValue_struct@3@PAUvalue_struct@3@@@@Z 
01:00025660 ?checkAlreadyExist_explicit@multiThread_api@@SAXPAUprogramPoint_struct@core@@PBUhandle@_builtIn@@PB_W@Z 
01:000256E4 ?getThreadContext@multiThread_api@@SAXPBUthreadHandle@multiThread_native@@PAX@Z  (Idle)
01:00025778 ?setThreadContext@multiThread_api@@SAXPBUthreadHandle@multiThread_native@@PAX@Z  (Idle)
01:0002580C ?_getThreadSelectorEntry@multiThread_api@@SAXPBUthreadHandle@multiThread_native@@IPAPAUselectorEntry_struct@3@@Z  (Idle)
01:00025910 ?_wow64GetThreadSelectorEntry@multiThread_api@@SAXPBUthreadHandle@multiThread_native@@IPAPAUselectorEntry_struct@3@@Z  (Idle)
01:00025A14 ?_mkInheritable@multiThread_api@@SAXPBUhandle@_builtIn@@AAU23@@Z  (Idle)
01:00025A30 ?_mkInheritable@multiThread_api@@SAXPBUhandle@_builtIn@@PAUboolean_struct@3@AAU23@@Z 
01:00025A6C ?setProcessAffinityMask@multiThread_api@@SAXPBUunsignedNative@_builtIn@@@Z  (Idle)
01:00025A84 ?setProcessAffinityMask@multiThread_api@@SAXPBUunsignedNative@_builtIn@@PBUprocessHandle@windowsAPI@@@Z 
01:00025AC0 ?_queryProcessCycleTime@multiThread_api@@SAXPAPA_K@Z  (Idle)
01:00025AE4 ?_queryProcessCycleTime@multiThread_api@@SAXPBUprocessHandle@windowsAPI@@PAPA_K@Z 
01:00025B30 ?_tlsAlloc@multiThread_api@@SAXAAUtlsIndex@multiThread_native@@@Z  (Idle)
01:00025B6C ?tlsFree@multiThread_api@@SAXPBUtlsIndex@multiThread_native@@@Z  (Idle)
01:00025BA4 ?_tlsGetValue@multiThread_api@@SAXPBUtlsIndex@multiThread_native@@PAPAX@Z  (Idle)
01:00025BE4 ?tlsSetValue@multiThread_api@@SAXPBUtlsIndex@multiThread_native@@PAX@Z  (Idle)
01:00025C20 ?_interlockedCompareExchangePointer@multiThread_api@@SAXQAVrTypeLibrary@TypeLibraries@RunTime@VIP@@PAUpointerTo_struct@memory@@XXXPAX@Z  (Idle)
01:00025C44 ?_interlockedExchangePointer@multiThread_api@@SAXQAVrTypeLibrary@TypeLibraries@RunTime@VIP@@PAUpointerTo_struct@memory@@XXPAX@Z  (Idle)
01:00025C68 ?__lateFactInit$iswow64process_fact$1$multiThread_api@classDB@1@SAXPAPA$?predicate_dt$1@core@@SAXPBUprocessHandle@windowsAPI@@@Z$@Z 
--- From 'Obj\registry_api.CF388C66.obj'
01:00025C70 ?_regOpenKeyEx@registry_api@@SAXPBUhKey@registry_native@@PB_WPBUregsAM@3@AAU23@@Z 
01:00025CB4 ?_regTryOpenKeyEx@registry_api@@SAXPBUhKey@registry_native@@PB_WPBUregsAM@3@AAU23@@Z 
01:00025CDC ?regCloseKey@registry_api@@SAXPBUhKey@registry_native@@@Z 
01:00025D68 ?_regCreateKeyEx@registry_api@@SAXPBUhKey@registry_native@@PB_WIPBUregsAM@3@PAUsecurityAttr_struct@3@PAIAAU23@@Z 
01:00025DB0 ?regDeleteKey@registry_api@@SAXPBUhKey@registry_native@@PB_W@Z 
01:00025DEC ?regDeleteKeyEx@registry_api@@SAXPBUhKey@registry_native@@PB_WPBUregsAM@3@@Z 
01:00025E2C ?_regEnumKeyEx@registry_api@@SAXPBUhKey@registry_native@@PAPAU?$__packedList_struct@PAPB_W@@@Z 
01:00025EC4 ?_regEnumKeyEx1@registry_api@@SAXPBUhKey@registry_native@@IPB_WPBUcharCount@core@@PAPAU?$__packedList_struct@PAPB_W@@@Z 
01:00025F3C ?_tryRegEnumKeyExOne@registry_api@@SAXPBUhKey@registry_native@@IPB_WPBUcharCount@core@@PAPB_W@Z 
01:0002607C ?regSetValueEx@registry_api@@SAXPBUhKey@registry_native@@PB_WPAUvalue_struct@core@@@Z 
01:000260EC ?_regQueryValueEx@registry_api@@SAXPBUhKey@registry_native@@PB_WPAPAUvalue_struct@core@@@Z 
01:00026150 ?_regTryQueryValueEx@registry_api@@SAXPBUhKey@registry_native@@PB_WPAPAUvalue_struct@core@@@Z 
01:000261A4 ?_regQueryValueEx1@registry_api@@SAXPBUhKey@registry_native@@PB_WPAUpByteCount_struct@memory@@PAPAUvalue_struct@core@@@Z 
01:00026238 ?regDeleteValue@registry_api@@SAXPBUhKey@registry_native@@PB_W@Z  (Idle)
01:0002626C ?regDeleteValueIfExist@registry_api@@SAXPBUhKey@registry_native@@PB_W@Z 
01:000262AC ?_regEnumValue@registry_api@@SAXPBUhKey@registry_native@@PAPAU?$__packedList_struct@PAPAUnamedValue_struct@core@@PAPAUvalue_struct@5@@@@Z 
01:000262EC ?_regEnumValue1@registry_api@@SAXPBUhKey@registry_native@@IPB_WPBUcharCount@core@@PAPAU?$__packedList_struct@PAPAUnamedValue_struct@5@PAPAUvalue_struct@5@@@@Z 
01:00026364 ?_tryRegEnumValueOne@registry_api@@SAXPBUhKey@registry_native@@IPB_WPBUcharCount@core@@PAPAUnamedValue_struct@5@PAPAUvalue_struct@5@@Z 
01:000266DC ?_packValue@registry_api@@SAXIPAXPBUbyteCount@core@@PAPAUvalue_struct@3@@Z 
01:000269A8 ?unpackValue@registry_api@@SAXPAUvalue_struct@core@@PAIPAPAXAAUbyteCount@3@@Z 
01:00026DD0 ?_convertToStringList@registry_api@@SAXPAXPBUbyteCount@core@@PAPAU?$__packedList_struct@PAPB_W@@@Z 
01:00026E90 ?check_name_value@registry_api@@SAXPBUhResult@core@@PB_W1PAUvalue_struct@3@@Z 
01:00026F44 ?check_name@registry_api@@SAXPBUhResult@core@@PB_W1@Z 
--- From 'Obj\exception.B6F320E8.obj'
01:00026FD0 ?getOSVersionShort@runtime_api@@SAXQAVoutputStream@@@@Z 
--- From 'Obj\runtime_api.B1A642EC.obj'
01:00027100 ?getOSVersion@runtime_api@@SAXQAVoutputStream@@@@Z  (Idle)
01:000271BC ?_getSysInfoStr@runtime_api@@SAXPAPB_W@Z 
01:00027240 ?_getNativeSysInfo@runtime_api@@SAXPAPB_W@Z 
01:000272C4 ?_getRegInfo@runtime_api@@SAXPAPB_W@Z 
01:00027368 ?_getRegInfoK@runtime_api@@SAXPB_WPAPB_W@Z 
01:000273D4 ?_printString@runtime_api@@SAXPAUvalue_struct@core@@PAPB_W@Z 
--- From 'Obj\shell_api.E8D4E14B.obj'
01:00027440 ?shellOpen@shell_api@@SAXPB_W@Z  (Idle)
01:00027464 ?shellRun@shell_api@@SAXPB_W@Z  (Idle)
01:00027488 ?shellExecute@shell_api@@SAXPBUhwnd@core@@PB_W1@Z 
01:000274A0 ?shellExecute@shell_api@@SAXPBUhwnd@core@@PB_W11@Z 
01:000274B8 ?shellExecute@shell_api@@SAXPBUhwnd@core@@PB_W111@Z 
01:000274D0 ?shellExecute@shell_api@@SAXPBUhwnd@core@@PB_W111H@Z 
01:00027558 ?shellExecuteEx@shell_api@@SAXPAUshellExecuteInfo_struct@shell_native@@@Z  (Idle)
01:00027590 ?_shellExecuteErrorDescription@shell_api@@SAXIPAPB_W@Z 
01:000276CC ?_sHCreateStreamOnFileEx@shell_api@@SAXPB_WIPAPAViStream_native@@@@Z  (Idle)
01:000276EC ?_sHCreateStreamOnFileEx@shell_api@@SAXPB_WIIPAUboolean_struct@_builtIn@@PAPAViStream_native@@@@Z 
01:00027740 ?_commandLineToArgv@shell_api@@SAXPB_WPAPAU?$__packedList_struct@PAPB_W@@@Z  (Idle)
--- From 'Obj\filesystem.5B0F823E.obj'
01:00027820 ?toWideChar@string8_api@@SAXPBUcodePage@core@@PADPBUbyteCountOptional@3@PB_WPBUcharCount@3@@Z 
01:00027870 ?_lenWideChar@string8_api@@SAXPBUcodePage@core@@PADPBUbyteCountOptional@3@AAUcharCount@3@@Z 
01:000278E0 ?toMultiByte@string8_api@@SAXPBUcodePage@core@@PB_WPBUcharCountOptional@3@PADPBUbyteCount@3@@Z 
01:00027934 ?_lenMultiByte@string8_api@@SAXPBUcodePage@core@@PB_WPBUcharCountOptional@3@AAUbyteCount@3@@Z 
--- From 'Obj\string8_api.53D65538.obj'
01:000279A8 ?_charNextExA@string8_api@@SAXPBUcodePage@core@@PADPAPAD@Z 
--- From 'Obj\systeminformation_api.809129C1.obj'
01:000279D0 ?getVersionEx@systemInformation_api@@SAXPAIPAIPAIPAIPAPB_WAAUunsigned16@core@@55AAUunsigned8@3@@Z 
01:00027B0C ?_allocWithSize@systemInformation_api@@SAXPBUbyteCount@core@@PAPAX@Z 
01:00027B38 ?systemInfo@systemInformation_api@@SGPAUsystem_Info_struct@systemInformation_native@@XZ 
01:00027B6C ?nativeSystemInfo@systemInformation_api@@SGPAUsystem_Info_struct@systemInformation_native@@XZ 
01:00027BA0 ?isWindows64@systemInformation_api@@SAXXZ  (Idle)
01:00027BC4 ?_getUserName@systemInformation_api@@SAXPAPB_W@Z  (Idle)
01:00027C48 ?_getUserNameEx@systemInformation_api@@SAXPBUuserNameFormat@systemInformation_native@@PAPB_W@Z  (Idle)
01:00027CC0 ?_getComputerName@systemInformation_api@@SAXPAPB_W@Z  (Idle)
01:00027D44 ?_getComputerNameEx@systemInformation_api@@SAXPBUcomputerNameFormat@systemInformation_native@@PAPB_W@Z  (Idle)
01:00027DBC ?systemParametersInfo@systemInformation_api@@SAXIIPAXI@Z  (Idle)
01:00027DFC ?systemParametersInfo_outInt@systemInformation_api@@SAXIIPAHI@Z  (Idle)
01:00027E3C ?_getNonclientMetrics@systemInformation_api@@SAXPAPAUnonclientMetrics_struct@systemInformation_native@@@Z  (Idle)
01:00027E78 ?_getNonclientMetricsXP@systemInformation_api@@SAXPAPAUnonclientMetricsXP_struct@systemInformation_native@@@Z  (Idle)
--- From 'Obj\filesystem.5B0F823E.obj'
01:00027EB4 ?majorOSversion@systemInformation_api@@SGIXZ 
--- From 'Obj\time_api.32F5932A.obj'
01:00027F10 ?_presenter_fileTime@time_native@@SAXPAUfileTime_struct@1@PAPAUpresentation_struct@presenter@@@Z 
01:00027F38 _GetTickCount64@0 
01:00027F5C _QueryUnbiasedInterruptTime@4 
--- From 'Obj\exceptiondump.2B9C9E40.obj'
01:00027F80 ?_getSystemTimeAsFileTime@time_api@@SAXPAAAUgmtTimeValue@core@@@Z 
--- From 'Obj\time_api.32F5932A.obj'
01:00027FC0 ?_gmtTimeToSystemTime@time_api@@SAXPAPBUgmtTimeValue@core@@PAPAUsystemTime_struct@time_native@@@Z 
01:00028078 ?_systemTimeToGmtTime@time_api@@SAXPAUsystemTime_struct@time_native@@PAAAUgmtTimeValue@core@@@Z  (Idle)
--- From 'Obj\exception.B6F320E8.obj'
01:000283D0 ?_localTimeToSystemTime@time_api@@SAXPAPBUlocalTimeValue@core@@PAPAUsystemTime_struct@time_native@@@Z 
--- From 'Obj\time_api.32F5932A.obj'
01:00028414 ?_systemTimeToLocalTime@time_api@@SAXPAUsystemTime_struct@time_native@@PAAAUlocalTimeValue@core@@@Z 
01:00028454 ?_getTimeZoneNames@time_api@@SAXPAPAU?$__packedList_struct@PAPB_W@@@Z 
01:00028478 ?_getTimeZoneInformation@time_api@@SAXPAPAUtimeZoneAPI_struct@time_native@@@Z 
01:000284C8 ?_getTimeZoneInformation@time_api@@SAXPB_WPAPAUtimeZoneAPI_struct@time_native@@@Z 
01:00028784 ?_systemTimeToTzSpecificLocalTimeEx@time_api@@SAXPAUtimeZoneAPI_struct@time_native@@PAUsystemTime_struct@3@PAPAU43@@Z  (Idle)
01:000287AC ?_tzSpecificLocalTimeToSystemTimeEx@time_api@@SAXPAUtimeZoneAPI_struct@time_native@@PAUsystemTime_struct@3@PAPAU43@@Z  (Idle)
01:000287D4 ?_systemTimeToTzSpecificLocalTime@time_api@@SAXPAUtime_zone_information_struct@time_native@@PAUsystemTime_struct@3@PAPAU43@@Z 
01:000288F8 ?_tzSpecificLocalTimeToSystemTime@time_api@@SAXPAUtime_zone_information_struct@time_native@@PAUsystemTime_struct@3@PAPAU43@@Z 
01:00028A1C ?isDaylightTime@time_api@@SAXPAUtimeZoneAPI_struct@time_native@@PAPBUgmtTimeValue@core@@@Z 
01:00028B64 ?_getTimeZoneInformation_systemTime@time_api@@SAXPAUsystemTime_struct@time_native@@PAUtimeZoneAPI_struct@3@PAPAUtime_zone_information_struct@3@@Z 
01:00028B7C ?_gettimezoneinformationforyear/2nf$1@time_api@@SAXPAUgettimezoneinformationforyear/2nf$1_struct@1@PAPAUtime_zone_information_struct@time_native@@@Z 
01:00028BE4 ?_getTimeZoneInformationForYear@time_api@@SAXPBUunsigned16@core@@PAUtimeZoneAPI_struct@time_native@@PAPAUtime_zone_information_struct@5@@Z 
--- From 'Obj\exception.B6F320E8.obj'
01:00028C90 ?_gmtTimeToLocalTime@time_api@@SAXPAPBUgmtTimeValue@core@@PAAAUlocalTimeValue@3@@Z 
--- From 'Obj\time_api.32F5932A.obj'
01:00028CC0 ?_gmtTimeToLocalTime@time_api@@SAXPAPBUgmtTimeValue@core@@PAUtimeZoneAPI_struct@time_native@@PAAAUlocalTimeValue@3@@Z 
01:00028DC4 ?_localTimeToGmtTime@time_api@@SAXPAPBUlocalTimeValue@core@@PAAAUgmtTimeValue@3@@Z  (Idle)
01:00028DF4 ?_localTimeToGmtTime@time_api@@SAXPAPBUlocalTimeValue@core@@PAUtimeZoneAPI_struct@time_native@@PAAAUgmtTimeValue@3@@Z 
01:00028EF8 ?_getTimeZoneOffset@time_api@@SAXPAPBUgmtTimeValue@core@@PAPBUlocalTimeValue@3@PAH@Z 
01:00028FD8 ?_gmtTimeToFileTime@time_api@@SAXPAPBUgmtTimeValue@core@@PAPAUfileTime_struct@time_native@@@Z 
--- From 'Obj\filesystem.5B0F823E.obj'
01:00028FFC ?_fileTimeToGmtTime@time_api@@SAXPAUfileTime_struct@time_native@@PAAAUgmtTimeValue@core@@@Z 
--- From 'Obj\time_api.32F5932A.obj'
01:00029008 ?_formatDate@time_api@@SAXPAPBUlocalTimeValue@core@@PB_WPBUlcId@locale_native@@PAPB_W@Z  (Idle)
01:00029054 ?_formatTime@time_api@@SAXPAPBUlocalTimeValue@core@@PB_WPBUlcId@locale_native@@PAPB_W@Z  (Idle)
--- From 'Obj\exception.B6F320E8.obj'
01:000290A0 ?_getDateFormat@time_api@@SAXPBUlcId@locale_native@@IPAUsystemTime_struct@time_native@@PB_WPAPB_W@Z 
01:000291D4 ?_getTimeFormat@time_api@@SAXPBUlcId@locale_native@@IPAUsystemTime_struct@time_native@@PB_WPAPB_W@Z 
--- From 'Obj\time_api.32F5932A.obj'
01:00029308 ?_getLocaleInfo_string@time_api@@SAXPBUlcId@locale_native@@PBUlcType@3@PAPB_W@Z 
01:0002938C ?_getLocaleInfo_integer@time_api@@SAXPBUlcId@locale_native@@PBUlcType@3@PAH@Z 
01:000293DC ?_getFirstDayOfWeek@time_api@@SAXPBUlcId@locale_native@@PAH@Z 
01:000293F8 ?_fromUnixTime@time_api@@SAXIPAAAUgmtTimeValue@core@@@Z  (Idle)
01:00029458 ?_toUnixTime@time_api@@SAXPAPBUgmtTimeValue@core@@PAI@Z  (Idle)
01:000294F4 ?raise_cannotGetDateTimeFormat_explicit@time_api@@SAXPAUprogramPoint_struct@core@@IIIIIIIIIIPB_WPBUhResult@3@@Z 
01:00029904 ?raise_cannotGetLocaleInfo_explicit@time_api@@SAXPAUprogramPoint_struct@core@@PBUlcId@locale_native@@IPBUhResult@3@@Z 
01:00029A20 ?_getLastInputTick@time_api@@SAXPAI@Z  (Idle)
01:00029A78 ?isSessionIdle@time_api@@SAXXZ  (Idle)
01:00029A8C ?isSessionIdle@time_api@@SAXI@Z 
01:00029AC8 ?_fromUnixTime@time_api@@SAXIPAAAUlocalTimeValue@core@@@Z  (Idle)
01:00029B28 ?_toUnixTime@time_api@@SAXPAPBUlocalTimeValue@core@@PAI@Z  (Idle)
01:00029BC4 ?__lateFactInit$timezoneinfocache$0$time_api@classDB@1@SAXPAPAVmapM@@@PAPAUtuple_struct@core@@AAUunsigned16@4@PAPAUtimeZoneAPI_struct@time_native@@PAPAUtime_zone_information_struct@8@@Z 
--- From 'Obj\windowsapi.FC171F8F.obj'
01:00029BF0 ?_toMsStringSeq@windowsAPI@@SAXPAU?$__packedList_struct@PB_W@@AAUmsStringSeq@1@@Z  (Idle)
01:00029C38 ?_totalLength@windowsAPI@@SAXPAU?$__packedList_struct@PB_W@@PBUcharCount@core@@AAU23@@Z 
01:00029CA4 ?fill@windowsAPI@@SAXPAU?$__packedList_struct@PB_W@@PBUmsStringSeq@1@@Z 
01:00029D48 ?_fromMsStringSeq@windowsAPI@@SAXPBUmsStringSeq@1@PAPAU?$__packedList_struct@PAPB_W@@@Z  (Idle)
01:00029DC0 ?_getString_nd@windowsAPI@@SAXPBUmsStringSeq@1@PAPB_W@Z 
--- From 'Obj\winerrors.9B153E38.obj'
01:00029E90 ?_getFacility@winErrors@@SAXPBUhResult@core@@PAI@Z  (Idle)
--- From '..\..\..\_intermediate\sourceVS\vipInit\Win32\ReleasePE\VIPDll.obj'
01:00029ED0 _PROLOG_Goal 
--- From 'Obj\main.789E136F.obj'
01:00029EEC ?start@contain@@SAXPAU?$__packedList_struct@_W@@0@Z  (Idle)
01:00029F98 ?getLength@contain@@SAXPAU?$__packedList_struct@_W@@PAH@Z  (Idle)
01:00029FD4 ?divide@contain@@SAXPAU?$__packedList_struct@_W@@0PAH@Z 
01:0002A090 ?run@main@@SAXXZ 
--- From 'Obj\console.E8EB4F3C.obj'
01:0002A0C0 ?run@mainExe@@SAXXPAUrunMode_struct@exe_api@@@Z 
--- From 'Obj\exe.D80FC844.obj'
01:0002A0D4 ?run@mainExe@@SAXX@Z 
01:0002A168 ?runCallback@mainExe@@SAXX@Z 
01:0002A17C ?runCallback@mainExe@@SAXXPAUrunMode_struct@exe_api@@@Z 
01:0002A1E0 ?_getCommandLine@mainExe@@SAXPAPB_W@Z  (Idle)
01:0002A250 ?_parseCommandLine@mainExe@@SAXPB_W_W0PAPB_W@Z 
01:0002A320 ?_getPosition@mainExe@@SAXPB_W_WAAUcharCount@core@@@Z 
01:0002A364 ?getFilename@mainExe@@SAXPAPB_W0@Z  (Idle)
01:0002A3A0 ?_getFilename@mainExe@@SAXPAPB_W@Z 
01:0002A3BC ?_getCurrentHinstance@mainExe@@SAXAAUhModule@core@@@Z 
01:0002A3D0 ?runMode@mainExe@@SGPAUrunMode_struct@exe_api@@XZ  (Idle)
01:0002A3D8 ?exceptionDumper@mainExe@@SGXX@Z  (Idle)
01:0002A3E4 ?exceptionDumper@mainExe@@SGXXZ  (Idle)
--- From 'Obj\iterator.60C55021.obj'
01:0002A3F0 ?new$@iterator@@SAXQAV1@@XQAVrTypeLibrary@TypeLibraries@RunTime@VIP@@PA$?_function_dt$1@core@@SAXPAX@Z$@Z 
01:0002A404 ?new$@iterator@@SAXQAV1@@XQAVrTypeLibrary@TypeLibraries@RunTime@VIP@@PA$?_function_dt$1@core@@SAXPAX@Z$X@Z  (Idle)
01:0002A428 ?_list/1np$1@iterator@@SAXPAUlist/1np$1_struct@1/1@PAX@Z 
01:0002A490 ?list$@iterator@@SAXQAV1@@XQAVrTypeLibrary@TypeLibraries@RunTime@VIP@@PAU?$__packedList_struct@X@@@Z  (Idle)
01:0002A504 ?_tryGetNext$@iterator@@SAXQAV1@@XPAX@Z 
01:0002A578 ?_getAll_nd$@iterator@@SAXQAV1@@XPAX@Z 
01:0002A5B0 ?_getAsList$@iterator@@SAXQAV1@@XPAPAU?$__packedList_struct@PAX@@@Z 
01:0002A61C ?close/1np$1@iterator@@SAXPAUclose/1np$1_struct@1/1@@Z 
01:0002A64C ?close@iterator@@SGXQAV1@@XX@Z 
01:0002A690 ?close@iterator@@SGXQAV1@@X@Z 
01:0002A69C ?finalize$@iterator@@SGXQAV1@@X@Z 
01:0002A6C8 ?_new@iterator@@SAXQAVrTypeLibrary@TypeLibraries@RunTime@VIP@@PA$?_function_dt$1@core@@SAXPAX@Z$PAPAV1@@PAX@Z  (Idle)
01:0002A6F8 ?_new@iterator@@SAXQAVrTypeLibrary@TypeLibraries@RunTime@VIP@@PA$?_function_dt$1@core@@SAXPAX@Z$XPAPAV1@@PAX@Z  (Idle)
01:0002A72C ?_list@iterator@@SAXQAVrTypeLibrary@TypeLibraries@RunTime@VIP@@PAU?$__packedList_struct@X@@PAPAV1@@PAX@Z  (Idle)
01:0002A75C ?_object_typelib_initializer$@iterator@@SGXQAV1@@XQAVrTypeLibrary@TypeLibraries@RunTime@VIP@@@Z 
01:0002A774 ?_object_facts_initializer$@iterator@@SGXQAV1@@X@Z 
01:0002A794 iterator{@Elem}?_initObject@@@QAGXQAV1@H@Z 
01:0002A7C8 ?@create_object@iterator@@SGQAV1@@XQAVrTypeLibrary@TypeLibraries@RunTime@VIP@@@Z 
01:0002A7EC iterator{@Elem}?_InternalFinalizer@@@QAGXQAV1@@Z 
--- From 'Obj\binary.248EF86D.obj'
01:0002A840 ?new$@outputStream_binary@@SAXQAV1@@@Z  (Idle)
01:0002A874 ?setMode$@outputStream_binary@@SGXQAVstream@@@PAUmode_struct@2@@Z 
01:0002A8AC ?_getInputStream$@outputStream_binary@@SAXQAVoutputStreamSegmented@@@XPAPAVinputStream@@@@Z 
01:0002A8D4 ?_getBinary$@outputStream_binary@@SAXQAV1@@QAPAE@Z 
01:0002A928 ?_getMemory$@outputStream_binary@@SAXQAV1@@PAPAX@Z 
--- From 'Obj\filesystem.5B0F823E.obj'
01:0002A948 ?_new@outputStream_binary@@SAXPAPAV1@@@Z 
--- From 'Obj\binary.248EF86D.obj'
01:0002A970 ?new$@inputStream_binary@@SAXQAV1@@QAE@Z  (Idle)
01:0002A998 ?new_pointer$@inputStream_binary@@SAXQAV1@@PAXPBUbyteCount@core@@@Z  (Idle)
01:0002A9C0 ?new_segmented$@inputStream_binary@@SAXQAV1@@PAUsegmented_struct@segmented@@QAE@Z 
01:0002AA30 ?setMode$@inputStream_binary@@SGXQAVstream@@@PAUmode_struct@2@@Z 
01:0002AA68 ?close$@inputStream_binary@@SGXQAVstream@@@@Z 
01:0002AA78 ?getPosition$@inputStream_binary@@SGPBUfileSize@fileSystem_api@@QAVstream@@@@Z 
01:0002AACC ?setPosition$@inputStream_binary@@SGXQAVstream@@@PBUfileSize@fileSystem_api@@@Z 
01:0002AB38 ?getBuffer$@inputStream_binary@@SGXQAVbufferSupport@@@PAPAXAAUbyteCount@core@@@Z 
01:0002AB54 ?getBufferLocked$@inputStream_binary@@SGXQAVbufferSupport@@@PAPAXAAUbyteCount@core@@@Z 
01:0002ABE0 ?getCRLFconversion$@inputStream_binary@@SGPAUboolean_struct@_builtIn@@QAVstream@@@@Z 
01:0002ABE8 ?setCRLFconversion$@inputStream_binary@@SGXQAVstream@@@PAUboolean_struct@_builtIn@@@Z 
01:0002AC10 ?_new@inputStream_binary@@SAXQAEPAPAVinputStream@@@@Z  (Idle)
01:0002AC38 ?_new_pointer@inputStream_binary@@SAXPAXPBUbyteCount@core@@PAPAVinputStream@@@@Z  (Idle)
--- From 'Obj\filesystem.5B0F823E.obj'
01:0002AC64 ?_new_segmented@inputStream_binary@@SAXPAUsegmented_struct@3@QAEPAPAVinputStream@@@@Z 
--- From 'Obj\binary.248EF86D.obj'
01:0002AC8C ?_object_facts_initializer$@inputStream_binary@@SGXQAV1@@@Z 
01:0002ACA4 ?raise_invalidCompressionFormat_explicit@binary_exception@@SAXPAUprogramPoint_struct@core@@QAE@Z  (Idle)
01:0002AD18 ?raise_internalDecodeError_explicit@binary_exception@@SAXPAUprogramPoint_struct@core@@QAE@Z  (Idle)
01:0002AD8C ?raise_wrongBinaryFormat_explicit@binary_exception@@SAXPAUprogramPoint_struct@core@@QAE@Z  (Idle)
01:0002AE00 ?raise_wrongBinaryFormat_explicit@binary_exception@@SAXPAUprogramPoint_struct@core@@PBUbinaryNonAtomic@_builtIn@@@Z  (Idle)
01:0002AE74 ?_create0binaryAtomic@binary@@SAXQAPAE@Z  (Idle)
01:0002AE94 ?_create0binaryNonAtomic@binary@@SAXAAU2_builtIn@@@Z  (Idle)
01:0002AEB4 ?_createNonAtomic@binary@@SAXPBUbyteCount@core@@AAUbinaryNonAtomic@_builtIn@@@Z  (Idle)
01:0002AED4 ?_createNonAtomic@binary@@SAXPBUpositive@core@@PBUbyteCount@3@AAUbinaryNonAtomic@_builtIn@@@Z  (Idle)
--- From 'Obj\filesystem.5B0F823E.obj'
01:0002AEF4 ?_createAtomic@binary@@SAXPBUbyteCount@core@@QAPAE@Z 
--- From 'Obj\binary.248EF86D.obj'
01:0002AF18 ?_createAtomic@binary@@SAXPBUpositive@core@@PBUbyteCount@3@QAPAE@Z  (Idle)
01:0002AF38 ?_makeBinary@binary@@SAXPBUbyteCount@core@@QAPAE@Z 
01:0002AF8C ?_makeBinaryNonAtomic@binary@@SAXPBUbyteCount@core@@AAUbinaryNonAtomic@_builtIn@@@Z 
01:0002AFDC ?_allocateNonAtomicBinary@binary@@SAXPBUbyteCount@core@@PAPAX@Z 
01:0002B024 ?_createCopyNonAtomic@binary@@SAXPBUbinaryNonAtomic@_builtIn@@AAU23@@Z  (Idle)
01:0002B0A0 ?_createCopyAtomic@binary@@SAXQAEQAPAE@Z  (Idle)
01:0002B120 ?_createNonAtomicFromPointer@binary@@SAXPAXPBUbyteCount@core@@AAUbinaryNonAtomic@_builtIn@@@Z  (Idle)
01:0002B164 ?_createAtomicFromPointer@binary@@SAXPAXPBUbyteCount@core@@QAPAE@Z 
01:0002B1A8 ?_createAtomicFromIntegerList@binary@@SAXPAU?$__packedList_struct@H@@QAPAE@Z  (Idle)
--- From 'Obj\filesystem.5B0F823E.obj'
01:0002B1F8 ?_getSize@binary@@SAXQAEAAUbyteCount@core@@@Z 
--- From 'Obj\binary.248EF86D.obj'
01:0002B214 ?_getBinaryHeaderPtr@binary@@SAXQAEPAPAX@Z  (Idle)
01:0002B244 ?_resizeNonAtomic@binary@@SAXPBUbinaryNonAtomic@_builtIn@@PBUbyteCount@core@@AAU23@@Z  (Idle)
01:0002B2F0 ?_resizeAtomic@binary@@SAXQAEPBUbyteCount@core@@QAPAE@Z  (Idle)
01:0002B39C ?_concatNonAtomic@binary@@SAXPBUbinaryNonAtomic@_builtIn@@0AAU23@@Z  (Idle)
01:0002B414 ?_concatAtomic@binary@@SAXQAEQAEQAPAE@Z 
01:0002B48C ?_insertAtomic@binary@@SAXQAEPBUbyteCount@core@@QAEQAPAE@Z  (Idle)
01:0002B54C ?_insertNonAtomic@binary@@SAXPBUbinaryNonAtomic@_builtIn@@PBUbyteCount@core@@QAEAAU23@@Z  (Idle)
01:0002B60C ?_deleteAtomic@binary@@SAXQAEPBUbyteCount@core@@1QAPAE@Z  (Idle)
01:0002B68C ?_deleteNonAtomic@binary@@SAXPBUbinaryNonAtomic@_builtIn@@PBUbyteCount@core@@1AAU23@@Z  (Idle)
01:0002B70C ?_getIndexed_unsigned8@binary@@SAXQAEPBUpositive@core@@AAU43@@Z  (Idle)
--- From 'Obj\filesystem.5B0F823E.obj'
01:0002B758 ?_getIndexed_unsigned16@binary@@SAXQAEPBUpositive@core@@AAU43@@Z 
--- From 'Obj\binary.248EF86D.obj'
01:0002B7A8 ?_getIndexed_unsigned64@binary@@SAXQAEPBUpositive@core@@PAPA_K@Z  (Idle)
01:0002B7F8 ?_getIndexed_integer8@binary@@SAXQAEPBUpositive@core@@AAU43@@Z  (Idle)
01:0002B844 ?_getIndexed_integer16@binary@@SAXQAEPBUpositive@core@@AAU43@@Z  (Idle)
01:0002B894 ?_getIndexed_integer64@binary@@SAXQAEPBUpositive@core@@PAPA_J@Z  (Idle)
--- From 'Obj\exception.B6F320E8.obj'
01:0002B8E4 ?_getIndexed_unsignedNative@binary@@SAXQAEPBUpositive@core@@AAU4_builtIn@@@Z 
--- From 'Obj\binary.248EF86D.obj'
01:0002B934 ?_getIndexed_unsigned@binary@@SAXQAEPBUpositive@core@@PAI@Z  (Idle)
01:0002B984 ?_getIndexed_integerNative@binary@@SAXQAEPBUpositive@core@@AAU4_builtIn@@@Z  (Idle)
01:0002B9D4 ?_getIndexed_integer@binary@@SAXQAEPBUpositive@core@@PAH@Z  (Idle)
01:0002BA24 ?_getIndexed_real32@binary@@SAXQAEPBUpositive@core@@PAM@Z  (Idle)
01:0002BA74 ?_getIndexed_real@binary@@SAXQAEPBUpositive@core@@PAPAN@Z  (Idle)
01:0002BAC4 ?_getIndexed_pointer@binary@@SAXPBUbinaryNonAtomic@_builtIn@@PBUpositive@core@@PAPAX@Z  (Idle)
01:0002BB14 ?_getIndexed_object@binary@@SAXPBUbinaryNonAtomic@_builtIn@@PBUpositive@core@@PAPAV6@@@Z  (Idle)
01:0002BB70 ?_getIndexed_string@binary@@SAXPBUbinaryNonAtomic@_builtIn@@PBUpositive@core@@PAPB_W@Z  (Idle)
01:0002BBCC ?setIndexed_unsigned8@binary@@SAXQAEPBUpositive@core@@PBU43@@Z  (Idle)
01:0002BC14 ?setIndexed_unsigned16@binary@@SAXQAEPBUpositive@core@@PBU43@@Z  (Idle)
01:0002BC60 ?setIndexed_unsigned64@binary@@SAXQAEPBUpositive@core@@PA_K@Z  (Idle)
01:0002BCB0 ?setIndexed_integer8@binary@@SAXQAEPBUpositive@core@@PBU43@@Z  (Idle)
01:0002BCF8 ?setIndexed_integer16@binary@@SAXQAEPBUpositive@core@@PBU43@@Z  (Idle)
01:0002BD44 ?setIndexed_integer64@binary@@SAXQAEPBUpositive@core@@PA_J@Z  (Idle)
01:0002BD94 ?setIndexed_integerNative@binary@@SAXQAEPBUpositive@core@@PBU4_builtIn@@@Z  (Idle)
01:0002BDE0 ?setIndexed_integer@binary@@SAXQAEPBUpositive@core@@H@Z  (Idle)
01:0002BE2C ?setIndexed_unsignedNative@binary@@SAXQAEPBUpositive@core@@PBU4_builtIn@@@Z  (Idle)
01:0002BE78 ?setIndexed_unsigned@binary@@SAXQAEPBUpositive@core@@I@Z  (Idle)
01:0002BEC4 ?setIndexed_real32@binary@@SAXQAEPBUpositive@core@@M@Z  (Idle)
01:0002BF18 ?setIndexed_real@binary@@SAXQAEPBUpositive@core@@PAN@Z  (Idle)
01:0002BF68 ?setIndexed_pointer@binary@@SAXPBUbinaryNonAtomic@_builtIn@@PBUpositive@core@@PAX@Z  (Idle)
01:0002BFB4 ?setIndexed_object@binary@@SAXPBUbinaryNonAtomic@_builtIn@@PBUpositive@core@@QAV6@@@Z  (Idle)
01:0002C000 ?setIndexed_string@binary@@SAXPBUbinaryNonAtomic@_builtIn@@PBUpositive@core@@PB_W@Z  (Idle)
01:0002C04C ?_getBinaryNonAtomic@binary@@SAXPBUbinaryNonAtomic@_builtIn@@PBUbyteCount@core@@1AAU23@@Z  (Idle)
01:0002C0C4 ?_getBinaryAtomic@binary@@SAXQAEPBUbyteCount@core@@1QAPAE@Z 
01:0002C13C ?setBinary@binary@@SAXQAEPBUbyteCount@core@@QAE@Z  (Idle)
01:0002C1B0 ?setValue@binary@@SAXQAEPBUbyteCount@core@@PAUvalue_struct@3@@Z  (Idle)
01:0002C6BC $getValue$binary_class$predicate$(i,i,unsigned64(o))$b$_c87  (Idle)
01:0002C710 ?_getString@binary@@SAXPAXPBUcharCount@core@@PAPB_W@Z  (Idle)
01:0002C804 ?checkOffsetForSetGetValue@binary@@SAXQAEPBUbyteCount@core@@1@Z 
01:0002C840 ?fillFromIntegerList@binary@@SAXPAXPAU?$__packedList_struct@H@@@Z 
01:0002C898 ?copyTailIfNeeded@binary@@SAXQAEPBUbyteCount@core@@1QAE1@Z 
01:0002C8FC ?splitBinaryNonAtomic@binary@@SAXPBUbinaryNonAtomic@_builtIn@@PBUbyteCount@core@@AAU23@2@Z  (Idle)
01:0002C93C ?splitBinaryAtomic@binary@@SAXQAEPBUbyteCount@core@@QAPAE2@Z  (Idle)
01:0002C97C ?_binaryToStringList@binary@@SAXQAEPAPAU?$__packedList_struct@PAPB_W@@@Z  (Idle)
01:0002C9B8 ?_getStringList@binary@@SAXPAXPBUbyteCount@core@@PAPAU?$__packedList_struct@PAPB_W@@@Z 
01:0002CB14 ?_search@binary@@SAXQAEQAEAAUbyteCount@core@@@Z  (Idle)
01:0002CB5C ?_binary8ToStringList@binary@@SAXQAEPAPAU?$__packedList_struct@PAPB_W@@@Z  (Idle)
01:0002CB78 ?_binary8ToStringList@binary@@SAXQAEPBUcodePage@core@@PAPAU?$__packedList_struct@PAPB_W@@@Z 
01:0002CBC0 ?_getStringListForBinary8@binary@@SAXPAXPBUbyteCount@core@@PBUcodePage@3@PAPAU?$__packedList_struct@PAPB_W@@@Z 
01:0002CCFC binaryIsAtomicExpectedNonAtomic 
01:0002CD28 doNothing 
01:0002CD30 ?_calculateCRC@binary@@SAXQAEPAI@Z  (Idle)
01:0002CD4C ?setBinaryAtomic@binary@@SAXQAEPBUbyteCount@core@@QAE@Z  (Idle)
01:0002CD54 ?setBinaryNonAtomic@binary@@SAXPBUbinaryNonAtomic@_builtIn@@PBUbyteCount@core@@QAE@Z  (Idle)
01:0002CD5C ?_getPointer2nullaryBinary@binary@@SAXPAPAX@Z 
01:0002CD70 ?_getSize@binary@@SAXPBUbinaryNonAtomic@_builtIn@@AAUbyteCount@core@@@Z 
01:0002CD8C ?_getBinaryHeaderPtr@binary@@SAXPBUbinaryNonAtomic@_builtIn@@PAPAX@Z  (Idle)
01:0002CDBC ?_insertNonAtomic@binary@@SAXPBUbinaryNonAtomic@_builtIn@@PBUbyteCount@core@@0AAU23@@Z  (Idle)
01:0002CE78 ?_getIndexed_unsigned8@binary@@SAXPBUbinaryNonAtomic@_builtIn@@PBUpositive@core@@AAU65@@Z  (Idle)
01:0002CEC4 ?_getIndexed_unsigned16@binary@@SAXPBUbinaryNonAtomic@_builtIn@@PBUpositive@core@@AAU65@@Z  (Idle)
01:0002CF14 ?_getIndexed_unsigned64@binary@@SAXPBUbinaryNonAtomic@_builtIn@@PBUpositive@core@@PAPA_K@Z  (Idle)
01:0002CF64 ?_getIndexed_integer8@binary@@SAXPBUbinaryNonAtomic@_builtIn@@PBUpositive@core@@AAU65@@Z  (Idle)
01:0002CFB0 ?_getIndexed_integer16@binary@@SAXPBUbinaryNonAtomic@_builtIn@@PBUpositive@core@@AAU65@@Z  (Idle)
01:0002D000 ?_getIndexed_integer64@binary@@SAXPBUbinaryNonAtomic@_builtIn@@PBUpositive@core@@PAPA_J@Z  (Idle)
01:0002D050 ?_getIndexed_unsignedNative@binary@@SAXPBUbinaryNonAtomic@_builtIn@@PBUpositive@core@@AAU63@@Z  (Idle)
01:0002D0A0 ?_getIndexed_unsigned@binary@@SAXPBUbinaryNonAtomic@_builtIn@@PBUpositive@core@@PAI@Z  (Idle)
01:0002D0F0 ?_getIndexed_integerNative@binary@@SAXPBUbinaryNonAtomic@_builtIn@@PBUpositive@core@@AAU63@@Z  (Idle)
01:0002D140 ?_getIndexed_integer@binary@@SAXPBUbinaryNonAtomic@_builtIn@@PBUpositive@core@@PAH@Z  (Idle)
01:0002D190 ?_getIndexed_real32@binary@@SAXPBUbinaryNonAtomic@_builtIn@@PBUpositive@core@@PAM@Z  (Idle)
01:0002D1E0 ?_getIndexed_real@binary@@SAXPBUbinaryNonAtomic@_builtIn@@PBUpositive@core@@PAPAN@Z  (Idle)
01:0002D230 ?setIndexed_unsigned8@binary@@SAXPBUbinaryNonAtomic@_builtIn@@PBUpositive@core@@PBU65@@Z  (Idle)
01:0002D278 ?setIndexed_unsigned16@binary@@SAXPBUbinaryNonAtomic@_builtIn@@PBUpositive@core@@PBU65@@Z  (Idle)
01:0002D2C4 ?setIndexed_unsigned64@binary@@SAXPBUbinaryNonAtomic@_builtIn@@PBUpositive@core@@PA_K@Z  (Idle)
01:0002D314 ?setIndexed_integer8@binary@@SAXPBUbinaryNonAtomic@_builtIn@@PBUpositive@core@@PBU65@@Z  (Idle)
01:0002D35C ?setIndexed_integer16@binary@@SAXPBUbinaryNonAtomic@_builtIn@@PBUpositive@core@@PBU65@@Z  (Idle)
01:0002D3A8 ?setIndexed_integer64@binary@@SAXPBUbinaryNonAtomic@_builtIn@@PBUpositive@core@@PA_J@Z  (Idle)
01:0002D3F8 ?setIndexed_integerNative@binary@@SAXPBUbinaryNonAtomic@_builtIn@@PBUpositive@core@@PBU63@@Z  (Idle)
01:0002D444 ?setIndexed_integer@binary@@SAXPBUbinaryNonAtomic@_builtIn@@PBUpositive@core@@H@Z  (Idle)
01:0002D490 ?setIndexed_unsignedNative@binary@@SAXPBUbinaryNonAtomic@_builtIn@@PBUpositive@core@@PBU63@@Z  (Idle)
01:0002D4DC ?setIndexed_unsigned@binary@@SAXPBUbinaryNonAtomic@_builtIn@@PBUpositive@core@@I@Z  (Idle)
01:0002D528 ?setIndexed_real32@binary@@SAXPBUbinaryNonAtomic@_builtIn@@PBUpositive@core@@M@Z  (Idle)
01:0002D57C ?setIndexed_real@binary@@SAXPBUbinaryNonAtomic@_builtIn@@PBUpositive@core@@PAN@Z  (Idle)
01:0002D5CC ?setBinary@binary@@SAXPBUbinaryNonAtomic@_builtIn@@PBUbyteCount@core@@QAE@Z 
01:0002D640 ?setBinary@binary@@SAXPBUbinaryNonAtomic@_builtIn@@PBUbyteCount@core@@0@Z  (Idle)
01:0002D6B4 ?setValue@binary@@SAXPBUbinaryNonAtomic@_builtIn@@PBUbyteCount@core@@PAUvalue_struct@5@@Z  (Idle)
01:0002DBC0 $getValue$binary_class$predicate$(i,i,unsigned(o))$b$_c88  (Idle)
01:0002DC14 $getValue$binary_class$predicate$(i,i,integer64(o))$b$_c89  (Idle)
01:0002DC68 $getValue$binary_class$predicate$(i,i,integer(o))$b$_c90 
01:0002DCBC $getValue$binary_class$predicate$(i,i,real(o))$b$_c91  (Idle)
01:0002DD10 $getValue$binary_class$predicate$(i,i,char(o))$b$_c92  (Idle)
01:0002DD68 $getValue$binary_class$predicate$(i,i,string(o))$b$_c93  (Idle)
01:0002DDD8 $getValue$binary_class$predicate$(i,i,localtimevalue(o))$b$_c94  (Idle)
01:0002DE2C $getValue$binary_class$predicate$(i,i,gmttimevalue(o))$b$_c95  (Idle)
01:0002DE80 $getValue$binary_class$predicate$(i,i,unsigned64(o))$b$_c96  (Idle)
01:0002DED4 $getValue$binary_class$predicate$(i,i,unsigned(o))$b$_c97  (Idle)
01:0002DF28 $getValue$binary_class$predicate$(i,i,integer64(o))$b$_c98  (Idle)
01:0002DF7C $getValue$binary_class$predicate$(i,i,integer(o))$b$_c99  (Idle)
01:0002DFD0 $getValue$binary_class$predicate$(i,i,real(o))$b$_c100  (Idle)
01:0002E024 $getValue$binary_class$predicate$(i,i,pointer(o))$b$_c101  (Idle)
01:0002E078 $getValue$binary_class$predicate$(i,i,object(o))$b$_c102  (Idle)
01:0002E0CC $getValue$binary_class$predicate$(i,i,char(o))$b$_c103  (Idle)
01:0002E124 $getValue$binary_class$predicate$(i,i,string(o))$b$_c104  (Idle)
01:0002E194 $getValue$binary_class$predicate$(i,i,localtimevalue(o))$b$_c105  (Idle)
01:0002E1E8 $getValue$binary_class$predicate$(i,i,gmttimevalue(o))$b$_c106  (Idle)
01:0002E23C ?checkOffsetForSetGetValue@binary@@SAXPBUbinaryNonAtomic@_builtIn@@PBUbyteCount@core@@1@Z 
01:0002E278 ?copyTailIfNeeded@binary@@SAXPBUbinaryNonAtomic@_builtIn@@PBUbyteCount@core@@101@Z 
01:0002E2DC ?setBinaryAtomic@binary@@SAXPBUbinaryNonAtomic@_builtIn@@PBUbyteCount@core@@QAE@Z  (Idle)
01:0002E2E4 ?setBinaryAtomic@binary@@SAXPBUbinaryNonAtomic@_builtIn@@PBUbyteCount@core@@0@Z  (Idle)
01:0002E2EC ?setBinaryNonAtomic@binary@@SAXPBUbinaryNonAtomic@_builtIn@@PBUbyteCount@core@@0@Z  (Idle)
01:0002E738 outputStream_binary?_initObject@@@QAGXQAV1@H@Z 
01:0002E768 ?@create_object@outputStream_binary@@SGQAV1@@XZ 
01:0002E784 outputStream_binary?_InternalFinalizer@@@QAGXQAV1@@Z 
01:0002EA30 inputStream_binary?_initObject@@@QAGXQAV1@H@Z 
01:0002EA68 ?@create_object@inputStream_binary@@SGQAV1@@XZ 
01:0002EA84 inputStream_binary?_InternalFinalizer@@@QAGXQAV1@@Z 
--- From 'Obj\boolean.DE5055E8.obj'
01:0002EAA0 ?_toBooleanInt@boolean@@SAXPAUboolean_struct@_builtIn@@AAUbooleanInt@core@@@Z 
01:0002EAC4 ?_fromBooleanInt@boolean@@SAXPBUbooleanInt@core@@PAPAUboolean_struct@_builtIn@@@Z 
--- From 'Obj\varm.B882E173.obj'
01:0002EAE8 ?_logicalNot@boolean@@SAXPAUboolean_struct@_builtIn@@PAPAU23@@Z 
01:0002EB0C ?_logicalAnd@boolean@@SAXPAUboolean_struct@_builtIn@@0PAPAU23@@Z 
01:0002EB4C ?_logicalOr@boolean@@SAXPAUboolean_struct@_builtIn@@0PAPAU23@@Z 
01:0002EB8C ?_logicalXor@boolean@@SAXPAUboolean_struct@_builtIn@@0PAPAU23@@Z 
--- From 'Obj\redblackset.DC1C3622.obj'
01:0002EBC0 ?_empty/0$1@redBlackSet@@SAXPAUempty/0$1_struct@1@XXPAPAUcompareResult_struct@_builtIn@@@Z 
--- From 'Obj\setm_redblack.16EF8DC5.obj'
01:0002EBD8 ?_empty@redBlackSet@@SAXQAVrTypeLibrary@TypeLibraries@RunTime@VIP@@PAPAUset_struct@1@PAX@Z 
01:0002EC2C ?_emptyCustom@redBlackSet@@SAXQAVrTypeLibrary@TypeLibraries@RunTime@VIP@@PA$?_comparator$1@core@@SAXXXPAPAUcompareResult_struct@_builtIn@@@Z$PAPAUset_struct@1@PAX@Z 
01:0002EC58 ?_emptySameKind@redBlackSet@@SAXQAVrTypeLibrary@TypeLibraries@RunTime@VIP@@PAUset_struct@1@XPAPAU21@PAX@Z 
--- From 'Obj\redblackset.DC1C3622.obj'
01:0002EC90 ?isEmpty@redBlackSet@@SAXQAVrTypeLibrary@TypeLibraries@RunTime@VIP@@PAUset_struct@1@X@Z  (Idle)
--- From 'Obj\setm_redblack.16EF8DC5.obj'
01:0002ECA8 ?_insert@redBlackSet@@SAXQAVrTypeLibrary@TypeLibraries@RunTime@VIP@@PAUset_struct@1@XXPAPAU21@PAX@Z 
01:0002ED08 ?_delete@redBlackSet@@SAXQAVrTypeLibrary@TypeLibraries@RunTime@VIP@@PAUset_struct@1@XXPAPAU21@PAX@Z 
--- From 'Obj\redblackset.DC1C3622.obj'
01:0002ED68 ?_tryDeleteFirst@redBlackSet@@SAXQAVrTypeLibrary@TypeLibraries@RunTime@VIP@@PAUset_struct@1@XPAXPAPAU21@PAX@Z  (Idle)
--- From 'Obj\setm_redblack.16EF8DC5.obj'
01:0002ED98 ?isMember@redBlackSet@@SAXQAVrTypeLibrary@TypeLibraries@RunTime@VIP@@XPAUset_struct@1@X@Z 
01:0002EDCC ?_getAll_nd@redBlackSet@@SAXQAVrTypeLibrary@TypeLibraries@RunTime@VIP@@PAUset_struct@1@XPAX@Z 
--- From 'Obj\redblackset.DC1C3622.obj'
01:0002EDE4 ?_getAll_multi@redBlackSet@@SAXQAVrTypeLibrary@TypeLibraries@RunTime@VIP@@PAUset_struct@1@XPAX@Z  (Idle)
--- From 'Obj\setm_redblack.16EF8DC5.obj'
01:0002EDFC ?_upFrom_nd@redBlackSet@@SAXQAVrTypeLibrary@TypeLibraries@RunTime@VIP@@PAUset_struct@1@XXPAX@Z 
--- From 'Obj\redblackset.DC1C3622.obj'
01:0002EE38 ?_up_nd@redBlackSet@@SAXQAVrTypeLibrary@TypeLibraries@RunTime@VIP@@PAUset_struct@1@XPAX@Z  (Idle)
01:0002EE50 ?_tryGetMin@redBlackSet@@SAXQAVrTypeLibrary@TypeLibraries@RunTime@VIP@@PAUset_struct@1@XPAX@Z  (Idle)
--- From 'Obj\setm_redblack.16EF8DC5.obj'
01:0002EE74 ?_downFrom_nd@redBlackSet@@SAXQAVrTypeLibrary@TypeLibraries@RunTime@VIP@@PAUset_struct@1@XXPAX@Z 
--- From 'Obj\redblackset.DC1C3622.obj'
01:0002EEB0 ?_down_nd@redBlackSet@@SAXQAVrTypeLibrary@TypeLibraries@RunTime@VIP@@PAUset_struct@1@XPAX@Z  (Idle)
01:0002EEC8 ?_tryGetMax@redBlackSet@@SAXQAVrTypeLibrary@TypeLibraries@RunTime@VIP@@PAUset_struct@1@XPAX@Z  (Idle)
01:0002EEEC ?find_nd_rep@redBlackSet@@SAXQAVrTypeLibrary@TypeLibraries@RunTime@VIP@@PA$?_comparator$1@core@@SAXXXPAPAUcompareResult_struct@_builtIn@@@Z$XPAUsetRep_struct@1@X@Z 
01:0002EF5C ?find_nd_rep1@redBlackSet@@SAXQAVrTypeLibrary@TypeLibraries@RunTime@VIP@@PA$?_comparator$1@core@@SAXXXPAPAUcompareResult_struct@_builtIn@@@Z$PAU23@XPAUsetRep_struct@1@X4@Z 
01:0002EF9C ?_getAll_nd_rep@redBlackSet@@SAXQAVrTypeLibrary@TypeLibraries@RunTime@VIP@@PAUsetRep_struct@1@XPAX@Z 
01:0002F02C ?_get_multi_rep@redBlackSet@@SAXQAVrTypeLibrary@TypeLibraries@RunTime@VIP@@PAUsetRep_struct@1@XPAX@Z 
01:0002F104 ?_upFrom_nd_rep@redBlackSet@@SAXQAVrTypeLibrary@TypeLibraries@RunTime@VIP@@PA$?_comparator$1@core@@SAXXXPAPAUcompareResult_struct@_builtIn@@@Z$XPAUsetRep_struct@1@XPAX@Z 
01:0002F184 ?_upFrom_nd_rep1@redBlackSet@@SAXQAVrTypeLibrary@TypeLibraries@RunTime@VIP@@PA$?_comparator$1@core@@SAXXXPAPAUcompareResult_struct@_builtIn@@@Z$PAU23@XPAUsetRep_struct@1@XX4PAX@Z 
01:0002F230 ?_downFrom_nd_rep@redBlackSet@@SAXQAVrTypeLibrary@TypeLibraries@RunTime@VIP@@PA$?_comparator$1@core@@SAXXXPAPAUcompareResult_struct@_builtIn@@@Z$XPAUsetRep_struct@1@XPAX@Z 
01:0002F2B0 ?_downFrom_nd_rep1@redBlackSet@@SAXQAVrTypeLibrary@TypeLibraries@RunTime@VIP@@PA$?_comparator$1@core@@SAXXXPAPAUcompareResult_struct@_builtIn@@@Z$PAU23@XPAUsetRep_struct@1@XX4PAX@Z 
01:0002F35C ?_down_nd_rep@redBlackSet@@SAXQAVrTypeLibrary@TypeLibraries@RunTime@VIP@@PAUsetRep_struct@1@XPAX@Z 
01:0002F3EC ?tryGetNode@redBlackSet@@SAXQAVrTypeLibrary@TypeLibraries@RunTime@VIP@@PAUsetRep_struct@1@XPAPAU21@PAXPAX2@Z 
01:0002F484 ?_insert_rep@redBlackSet@@SAXQAVrTypeLibrary@TypeLibraries@RunTime@VIP@@PA$?_comparator$1@core@@SAXXXPAPAUcompareResult_struct@_builtIn@@@Z$XPAUsetRep_struct@1@XPAPAU21@PAX@Z 
01:0002F4DC ?_tryIns@redBlackSet@@SAXQAVrTypeLibrary@TypeLibraries@RunTime@VIP@@PA$?_comparator$1@core@@SAXXXPAPAUcompareResult_struct@_builtIn@@@Z$XPAUsetRep_struct@1@XPAPAU21@PAX@Z 
01:0002F664 ?_tryIns_black@redBlackSet@@SAXQAVrTypeLibrary@TypeLibraries@RunTime@VIP@@PA$?_comparator$1@core@@SAXXXPAPAUcompareResult_struct@_builtIn@@@Z$PAU23@XPAUsetRep_struct@1@XX4PAPAU41@PAX@Z 
01:0002F6F8 ?_tryIns_red@redBlackSet@@SAXQAVrTypeLibrary@TypeLibraries@RunTime@VIP@@PA$?_comparator$1@core@@SAXXXPAPAUcompareResult_struct@_builtIn@@@Z$PAU23@XPAUsetRep_struct@1@XX4PAPAU41@PAX@Z 
01:0002F79C ?_balance@redBlackSet@@SAXQAVrTypeLibrary@TypeLibraries@RunTime@VIP@@PAUsetRep_struct@1@XX1PAPAU21@PAX@Z 
01:0002FBC0 ?_makeblack@redBlackSet@@SAXQAVrTypeLibrary@TypeLibraries@RunTime@VIP@@PAUsetRep_struct@1@XPAPAU21@PAX@Z 
01:0002FC34 ?_delete_rep@redBlackSet@@SAXQAVrTypeLibrary@TypeLibraries@RunTime@VIP@@PA$?_comparator$1@core@@SAXXXPAPAUcompareResult_struct@_builtIn@@@Z$XPAUsetRep_struct@1@XPAPAU21@PAX@Z 
01:0002FC84 ?del@redBlackSet@@SAXQAVrTypeLibrary@TypeLibraries@RunTime@VIP@@PA$?_comparator$1@core@@SAXXXPAPAUcompareResult_struct@_builtIn@@@Z$XPAUsetRep_struct@1@XPAPAU21@PAXPAPAUboolean_struct@7@@Z 
01:0002FD3C ?del1@redBlackSet@@SAXQAVrTypeLibrary@TypeLibraries@RunTime@VIP@@PA$?_comparator$1@core@@SAXXXPAPAUcompareResult_struct@_builtIn@@@Z$PAU23@XPAUsetRep_struct@1@XX4PAPAU41@PAXPAPAUboolean_struct@3@@Z 
01:0002FDCC ?delLeft@redBlackSet@@SAXQAVrTypeLibrary@TypeLibraries@RunTime@VIP@@PA$?_comparator$1@core@@SAXXXPAPAUcompareResult_struct@_builtIn@@@Z$XPAUsetRep_struct@1@XX3PAPAU21@PAXPAPAUboolean_struct@9@@Z 
01:0002FE6C ?delRight@redBlackSet@@SAXQAVrTypeLibrary@TypeLibraries@RunTime@VIP@@PA$?_comparator$1@core@@SAXXXPAPAUcompareResult_struct@_builtIn@@@Z$XPAUsetRep_struct@1@XX3PAPAU21@PAXPAPAUboolean_struct@9@@Z 
01:0002FF14 ?_balLeft@redBlackSet@@SAXQAVrTypeLibrary@TypeLibraries@RunTime@VIP@@PAUsetRep_struct@1@XX1PAPAU21@PAX@Z 
01:00030104 ?_balRight@redBlackSet@@SAXQAVrTypeLibrary@TypeLibraries@RunTime@VIP@@PAUsetRep_struct@1@XX1PAPAU21@PAX@Z 
01:000302F4 ?_sub1@redBlackSet@@SAXQAVrTypeLibrary@TypeLibraries@RunTime@VIP@@PAUsetRep_struct@1@XPAPAU21@PAX@Z 
01:00030378 ?_mkNode@redBlackSet@@SAXQAVrTypeLibrary@TypeLibraries@RunTime@VIP@@PAUsetRep_struct@1@X1PAPAU21@PAX@Z 
01:00030618 ?_mkNodeRR_BC@redBlackSet@@SAXQAVrTypeLibrary@TypeLibraries@RunTime@VIP@@PAUsetRep_struct@1@XX1X1PAPAU21@PAX@Z 
01:00030714 ?_mkNodeBB_BC@redBlackSet@@SAXQAVrTypeLibrary@TypeLibraries@RunTime@VIP@@PAUsetRep_struct@1@XX1X1PAPAU21@PAX@Z 
01:00030808 ?_present_set@redBlackSet@@SAXQAVrTypeLibrary@TypeLibraries@RunTime@VIP@@PAUset_struct@1@XPAPAUpresentation_struct@presenter@@@Z 
01:00030820 ?_present_setrep/1nf$1@redBlackSet@@SAXPAUpresent_setrep/1nf$1_struct@1@PAX@Z 
01:00030850 ?_present_setRep@redBlackSet@@SAXQAVrTypeLibrary@TypeLibraries@RunTime@VIP@@PAUsetRep_struct@1@XPAPAUpresentation_struct@presenter@@@Z 
--- From 'Obj\redblacktree.401E21A0.obj'
01:00030890 ?_empty/0$1@redBlackTree@@SAXPAUempty/0$1_struct@1@XXPAPAUcompareResult_struct@_builtIn@@@Z 
01:000308A8 ?_empty@redBlackTree@@SAXQAVrTypeLibrary@TypeLibraries@RunTime@VIP@@0PAPAUtree_struct@1@PAXPAX@Z  (Idle)
01:0003091C ?_emptyUnique/0$1@redBlackTree@@SAXPAUemptyUnique/0$1_struct@1@XXPAPAUcompareResult_struct@_builtIn@@@Z 
--- From 'Obj\mapm_redblack.875A0474.obj'
01:00030934 ?_emptyUnique@redBlackTree@@SAXQAVrTypeLibrary@TypeLibraries@RunTime@VIP@@0PAPAUtree_struct@1@PAXPAX@Z 
--- From 'Obj\redblacktree.401E21A0.obj'
01:000309A8 ?_emptyCustom@redBlackTree@@SAXQAVrTypeLibrary@TypeLibraries@RunTime@VIP@@0PA$?_comparator$1@core@@SAXXXPAPAUcompareResult_struct@_builtIn@@@Z$PAPAUtree_struct@1@PAXPAX@Z  (Idle)
--- From 'Obj\mapm_redblack.875A0474.obj'
01:000309F4 ?_emptyCustomUnique@redBlackTree@@SAXQAVrTypeLibrary@TypeLibraries@RunTime@VIP@@0PA$?_comparator$1@core@@SAXXXPAPAUcompareResult_struct@_builtIn@@@Z$PAPAUtree_struct@1@PAXPAX@Z 
01:00030A40 ?_emptySameKind@redBlackTree@@SAXQAVrTypeLibrary@TypeLibraries@RunTime@VIP@@0PAUtree_struct@1@XXPAPAU21@PAXPAX@Z 
--- From 'Obj\redblacktree.401E21A0.obj'
01:00030A78 ?isEmpty@redBlackTree@@SAXQAVrTypeLibrary@TypeLibraries@RunTime@VIP@@0PAUtree_struct@1@XX@Z  (Idle)
--- From 'Obj\mapm_redblack.875A0474.obj'
01:00030A98 ?_insert@redBlackTree@@SAXQAVrTypeLibrary@TypeLibraries@RunTime@VIP@@0PAUtree_struct@1@XXXXPAPAU21@PAXPAX@Z 
--- From 'Obj\redblacktree.401E21A0.obj'
01:00030B00 ?_delete@redBlackTree@@SAXQAVrTypeLibrary@TypeLibraries@RunTime@VIP@@0PAUtree_struct@1@XXXXPAPAU21@PAXPAX@Z  (Idle)
--- From 'Obj\mapm_redblack.875A0474.obj'
01:00030B68 ?_tryDeleteOne@redBlackTree@@SAXQAVrTypeLibrary@TypeLibraries@RunTime@VIP@@0PAUtree_struct@1@XXXPAXPAPAU21@PAXPAX@Z 
--- From 'Obj\redblacktree.401E21A0.obj'
01:00030BD0 ?_tryDeleteFirst@redBlackTree@@SAXQAVrTypeLibrary@TypeLibraries@RunTime@VIP@@0PAUtree_struct@1@XXPAXPAXPAPAU21@PAXPAX@Z  (Idle)
01:00030C48 ?_lookUp_nd@redBlackTree@@SAXQAVrTypeLibrary@TypeLibraries@RunTime@VIP@@0PAUtree_struct@1@XXXPAX@Z  (Idle)
--- From 'Obj\mapm_redblack.875A0474.obj'
01:00030C84 ?_tryLookUp@redBlackTree@@SAXQAVrTypeLibrary@TypeLibraries@RunTime@VIP@@0PAUtree_struct@1@XXXPAX@Z 
01:00030CC0 ?_getAll_nd@redBlackTree@@SAXQAVrTypeLibrary@TypeLibraries@RunTime@VIP@@0PAUtree_struct@1@XXPAPAUtuple_struct@core@@PAXPAX@Z 
01:00030CD8 ?_upFrom_nd@redBlackTree@@SAXQAVrTypeLibrary@TypeLibraries@RunTime@VIP@@0PAUtree_struct@1@XXXPAPAUtuple_struct@core@@PAXPAX@Z 
01:00030D14 ?_downFrom_nd@redBlackTree@@SAXQAVrTypeLibrary@TypeLibraries@RunTime@VIP@@0PAUtree_struct@1@XXXPAPAUtuple_struct@core@@PAXPAX@Z 
--- From 'Obj\redblacktree.401E21A0.obj'
01:00030D50 ?_present_tree@redBlackTree@@SAXQAVrTypeLibrary@TypeLibraries@RunTime@VIP@@0PAUtree_struct@1@XXPAPAUpresentation_struct@presenter@@@Z 
--- From 'Obj\redblacktreerep.E6A269FA.obj'
01:00030DB0 ?_comp@redBlackTreeRep@@SAXQAVrTypeLibrary@TypeLibraries@RunTime@VIP@@PAUtreeProperty_struct@1@XXXPAPAUcompareResult_struct@_builtIn@@@Z  (Idle)
01:00030DF8 ?tryGetNode@redBlackTreeRep@@SAXQAVrTypeLibrary@TypeLibraries@RunTime@VIP@@0PAUtreeRep_struct@1@XXPAPAU21@PAXPAXPAXPAX3@Z  (Idle)
01:00030EC8 ?_lookUp_nd_rep@redBlackTreeRep@@SAXQAVrTypeLibrary@TypeLibraries@RunTime@VIP@@0PAUtreeProperty_struct@1@XPAUtreeRep_struct@1@XXXPAX@Z 
01:00030F4C ?_tryLookUp_rep@redBlackTreeRep@@SAXQAVrTypeLibrary@TypeLibraries@RunTime@VIP@@0PAUtreeProperty_struct@1@XPAUtreeRep_struct@1@XXXPAX@Z 
01:00030F7C ?_find_nd_rep1@redBlackTreeRep@@SAXQAVrTypeLibrary@TypeLibraries@RunTime@VIP@@0PAUtreeProperty_struct@1@XPAUcompareResult_struct@_builtIn@@XPAUtreeRep_struct@1@XXX5PAX@Z 
01:00031040 ?_getAll_nd_rep@redBlackTreeRep@@SAXQAVrTypeLibrary@TypeLibraries@RunTime@VIP@@0PAUtreeRep_struct@1@XXPAPAUtuple_struct@core@@PAXPAX@Z 
01:0003108C ?get_nd_rep@redBlackTreeRep@@SAXQAVrTypeLibrary@TypeLibraries@RunTime@VIP@@0PAUtreeRep_struct@1@XXPAXPAX@Z 
01:00031138 ?_upFrom_nd_rep@redBlackTreeRep@@SAXQAVrTypeLibrary@TypeLibraries@RunTime@VIP@@0PAUtreeProperty_struct@1@XPAUtreeRep_struct@1@XXXPAPAUtuple_struct@core@@PAXPAX@Z 
01:000311CC ?_upFrom_nd_rep1@redBlackTreeRep@@SAXQAVrTypeLibrary@TypeLibraries@RunTime@VIP@@0PAUtreeProperty_struct@1@XPAUcompareResult_struct@_builtIn@@XPAUtreeRep_struct@1@XXXX5PAPAUtuple_struct@core@@PAXPAX@Z 
01:000312C4 ?_upFrom_nd_rep@redBlackTreeRep@@SAXQAVrTypeLibrary@TypeLibraries@RunTime@VIP@@0PA$?_function$2@core@@SAXXPAPAUcompareResult_struct@_builtIn@@@Z$PAUtreeRep_struct@1@XXPAPAUtuple_struct@5@PAXPAX@Z  (Idle)
01:00031348 ?_upFrom_nd_rep1@redBlackTreeRep@@SAXQAVrTypeLibrary@TypeLibraries@RunTime@VIP@@0PA$?_function$2@core@@SAXXPAPAUcompareResult_struct@_builtIn@@@Z$PAU23@PAUtreeRep_struct@1@XXXX4PAPAUtuple_struct@9@PAXPAX@Z 
01:00031434 ?_upTo_nd_rep@redBlackTreeRep@@SAXQAVrTypeLibrary@TypeLibraries@RunTime@VIP@@0PAUtreeProperty_struct@1@XPAUtreeRep_struct@1@XXXPAPAUtuple_struct@core@@PAXPAX@Z  (Idle)
01:000314C8 ?_upTo_nd_rep1@redBlackTreeRep@@SAXQAVrTypeLibrary@TypeLibraries@RunTime@VIP@@0PAUtreeProperty_struct@1@XPAUcompareResult_struct@_builtIn@@XPAUtreeRep_struct@1@XXXX5PAPAUtuple_struct@core@@PAXPAX@Z 
01:00031618 ?_upTo_nd_rep@redBlackTreeRep@@SAXQAVrTypeLibrary@TypeLibraries@RunTime@VIP@@0PA$?_function$2@core@@SAXXPAPAUcompareResult_struct@_builtIn@@@Z$PAUtreeRep_struct@1@XXPAPAUtuple_struct@5@PAXPAX@Z  (Idle)
01:0003169C ?_upTo_nd_rep1@redBlackTreeRep@@SAXQAVrTypeLibrary@TypeLibraries@RunTime@VIP@@0PA$?_function$2@core@@SAXXPAPAUcompareResult_struct@_builtIn@@@Z$PAU23@PAUtreeRep_struct@1@XXXX4PAPAUtuple_struct@9@PAXPAX@Z 
01:000317EC ?_downFrom_nd_rep@redBlackTreeRep@@SAXQAVrTypeLibrary@TypeLibraries@RunTime@VIP@@0PAUtreeProperty_struct@1@XPAUtreeRep_struct@1@XXXPAPAUtuple_struct@core@@PAXPAX@Z 
01:00031880 ?_downFrom_nd_rep1@redBlackTreeRep@@SAXQAVrTypeLibrary@TypeLibraries@RunTime@VIP@@0PAUtreeProperty_struct@1@XPAUcompareResult_struct@_builtIn@@XPAUtreeRep_struct@1@XXXX5PAPAUtuple_struct@core@@PAXPAX@Z 
01:00031978 ?_downFrom_nd_rep@redBlackTreeRep@@SAXQAVrTypeLibrary@TypeLibraries@RunTime@VIP@@0PA$?_function$2@core@@SAXXPAPAUcompareResult_struct@_builtIn@@@Z$PAUtreeRep_struct@1@XXPAPAUtuple_struct@5@PAXPAX@Z  (Idle)
01:000319FC ?_downFrom_nd_rep1@redBlackTreeRep@@SAXQAVrTypeLibrary@TypeLibraries@RunTime@VIP@@0PA$?_function$2@core@@SAXXPAPAUcompareResult_struct@_builtIn@@@Z$PAU23@PAUtreeRep_struct@1@XXXX4PAPAUtuple_struct@9@PAXPAX@Z 
01:00031AE8 ?_downTo_nd_rep@redBlackTreeRep@@SAXQAVrTypeLibrary@TypeLibraries@RunTime@VIP@@0PAUtreeProperty_struct@1@XPAUtreeRep_struct@1@XXXPAPAUtuple_struct@core@@PAXPAX@Z  (Idle)
01:00031B7C ?_downTo_nd_rep1@redBlackTreeRep@@SAXQAVrTypeLibrary@TypeLibraries@RunTime@VIP@@0PAUtreeProperty_struct@1@XPAUcompareResult_struct@_builtIn@@XPAUtreeRep_struct@1@XXXX5PAPAUtuple_struct@core@@PAXPAX@Z 
01:00031CC8 ?_downTo_nd_rep@redBlackTreeRep@@SAXQAVrTypeLibrary@TypeLibraries@RunTime@VIP@@0PA$?_function$2@core@@SAXXPAPAUcompareResult_struct@_builtIn@@@Z$PAUtreeRep_struct@1@XXPAPAUtuple_struct@5@PAXPAX@Z  (Idle)
01:00031D4C ?_downTo_nd_rep1@redBlackTreeRep@@SAXQAVrTypeLibrary@TypeLibraries@RunTime@VIP@@0PA$?_function$2@core@@SAXXPAPAUcompareResult_struct@_builtIn@@@Z$PAU23@PAUtreeRep_struct@1@XXXX4PAPAUtuple_struct@9@PAXPAX@Z 
01:00031E98 ?_getAllDown_nd_rep@redBlackTreeRep@@SAXQAVrTypeLibrary@TypeLibraries@RunTime@VIP@@0PAUtreeRep_struct@1@XXPAPAUtuple_struct@core@@PAXPAX@Z 
01:00032014 ?_findNext_dt@redBlackTreeRep@@SAXQAVrTypeLibrary@TypeLibraries@RunTime@VIP@@0PAUtreeProperty_struct@1@XXPAUtreeRep_struct@1@XXPAX@Z  (Idle)
01:000320AC ?_findNext_dt@redBlackTreeRep@@SAXQAVrTypeLibrary@TypeLibraries@RunTime@VIP@@0PAUtreeProperty_struct@1@XXXPAUtreeRep_struct@1@XXPAX@Z 
01:00032180 ?_getMinChild_dt@redBlackTreeRep@@SAXQAVrTypeLibrary@TypeLibraries@RunTime@VIP@@0PAUtreeRep_struct@1@XXPAX@Z 
01:00032264 ?_findPrev_dt@redBlackTreeRep@@SAXQAVrTypeLibrary@TypeLibraries@RunTime@VIP@@0PAUtreeProperty_struct@1@XXPAUtreeRep_struct@1@XXPAX@Z  (Idle)
01:000322FC ?_findPrev_dt@redBlackTreeRep@@SAXQAVrTypeLibrary@TypeLibraries@RunTime@VIP@@0PAUtreeProperty_struct@1@XXXPAUtreeRep_struct@1@XXPAX@Z 
01:000323D0 ?_getMaxChild_dt@redBlackTreeRep@@SAXQAVrTypeLibrary@TypeLibraries@RunTime@VIP@@0PAUtreeRep_struct@1@XXPAX@Z 
01:000324B8 ?_scanRep_nd@redBlackTreeRep@@SAXQAVrTypeLibrary@TypeLibraries@RunTime@VIP@@0PAUtuple_struct@core@@PA$?_function$2@3@SAXXPAPAUcompareResult_struct@_builtIn@@@Z$PA$?_function$2@3@SAXXPAPAUcompareResult_struct@_builtIn@@@Z$PAUtreeRep_struct@1@XXPAX@Z  (Idle)
01:000325E0 ?_scanRep_nd@redBlackTreeRep@@SAXQAVrTypeLibrary@TypeLibraries@RunTime@VIP@@0PAUtuple_struct@core@@PA$?_function$2@3@SAXXPAPAUcompareResult_struct@_builtIn@@@Z$PA$?_function$2@3@SAXXPAPAU45@@Z$PAU45@3PAUtreeRep_struct@1@XXX5PAX@Z 
01:00032698 ?_reverse_scanRep_nd@redBlackTreeRep@@SAXQAVrTypeLibrary@TypeLibraries@RunTime@VIP@@0PAUtuple_struct@core@@PA$?_function$2@3@SAXXPAPAUcompareResult_struct@_builtIn@@@Z$PA$?_function$2@3@SAXXPAPAUcompareResult_struct@_builtIn@@@Z$PAUtreeRep_struct@1@XXPAX@Z  (Idle)
01:000327C0 ?_reverse_scanRep_nd@redBlackTreeRep@@SAXQAVrTypeLibrary@TypeLibraries@RunTime@VIP@@0PAUtuple_struct@core@@PA$?_function$2@3@SAXXPAPAUcompareResult_struct@_builtIn@@@Z$PA$?_function$2@3@SAXXPAPAU45@@Z$PAU45@3PAUtreeRep_struct@1@XXX5PAX@Z 
01:00032878 ?_insert_rep@redBlackTreeRep@@SAXQAVrTypeLibrary@TypeLibraries@RunTime@VIP@@0PAUtreeProperty_struct@1@XPAUtreeRep_struct@1@XXXXPAPAU41@PAXPAX@Z 
01:000328B4 ?_ins@redBlackTreeRep@@SAXQAVrTypeLibrary@TypeLibraries@RunTime@VIP@@0PAUtreeProperty_struct@1@XXXPAUtreeRep_struct@1@XXPAPAU41@PAXPAX@Z 
01:00032AA4 ?_ins_black@redBlackTreeRep@@SAXQAVrTypeLibrary@TypeLibraries@RunTime@VIP@@0PAUtreeProperty_struct@1@XPAUcompareResult_struct@_builtIn@@XXPAUtreeRep_struct@1@XXXX6PAPAU61@PAXPAX@Z 
01:00032C24 ?_ins_red@redBlackTreeRep@@SAXQAVrTypeLibrary@TypeLibraries@RunTime@VIP@@0PAUtreeProperty_struct@1@XPAUcompareResult_struct@_builtIn@@XXPAUtreeRep_struct@1@XXXX6PAPAU61@PAXPAX@Z 
01:00032DB4 ?_balance@redBlackTreeRep@@SAXQAVrTypeLibrary@TypeLibraries@RunTime@VIP@@0PAUtreeRep_struct@1@XXXX2PAPAU21@PAXPAX@Z 
01:00033264 ?_makeblack@redBlackTreeRep@@SAXQAVrTypeLibrary@TypeLibraries@RunTime@VIP@@0PAUtreeRep_struct@1@XXPAPAU21@PAXPAX@Z 
01:000332E4 ?_delete_rep@redBlackTreeRep@@SAXQAVrTypeLibrary@TypeLibraries@RunTime@VIP@@0PAUtreeProperty_struct@1@XPAUtreeRep_struct@1@XXXXPAPAU41@PAXPAX@Z 
01:00033338 ?del@redBlackTreeRep@@SAXQAVrTypeLibrary@TypeLibraries@RunTime@VIP@@0PAUtreeProperty_struct@1@XXXPAUtreeRep_struct@1@XXPAPAU41@PAXPAXPAPAUboolean_struct@_builtIn@@@Z 
01:0003340C ?del1@redBlackTreeRep@@SAXQAVrTypeLibrary@TypeLibraries@RunTime@VIP@@0PAUtreeProperty_struct@1@XPAUcompareResult_struct@_builtIn@@XXPAUtreeRep_struct@1@XXXX6PAPAU61@PAXPAXPAPAUboolean_struct@5@@Z 
01:00033560 ?delLeft@redBlackTreeRep@@SAXQAVrTypeLibrary@TypeLibraries@RunTime@VIP@@0PAUtreeProperty_struct@1@XXXPAUtreeRep_struct@1@XXXX5PAPAU41@PAXPAXPAPAUboolean_struct@_builtIn@@@Z 
01:00033610 ?delRight@redBlackTreeRep@@SAXQAVrTypeLibrary@TypeLibraries@RunTime@VIP@@0PAUtreeProperty_struct@1@XXXPAUtreeRep_struct@1@XXXX5PAPAU41@PAXPAXPAPAUboolean_struct@_builtIn@@@Z 
01:000336CC ?_tryDeleteOne_rep@redBlackTreeRep@@SAXQAVrTypeLibrary@TypeLibraries@RunTime@VIP@@0PAUtreeProperty_struct@1@XPAUtreeRep_struct@1@XXXPAXPAPAU41@PAXPAX@Z 
01:00033708 ?_tryDel@redBlackTreeRep@@SAXQAVrTypeLibrary@TypeLibraries@RunTime@VIP@@0PAUtreeProperty_struct@1@XXPAUtreeRep_struct@1@XXPAXPAPAU41@PAXPAX@Z 
01:000337A8 ?_tryDel1@redBlackTreeRep@@SAXQAVrTypeLibrary@TypeLibraries@RunTime@VIP@@0PAUtreeProperty_struct@1@XPAUcompareResult_struct@_builtIn@@XPAUtreeRep_struct@1@XXXX5PAXPAPAU61@PAXPAX@Z 
01:00033844 ?_tryDelLeft@redBlackTreeRep@@SAXQAVrTypeLibrary@TypeLibraries@RunTime@VIP@@0PAUtreeProperty_struct@1@XXPAUtreeRep_struct@1@XXXX4PAXPAPAU41@PAXPAX@Z 
01:000338F8 ?_tryDelRight@redBlackTreeRep@@SAXQAVrTypeLibrary@TypeLibraries@RunTime@VIP@@0PAUtreeProperty_struct@1@XXPAUtreeRep_struct@1@XXXX4PAXPAPAU41@PAXPAX@Z 
01:000339B8 ?_balLeft@redBlackTreeRep@@SAXQAVrTypeLibrary@TypeLibraries@RunTime@VIP@@0PAUtreeRep_struct@1@XXXX2PAPAU21@PAXPAX@Z 
01:00033BF4 ?_balRight@redBlackTreeRep@@SAXQAVrTypeLibrary@TypeLibraries@RunTime@VIP@@0PAUtreeRep_struct@1@XXXX2PAPAU21@PAXPAX@Z 
01:00033E34 ?_sub1@redBlackTreeRep@@SAXQAVrTypeLibrary@TypeLibraries@RunTime@VIP@@0PAUtreeRep_struct@1@XXPAPAU21@PAXPAX@Z 
01:00033EC0 ?_mkNode@redBlackTreeRep@@SAXQAVrTypeLibrary@TypeLibraries@RunTime@VIP@@0PAUtreeRep_struct@1@XX2PAPAU21@PAXPAX@Z 
01:00034208 ?_mkNodeRR_BC@redBlackTreeRep@@SAXQAVrTypeLibrary@TypeLibraries@RunTime@VIP@@0PAUtreeRep_struct@1@XXXX2XX2PAPAU21@PAXPAX@Z 
01:00034324 ?_mkNodeBB_BC@redBlackTreeRep@@SAXQAVrTypeLibrary@TypeLibraries@RunTime@VIP@@0PAUtreeRep_struct@1@XXXX2XX2PAPAU21@PAXPAX@Z 
01:00034434 ?_present_treerep/1nf$1@redBlackTreeRep@@SAXPAUpresent_treerep/1nf$1_struct@1@PAPAUtuple_struct@core@@PAXPAX@Z 
01:00034474 ?_present_treeRep@redBlackTreeRep@@SAXQAVrTypeLibrary@TypeLibraries@RunTime@VIP@@0PAUtreeRep_struct@1@XXPAPAUpresentation_struct@presenter@@@Z 
--- From 'Obj\arraym_inline.F665267A.obj'
01:000344C0 ?newAtomic$@arrayM_inlineValue@@SAXQAV1@@XQAVrTypeLibrary@TypeLibraries@RunTime@VIP@@PBUpositive@core@@@Z  (Idle)
01:000344D8 ?newNonAtomic$@arrayM_inlineValue@@SAXQAV1@@XQAVrTypeLibrary@TypeLibraries@RunTime@VIP@@PBUpositive@core@@@Z  (Idle)
01:000344F0 ?new$@arrayM_inlineValue@@SAXQAV1@@XQAVrTypeLibrary@TypeLibraries@RunTime@VIP@@PBUpositive@core@@PAUboolean_struct@_builtIn@@@Z 
01:00034534 ?newPointer$@arrayM_inlineValue@@SAXQAV1@@XQAVrTypeLibrary@TypeLibraries@RunTime@VIP@@PAXPBUpositive@core@@@Z 
01:0003456C ?new_list$@arrayM_inlineValue@@SAXQAV1@@XQAVrTypeLibrary@TypeLibraries@RunTime@VIP@@PAU?$__packedList_struct@X@@PAUboolean_struct@_builtIn@@@Z  (Idle)
01:000345E0 ?_clone$@arrayM_inlineValue@@SAXQAVmapM@@@XXPAPAV2@@PAXPAX@Z 
01:0003460C ?_tryGetElemPointer$@arrayM_inlineValue@@SAXQAV1@@XPBUpositive@core@@PAPAX@Z  (Idle)
01:00034664 ?_tryGet_site$@arrayM_inlineValue@@SAXQAVmapSupportSite@@collectionSupport@@XXXPAX@Z 
01:000346A4 ?set_site$@arrayM_inlineValue@@SAXQAVmapMSupportSite@@collectionSupport@@XXXX@Z 
01:00034738 ?removeKey_site$@arrayM_inlineValue@@SAXQAVmapMSupportSite@@collectionSupport@@XXX@Z 
01:00034750 ?clear$@arrayM_inlineValue@@SAXQAVmodifiable@@@X@Z 
01:00034768 ?_getAll_nd_site$@arrayM_inlineValue@@SAXQAVmapSupportSite@@collectionSupport@@XXPAPAUtuple_struct@core@@PAXPAX@Z 
01:00034784 ?_upFrom_nd_site$@arrayM_inlineValue@@SAXQAVmapSupportSite@@collectionSupport@@XXXPAPAUtuple_struct@core@@PAXPAX@Z 
01:00034808 ?_downFrom_nd$@arrayM_inlineValue@@SAXQAVmap@@@XXXPAPAUtuple_struct@core@@PAXPAX@Z 
01:00034884 ?elemSize$@arrayM_inlineValue@@SGPBUbyteCount@core@@QAV1@@X@Z 
01:000348A4 ?_headPtr@arrayM_inlineValue@@SAXQAVarrayM_inline@@@XPAX@Z 
01:000348B8 ?_new@arrayM_inlineValue@@SAXQAVrTypeLibrary@TypeLibraries@RunTime@VIP@@PBUpositive@core@@PAUboolean_struct@_builtIn@@PAPAVarrayM_inline@@@PAX@Z  (Idle)
01:000348EC ?_newAtomic@arrayM_inlineValue@@SAXQAVrTypeLibrary@TypeLibraries@RunTime@VIP@@PBUpositive@core@@PAPAVarrayM_inline@@@PAX@Z  (Idle)
01:0003491C ?_newNonAtomic@arrayM_inlineValue@@SAXQAVrTypeLibrary@TypeLibraries@RunTime@VIP@@PBUpositive@core@@PAPAVarrayM_inline@@@PAX@Z  (Idle)
01:0003494C ?_newPointer@arrayM_inlineValue@@SAXQAVrTypeLibrary@TypeLibraries@RunTime@VIP@@PAXPBUpositive@core@@PAPAVarrayM_inline@@@PAX@Z  (Idle)
01:00034980 ?_new_list@arrayM_inlineValue@@SAXQAVrTypeLibrary@TypeLibraries@RunTime@VIP@@PAU?$__packedList_struct@X@@PAUboolean_struct@_builtIn@@PAPAVarrayM_inline@@@PAX@Z  (Idle)
01:000349B4 ?_object_typelib_initializer$@arrayM_inlineValue@@SGXQAV1@@XQAVrTypeLibrary@TypeLibraries@RunTime@VIP@@@Z 
01:000349CC ?data@arrayM_inlineValue@@SGPAXQAVarrayM_inline@@@X@Z 
01:000349D8 ?size@arrayM_inlineValue@@SGPBUpositive@core@@QAVarrayM_inline@@@X@Z 
01:000349E4 ?new$@arrayM_inline@@SAXQAV1@@XQAVrTypeLibrary@TypeLibraries@RunTime@VIP@@PBUpositive@core@@@Z  (Idle)
01:00034F2C ?isInlineAtomicFunctor@arrayM_inline@@SAXQAVtypeLibrary@@reflection@pfc@@@Z 
01:000351A0 ?_atLocation_explicit$@arrayM_inline@@SAXQAV1@@XPAUprogramPoint_struct@core@@PBUpositive@4@PAPAX@Z  (Idle)
01:000351FC ?_tryAtLocation$@arrayM_inline@@SAXQAV1@@XPBUpositive@core@@PAPAX@Z  (Idle)
01:00035254 ?setInline$@arrayM_inline@@SAXQAV1@@XPAXX@Z 
01:00035274 ?_getInline$@arrayM_inline@@SAXQAV1@@XPAXPAX@Z 
01:000352C0 ?_get1$@arrayM_inline@@SAXQAV1@@XPAXPAX@Z 
01:000352E8 ?_get2$@arrayM_inline@@SAXQAV1@@XPAXPAX@Z 
01:00035310 ?_get4$@arrayM_inline@@SAXQAV1@@XPAXPAX@Z 
01:00035334 ?_get8$@arrayM_inline@@SAXQAV1@@XPAXPAX@Z 
01:0003535C ?set1$@arrayM_inline@@SAXQAV1@@XPAXX@Z 
01:0003538C ?set2$@arrayM_inline@@SAXQAV1@@XPAXX@Z 
01:000353BC ?set4$@arrayM_inline@@SAXQAV1@@XPAXX@Z 
01:000353EC ?set8$@arrayM_inline@@SAXQAV1@@XPAXX@Z 
01:0003541C ?newPointer$@arrayM_inline@@SAXQAV1@@XQAVrTypeLibrary@TypeLibraries@RunTime@VIP@@PAXPBUpositive@core@@@Z  (Idle)
01:00035444 ?newHead$@arrayM_inline@@SAXQAV1@@XQAVrTypeLibrary@TypeLibraries@RunTime@VIP@@XPBUpositive@core@@@Z  (Idle)
01:00035450 ?newFromList$@arrayM_inline@@SAXQAV1@@XQAVrTypeLibrary@TypeLibraries@RunTime@VIP@@PAU?$__packedList_struct@X@@@Z  (Idle)
01:000354C4 ?new$@arrayM_inline@@SAXQAV1@@XQAVrTypeLibrary@TypeLibraries@RunTime@VIP@@PBUpositive@core@@PAUboolean_struct@_builtIn@@@Z  (Idle)
01:000354D0 ?newAtomic$@arrayM_inline@@SAXQAV1@@XQAVrTypeLibrary@TypeLibraries@RunTime@VIP@@PBUpositive@core@@@Z  (Idle)
01:000354D8 ?newNonAtomic$@arrayM_inline@@SAXQAV1@@XQAVrTypeLibrary@TypeLibraries@RunTime@VIP@@PBUpositive@core@@@Z  (Idle)
01:000354E0 ?newHead$@arrayM_inline@@SAXQAV1@@XQAVrTypeLibrary@TypeLibraries@RunTime@VIP@@XPBUpositive@core@@PAUboolean_struct@_builtIn@@@Z  (Idle)
01:000354EC ?new_list$@arrayM_inline@@SAXQAV1@@XQAVrTypeLibrary@TypeLibraries@RunTime@VIP@@PAU?$__packedList_struct@X@@PAUboolean_struct@_builtIn@@@Z  (Idle)
01:000354F8 ?newPointer$@arrayM_inline@@SAXQAV1@@XQAVrTypeLibrary@TypeLibraries@RunTime@VIP@@PAXPBUpositive@core@@PAUboolean_struct@_builtIn@@@Z  (Idle)
01:00035504 ?_clone$@arrayM_inline@@SAXQAVmapM@@@XXPAPAV2@@PAXPAX@Z 
01:00035530 ?_tryGet_site$@arrayM_inline@@SAXQAVmapSupportSite@@collectionSupport@@XXXPAX@Z 
01:00035570 ?set_site$@arrayM_inline@@SAXQAVmapMSupportSite@@collectionSupport@@XXXX@Z 
01:000355B4 ?removeKey_site$@arrayM_inline@@SAXQAVmapMSupportSite@@collectionSupport@@XXX@Z 
01:000355CC ?clear$@arrayM_inline@@SAXQAVmodifiable@@@X@Z 
01:000355E4 ?_getAll_nd_site$@arrayM_inline@@SAXQAVmapSupportSite@@collectionSupport@@XXPAPAUtuple_struct@core@@PAXPAX@Z 
01:00035600 ?_upFrom_nd_site$@arrayM_inline@@SAXQAVmapSupportSite@@collectionSupport@@XXXPAPAUtuple_struct@core@@PAXPAX@Z 
01:00035684 ?_downFrom_nd$@arrayM_inline@@SAXQAVmap@@@XXXPAPAUtuple_struct@core@@PAXPAX@Z 
01:00035700 ?elemSize$@arrayM_inline@@SGPBUbyteCount@core@@QAV1@@X@Z 
01:00035720 ?_headPtr@arrayM_inline@@SAXQAV1@@XPAX@Z 
01:00035734 ?_new@arrayM_inline@@SAXQAVrTypeLibrary@TypeLibraries@RunTime@VIP@@PBUpositive@core@@PAPAV1@@PAX@Z  (Idle)
01:00035764 ?_newHead@arrayM_inline@@SAXQAVrTypeLibrary@TypeLibraries@RunTime@VIP@@XPBUpositive@core@@PAPAV1@@PAX@Z  (Idle)
01:00035798 ?_newPointer@arrayM_inline@@SAXQAVrTypeLibrary@TypeLibraries@RunTime@VIP@@PAXPBUpositive@core@@PAPAV1@@PAX@Z 
01:000357CC ?_newFromList@arrayM_inline@@SAXQAVrTypeLibrary@TypeLibraries@RunTime@VIP@@PAU?$__packedList_struct@X@@PAPAV1@@PAX@Z 
01:000357FC ?_new@arrayM_inline@@SAXQAVrTypeLibrary@TypeLibraries@RunTime@VIP@@PBUpositive@core@@PAUboolean_struct@_builtIn@@PAPAV1@@PAX@Z  (Idle)
01:00035830 ?_newAtomic@arrayM_inline@@SAXQAVrTypeLibrary@TypeLibraries@RunTime@VIP@@PBUpositive@core@@PAPAV1@@PAX@Z  (Idle)
01:00035860 ?_newNonAtomic@arrayM_inline@@SAXQAVrTypeLibrary@TypeLibraries@RunTime@VIP@@PBUpositive@core@@PAPAV1@@PAX@Z  (Idle)
01:00035890 ?_newHead@arrayM_inline@@SAXQAVrTypeLibrary@TypeLibraries@RunTime@VIP@@XPBUpositive@core@@PAUboolean_struct@_builtIn@@PAPAV1@@PAX@Z  (Idle)
01:000358C4 ?_newPointer@arrayM_inline@@SAXQAVrTypeLibrary@TypeLibraries@RunTime@VIP@@PAXPBUpositive@core@@PAUboolean_struct@_builtIn@@PAPAV1@@PAX@Z  (Idle)
01:000358F8 ?_new_list@arrayM_inline@@SAXQAVrTypeLibrary@TypeLibraries@RunTime@VIP@@PAU?$__packedList_struct@X@@PAUboolean_struct@_builtIn@@PAPAV1@@PAX@Z  (Idle)
01:0003592C ?_object_typelib_initializer$@arrayM_inline@@SGXQAV1@@XQAVrTypeLibrary@TypeLibraries@RunTime@VIP@@@Z 
01:00035944 ?data@arrayM_inline@@SGPAXQAV1@@X@Z 
01:00035950 ?size@arrayM_inline@@SGPBUpositive@core@@QAV1@@X@Z 
01:00035ECC arrayM_inlineValue{@ItemType}?_initObject@@@QAGXQAV1@H@Z 
01:00035F10 ?@create_object@arrayM_inlineValue@@SGQAV1@@XQAVrTypeLibrary@TypeLibraries@RunTime@VIP@@@Z 
01:00035F34 arrayM_inlineValue{@ItemType}?_InternalFinalizer@@@QAGXQAV1@@Z 
01:000364B4 arrayM_inline{@ItemType}?_initObject@@@QAGXQAV1@H@Z 
01:000364F8 ?@create_object@arrayM_inline@@SGQAV1@@XQAVrTypeLibrary@TypeLibraries@RunTime@VIP@@@Z 
01:0003651C arrayM_inline{@ItemType}?_InternalFinalizer@@@QAGXQAV1@@Z 
--- From 'Obj\mapm_redblack.875A0474.obj'
01:00036530 ?new$@mapM_redBlack@@SAXQAV1@@XXQAVrTypeLibrary@TypeLibraries@RunTime@VIP@@1@Z  (Idle)
01:0003655C ?newCustom$@mapM_redBlack@@SAXQAV1@@XXQAVrTypeLibrary@TypeLibraries@RunTime@VIP@@1PA$?_comparator$1@core@@SAXXXPAPAUcompareResult_struct@_builtIn@@@Z$@Z  (Idle)
01:00036588 ?_clone$@mapM_redBlack@@SAXQAVmapM@@@XXPAPAV2@@PAXPAX@Z 
01:000365C0 ?newInit$@mapM_redBlack@@SAXQAV1@@XXQAVrTypeLibrary@TypeLibraries@RunTime@VIP@@1PAUtree_struct@redBlackTree@@XX@Z 
01:000365F0 ?set_site$@mapM_redBlack@@SAXQAVmapMSupportSite@@collectionSupport@@XXXX@Z 
01:00036628 ?_tryGet_site$@mapM_redBlack@@SAXQAVmapSupportSite@@collectionSupport@@XXXPAX@Z 
01:00036668 ?_getAll_nd_site$@mapM_redBlack@@SAXQAVmapSupportSite@@collectionSupport@@XXPAPAUtuple_struct@core@@PAXPAX@Z 
01:000366A0 ?removeKey_site$@mapM_redBlack@@SAXQAVmapMSupportSite@@collectionSupport@@XXX@Z 
01:000366F0 ?clear$@mapM_redBlack@@SAXQAVmodifiable@@@X@Z 
01:00036720 ?_upFrom_nd_site$@mapM_redBlack@@SAXQAVmapSupportSite@@collectionSupport@@XXXPAPAUtuple_struct@core@@PAXPAX@Z 
01:00036760 ?_downFrom_nd$@mapM_redBlack@@SAXQAVmap@@@XXXPAPAUtuple_struct@core@@PAXPAX@Z 
--- From 'Obj\list.A75CEA31.obj'
01:000367A0 ?_new@mapM_redBlack@@SAXQAVrTypeLibrary@TypeLibraries@RunTime@VIP@@0PAPAVmapM@@@PAXPAX@Z 
--- From 'Obj\mapm_redblack.875A0474.obj'
01:000367D4 ?_newCustom@mapM_redBlack@@SAXQAVrTypeLibrary@TypeLibraries@RunTime@VIP@@0PA$?_comparator$1@core@@SAXXXPAPAUcompareResult_struct@_builtIn@@@Z$PAPAVmapM@@@PAXPAX@Z  (Idle)
01:00036808 ?_newInit@mapM_redBlack@@SAXQAVrTypeLibrary@TypeLibraries@RunTime@VIP@@0PAUtree_struct@redBlackTree@@XXPAPAVmapM@@@PAXPAX@Z 
01:0003683C ?_object_typelib_initializer$@mapM_redBlack@@SGXQAV1@@XXQAVrTypeLibrary@TypeLibraries@RunTime@VIP@@1@Z 
01:00036D98 mapM_redBlack{@Key,@Data}?_initObject@@@QAGXQAV1@H@Z 
01:00036DE0 ?@create_object@mapM_redBlack@@SGQAV1@@XXQAVrTypeLibrary@TypeLibraries@RunTime@VIP@@0@Z 
01:00036E08 mapM_redBlack{@Key,@Data}?_InternalFinalizer@@@QAGXQAV1@@Z 
--- From 'Obj\setm_redblack.16EF8DC5.obj'
01:00036E20 ?new$@setM_redBlack@@SAXQAV1@@XQAVrTypeLibrary@TypeLibraries@RunTime@VIP@@@Z  (Idle)
01:00036E48 ?new$@setM_redBlack@@SAXQAV1@@XQAVrTypeLibrary@TypeLibraries@RunTime@VIP@@PAU?$__packedList_struct@X@@@Z  (Idle)
01:00036E68 ?newSingleton$@setM_redBlack@@SAXQAV1@@XQAVrTypeLibrary@TypeLibraries@RunTime@VIP@@X@Z  (Idle)
01:00036E88 ?newCustom$@setM_redBlack@@SAXQAV1@@XQAVrTypeLibrary@TypeLibraries@RunTime@VIP@@PA$?_comparator$1@core@@SAXXXPAPAUcompareResult_struct@_builtIn@@@Z$@Z  (Idle)
01:00036EB0 ?newInternal$@setM_redBlack@@SAXQAV1@@XQAVrTypeLibrary@TypeLibraries@RunTime@VIP@@PAUset_struct@redBlackSet@@X@Z 
01:00036ECC ?_clone$@setM_redBlack@@SAXQAVsetM@@@XPAPAV2@@PAX@Z 
01:00036EFC ?contains$@setM_redBlack@@SAXQAVcollection@@@XX@Z 
01:00036F2C ?_getAll_nd_site$@setM_redBlack@@SAXQAVcollectionSupportSite@@collectionSupport@@XPAX@Z 
01:00036F5C ?_upFrom_nd$@setM_redBlack@@SAXQAVset@@@XXPAX@Z 
01:00036F94 ?_downFrom_nd$@setM_redBlack@@SAXQAVset@@@XXPAX@Z 
01:00036FCC ?clear$@setM_redBlack@@SAXQAVmodifiable@@@X@Z 
01:00036FF8 ?insert_site$@setM_redBlack@@SAXQAVmodifiableSupportSite@@collectionSupport@@XX@Z 
01:00037028 ?remove_site$@setM_redBlack@@SAXQAVmodifiableSupportSite@@collectionSupport@@XX@Z 
--- From 'Obj\list.A75CEA31.obj'
01:00037058 ?_new@setM_redBlack@@SAXQAVrTypeLibrary@TypeLibraries@RunTime@VIP@@PAPAVsetM@@@PAX@Z 
--- From 'Obj\setm_redblack.16EF8DC5.obj'
01:00037084 ?_new@setM_redBlack@@SAXQAVrTypeLibrary@TypeLibraries@RunTime@VIP@@PAU?$__packedList_struct@X@@PAPAVsetM@@@PAX@Z  (Idle)
01:000370B4 ?_newSingleton@setM_redBlack@@SAXQAVrTypeLibrary@TypeLibraries@RunTime@VIP@@XPAPAVsetM@@@PAX@Z  (Idle)
--- From 'Obj\list.A75CEA31.obj'
01:000370E4 ?_newCustom@setM_redBlack@@SAXQAVrTypeLibrary@TypeLibraries@RunTime@VIP@@PA$?_comparator$1@core@@SAXXXPAPAUcompareResult_struct@_builtIn@@@Z$PAPAVsetM@@@PAX@Z 
--- From 'Obj\setm_redblack.16EF8DC5.obj'
01:00037114 ?_newInternal@setM_redBlack@@SAXQAVrTypeLibrary@TypeLibraries@RunTime@VIP@@PAUset_struct@redBlackSet@@XPAPAVsetM@@@PAX@Z 
01:00037144 ?_object_typelib_initializer$@setM_redBlack@@SGXQAV1@@XQAVrTypeLibrary@TypeLibraries@RunTime@VIP@@@Z 
01:0003749C setM_redBlack{@Type}?_initObject@@@QAGXQAV1@H@Z 
01:000374DC ?@create_object@setM_redBlack@@SGQAV1@@XQAVrTypeLibrary@TypeLibraries@RunTime@VIP@@@Z 
01:00037500 setM_redBlack{@Type}?_InternalFinalizer@@@QAGXQAV1@@Z 
--- From 'Obj\varm.B882E173.obj'
01:00037510 ?new$@varM_unsigned@@SAXQAV1@@@Z  (Idle)
01:00037524 ?new$@varM_unsigned@@SAXQAV1@@I@Z 
01:00037544 ?newModel_unary$@varM_unsigned@@SAXQAV1@@QAVvarM@@@IPA$?_function$2@core@@SAXIPAI@Z$@Z  (Idle)
01:00037570 ?newModel_binary$@varM_unsigned@@SAXQAV1@@QAVvarM@@@I1PA$?_function$3@core@@SAXIIPAI@Z$@Z  (Idle)
01:000375A4 ?_add$@varM_unsigned@@SAXQAV1@@IPAI@Z 
01:000375D4 ?_sub$@varM_unsigned@@SAXQAV1@@IPAI@Z 
01:00037604 ?_max$@varM_unsigned@@SAXQAV1@@IPAI@Z 
01:00037640 ?_min$@varM_unsigned@@SAXQAV1@@IPAI@Z 
01:0003767C ?_inc$@varM_unsigned@@SAXQAV1@@PAI@Z 
01:000376B8 ?_dec$@varM_unsigned@@SAXQAV1@@PAI@Z 
01:000376F4 ?_setF$@varM_unsigned@@SAXQAV1@@IPAI@Z 
01:00037708 ?add$@varM_unsigned@@SAXQAV1@@I@Z 
01:00037728 ?sub$@varM_unsigned@@SAXQAV1@@I@Z 
01:00037748 ?max$@varM_unsigned@@SAXQAV1@@I@Z 
01:00037768 ?min$@varM_unsigned@@SAXQAV1@@I@Z 
01:00037788 ?inc$@varM_unsigned@@SAXQAV1@@@Z 
01:000377A4 ?dec$@varM_unsigned@@SAXQAV1@@@Z 
01:000377C0 ?_new@varM_unsigned@@SAXPAPAV1@@@Z  (Idle)
01:000377E8 ?_new@varM_unsigned@@SAXIPAPAV1@@@Z  (Idle)
01:00037810 ?_newModel_unary@varM_unsigned@@SAXQAVvarM@@@IPA$?_function$2@core@@SAXIPAI@Z$PAPAV1@@@Z  (Idle)
01:0003783C ?_newModel_binary@varM_unsigned@@SAXQAVvarM@@@I0PA$?_function$3@core@@SAXIIPAI@Z$PAPAV1@@@Z  (Idle)
01:0003786C ?new$@varM_reference@@SAXQAV1@@XQAVrTypeLibrary@TypeLibraries@RunTime@VIP@@PAUreference_struct@1/1@X@Z  (Idle)
01:00037880 ?_value@varM_reference@@SAXQAVvarM@@@XPAX@Z 
01:000378AC ?value@varM_reference@@SAXQAVvarM@@@XX@Z 
01:00037904 ?modified@varM_reference@@SGQAVevent0@@@QAVvarM@@@X@Z 
01:0003791C ?_presenter$@varM_reference@@SAXQAVvarM@@@XPAPAUpresentation_struct@presenter@@@Z 
01:0003795C ?_new@varM_reference@@SAXQAVrTypeLibrary@TypeLibraries@RunTime@VIP@@PAUreference_struct@1/1@XPAPAVvarM@@@PAX@Z  (Idle)
01:0003798C ?_object_typelib_initializer$@varM_reference@@SGXQAV1@@XQAVrTypeLibrary@TypeLibraries@RunTime@VIP@@@Z 
01:000379A4 ?new$@varM_optional@@SAXQAV1@@XQAVrTypeLibrary@TypeLibraries@RunTime@VIP@@@Z  (Idle)
01:000379E8 ?new$@varM_optional@@SAXQAV1@@XQAVrTypeLibrary@TypeLibraries@RunTime@VIP@@X@Z  (Idle)
01:00037A3C ?_tryGet$@varM_optional@@SAXQAV1@@XPAX@Z 
01:00037A84 ?noValue$@varM_optional@@SAXQAV1@@X@Z 
01:00037AAC ?set$@varM_optional@@SAXQAV1@@XX@Z 
01:00037AD4 ?unset$@varM_optional@@SAXQAV1@@X@Z 
01:00037AF0 ?_new@varM_optional@@SAXQAVrTypeLibrary@TypeLibraries@RunTime@VIP@@PAPAV1@@PAX@Z 
01:00037B1C ?_new@varM_optional@@SAXQAVrTypeLibrary@TypeLibraries@RunTime@VIP@@XPAPAV1@@PAX@Z  (Idle)
01:00037B4C ?_object_typelib_initializer$@varM_optional@@SGXQAV1@@XQAVrTypeLibrary@TypeLibraries@RunTime@VIP@@@Z 
01:00037B64 ?_mk_tl_0_varM{@Term}$imp$$@varM_optional@@SGQAVrTypeLibrary@TypeLibraries@RunTime@VIP@@QAV1@@X@Z 
01:00037BA0 ?new$@varM_lazy@@SAXQAV1@@XQAVrTypeLibrary@TypeLibraries@RunTime@VIP@@PA$?_function$1@core@@SAXPAX@Z$@Z  (Idle)
01:00037BB4 ?modified@varM_lazy@@SGQAVevent0@@@QAVvarM@@@X@Z 
01:00037C28 ?_value@varM_lazy@@SAXQAVvarM@@@XPAX@Z 
01:00037C90 ?value@varM_lazy@@SAXQAVvarM@@@XX@Z 
01:00037CB8 ?plainSet$@varM_lazy@@SAXQAV1@@XX@Z 
01:00037CDC ?listenerSet$@varM_lazy@@SAXQAV1@@XX@Z 
01:00037D9C ?clear$@varM_lazy@@SAXQAV1@@X@Z 
01:00037DF0 ?clear$@varM_lazy@@SAXQAV1@@XPA$?_function$1@core@@SAXPAX@Z$@Z 
01:00037E04 ?_presenter$@varM_lazy@@SAXQAVvarM@@@XPAPAUpresentation_struct@presenter@@@Z 
01:00037E98 ?_new@varM_lazy@@SAXQAVrTypeLibrary@TypeLibraries@RunTime@VIP@@PA$?_function$1@core@@SAXPAX@Z$PAPAV1@@PAX@Z  (Idle)
01:00037EC8 ?_object_typelib_initializer$@varM_lazy@@SGXQAV1@@XQAVrTypeLibrary@TypeLibraries@RunTime@VIP@@@Z 
01:00037EE0 ?_object_facts_initializer$_1$@varM_lazy@@SGXQAV1@@X@Z 
01:00037EFC ?_object_facts_initializer$_2$@varM_lazy@@SGXQAV1@@X@Z 
01:00037F30 ?_object_facts_initializer$@varM_lazy@@SGXQAV1@@X@Z 
01:00037F50 ?new$@varM_integer@@SAXQAV1@@@Z  (Idle)
01:00037F64 ?new$@varM_integer@@SAXQAV1@@H@Z 
01:00037F84 ?newModel_unary$@varM_integer@@SAXQAV1@@QAVvarM@@@HPA$?_function$2@core@@SAXHPAH@Z$@Z  (Idle)
01:00037FB0 ?newModel_binary$@varM_integer@@SAXQAV1@@QAVvarM@@@H1PA$?_function$3@core@@SAXHHPAH@Z$@Z  (Idle)
01:00037FE4 ?_add$@varM_integer@@SAXQAV1@@HPAH@Z 
01:00038010 ?_sub$@varM_integer@@SAXQAV1@@HPAH@Z 
01:0003803C ?_max$@varM_integer@@SAXQAV1@@HPAH@Z 
01:00038078 ?_min$@varM_integer@@SAXQAV1@@HPAH@Z 
01:000380B4 ?_inc$@varM_integer@@SAXQAV1@@PAH@Z 
01:000380EC ?_dec$@varM_integer@@SAXQAV1@@PAH@Z 
01:00038124 ?_setF$@varM_integer@@SAXQAV1@@HPAH@Z 
01:00038138 ?add$@varM_integer@@SAXQAV1@@H@Z 
01:00038158 ?sub$@varM_integer@@SAXQAV1@@H@Z 
01:00038178 ?max$@varM_integer@@SAXQAV1@@H@Z 
01:00038198 ?min$@varM_integer@@SAXQAV1@@H@Z 
01:000381B8 ?inc$@varM_integer@@SAXQAV1@@@Z 
01:000381D4 ?dec$@varM_integer@@SAXQAV1@@@Z 
01:000381F0 ?_new@varM_integer@@SAXPAPAV1@@@Z  (Idle)
01:00038218 ?_new@varM_integer@@SAXHPAPAV1@@@Z  (Idle)
01:00038240 ?_newModel_unary@varM_integer@@SAXQAVvarM@@@HPA$?_function$2@core@@SAXHPAH@Z$PAPAV1@@@Z  (Idle)
01:0003826C ?_newModel_binary@varM_integer@@SAXQAVvarM@@@H0PA$?_function$3@core@@SAXHHPAH@Z$PAPAV1@@@Z  (Idle)
01:0003829C ?new$@varM_boolean@@SAXQAV1@@@Z  (Idle)
01:000382B4 ?new$@varM_boolean@@SAXQAV1@@PAUboolean_struct@_builtIn@@@Z 
01:000382D4 ?newModel_and$@varM_boolean@@SAXQAV1@@QAVvarM@@@PAUboolean_struct@_builtIn@@1@Z  (Idle)
01:00038308 ?newModel_or$@varM_boolean@@SAXQAV1@@QAVvarM@@@PAUboolean_struct@_builtIn@@1@Z  (Idle)
01:0003833C ?newModel_xor$@varM_boolean@@SAXQAV1@@QAVvarM@@@PAUboolean_struct@_builtIn@@1@Z  (Idle)
01:00038370 ?newModel_not$@varM_boolean@@SAXQAV1@@QAVvarM@@@PAUboolean_struct@_builtIn@@@Z  (Idle)
01:00038398 ?and_$@varM_boolean@@SAXQAV1@@PAUboolean_struct@_builtIn@@@Z 
01:000383B8 ?or_$@varM_boolean@@SAXQAV1@@PAUboolean_struct@_builtIn@@@Z 
01:000383D8 ?xor$@varM_boolean@@SAXQAV1@@PAUboolean_struct@_builtIn@@@Z 
01:0003841C ?not_$@varM_boolean@@SAXQAV1@@@Z 
01:0003845C ?isTrue$@varM_boolean@@SAXQAV1@@@Z 
01:00038484 ?isFalse$@varM_boolean@@SAXQAV1@@@Z 
01:000384AC ?setTrue$@varM_boolean@@SAXQAV1@@@Z 
01:000384C4 ?setFalse$@varM_boolean@@SAXQAV1@@@Z 
01:000384DC ?_new@varM_boolean@@SAXPAPAV1@@@Z  (Idle)
01:00038504 ?_new@varM_boolean@@SAXPAUboolean_struct@_builtIn@@PAPAV1@@@Z 
01:0003852C ?_newModel_and@varM_boolean@@SAXQAVvarM@@@PAUboolean_struct@_builtIn@@0PAPAV1@@@Z  (Idle)
01:00038558 ?_newModel_or@varM_boolean@@SAXQAVvarM@@@PAUboolean_struct@_builtIn@@0PAPAV1@@@Z  (Idle)
01:00038584 ?_newModel_xor@varM_boolean@@SAXQAVvarM@@@PAUboolean_struct@_builtIn@@0PAPAV1@@@Z  (Idle)
01:000385B0 ?_newModel_not@varM_boolean@@SAXQAVvarM@@@PAUboolean_struct@_builtIn@@PAPAV1@@@Z  (Idle)
01:000385D8 ?new$@varM@@SAXQAV1@@XQAVrTypeLibrary@TypeLibraries@RunTime@VIP@@X@Z 
01:000385EC ?newmodel_unary/2np$1@varM@@SAXPAUnewmodel_unary/2np$1_struct@1/1@QAV1@@X@Z 
01:00038644 ?newmodel_unary/2np$2@varM@@SAXPAUnewmodel_unary/2np$2_struct@1/1@@Z 
01:000386B0 ?newModel_unary$@varM@@SAXQAV1@@XQAVrTypeLibrary@TypeLibraries@RunTime@VIP@@0PA$?_function$2@core@@SAXXPAX@Z$@Z 
01:000387B0 ?newmodel_binary/3np$1@varM@@SAXPAUnewmodel_binary/3np$1_struct@1/1@QAV1@@X@Z 
01:00038824 ?newmodel_binary/3np$2@varM@@SAXPAUnewmodel_binary/3np$2_struct@1/1@@Z 
01:00038898 ?newModel_binary$@varM@@SAXQAV1@@XQAVrTypeLibrary@TypeLibraries@RunTime@VIP@@00PA$?_function$3@core@@SAXXXPAX@Z$@Z 
01:000389E8 ?modified@varM@@SGQAVevent0@@@QAV1@@X@Z 
01:00038A5C ?_value@varM@@SAXQAV1@@XPAX@Z 
01:00038A70 ?value@varM@@SAXQAV1@@XX@Z 
01:00038A98 ?plainSet$@varM@@SAXQAV1@@XX@Z 
01:00038AAC ?listenerSet$@varM@@SAXQAV1@@XX@Z 
01:00038B00 ?_presenter$@varM@@SAXQAV1@@XPAPAUpresentation_struct@presenter@@@Z 
--- From 'Obj\event.D92D3A63.obj'
01:00038B30 ?_new@varM@@SAXQAVrTypeLibrary@TypeLibraries@RunTime@VIP@@XPAPAV1@@PAX@Z 
--- From 'Obj\varm.B882E173.obj'
01:00038B60 ?_newModel_unary@varM@@SAXQAVrTypeLibrary@TypeLibraries@RunTime@VIP@@QAV1@@XPA$?_function$2@core@@SAXXPAX@Z$PAPAV1@@PAX@Z  (Idle)
01:00038B94 ?_newModel_binary@varM@@SAXQAVrTypeLibrary@TypeLibraries@RunTime@VIP@@QAV1@@X1PA$?_function$3@core@@SAXXXPAX@Z$PAPAV1@@PAX@Z  (Idle)
01:00038BC8 ?_object_typelib_initializer$@varM@@SGXQAV1@@XQAVrTypeLibrary@TypeLibraries@RunTime@VIP@@@Z 
01:00038BE0 ?_object_facts_initializer$_1$@varM@@SGXQAV1@@X@Z 
01:00038BF8 ?_object_facts_initializer$_2$@varM@@SGXQAV1@@X@Z 
01:00038C2C ?_object_facts_initializer$@varM@@SGXQAV1@@X@Z 
01:00038CE4 varM_unsigned?_initObject@@@QAGXQAV1@H@Z 
01:00038D18 ?@create_object@varM_unsigned@@SGQAV1@@XZ 
01:00038D34 varM_unsigned?_InternalFinalizer@@@QAGXQAV1@@Z 
01:00038D4C varM_reference{@Term}?_initObject@@@QAGXQAV1@H@Z 
01:00038D74 ?@create_object@varM_reference@@SGQAV1@@XQAVrTypeLibrary@TypeLibraries@RunTime@VIP@@@Z 
01:00038D98 varM_reference{@Term}?_InternalFinalizer@@@QAGXQAV1@@Z 
01:00038E1C varM_optional{@Term}?_initObject@@@QAGXQAV1@H@Z 
01:00038E6C ?@create_object@varM_optional@@SGQAV1@@XQAVrTypeLibrary@TypeLibraries@RunTime@VIP@@@Z 
01:00038E90 varM_optional{@Term}?_InternalFinalizer@@@QAGXQAV1@@Z 
01:00038EA8 varM_lazy{@Term}?_initObject@@@QAGXQAV1@H@Z 
01:00038EDC ?@create_object@varM_lazy@@SGQAV1@@XQAVrTypeLibrary@TypeLibraries@RunTime@VIP@@@Z 
01:00038F00 varM_lazy{@Term}?_InternalFinalizer@@@QAGXQAV1@@Z 
01:00038FA4 varM_integer?_initObject@@@QAGXQAV1@H@Z 
01:00038FD8 ?@create_object@varM_integer@@SGQAV1@@XZ 
01:00038FF4 varM_integer?_InternalFinalizer@@@QAGXQAV1@@Z 
01:0003909C varM_boolean?_initObject@@@QAGXQAV1@H@Z 
01:000390D0 ?@create_object@varM_boolean@@SGQAV1@@XZ 
01:000390EC varM_boolean?_InternalFinalizer@@@QAGXQAV1@@Z 
01:00039104 varM{@Term}?_initObject@@@QAGXQAV1@H@Z 
01:00039138 ?@create_object@varM@@SGQAV1@@XQAVrTypeLibrary@TypeLibraries@RunTime@VIP@@@Z 
01:0003915C varM{@Term}?_InternalFinalizer@@@QAGXQAV1@@Z 
--- From 'Obj\collectionmsupport.3A44ED4E.obj'
01:00039170 ?new$@collectionMsupport@collectionSupport@@SAXQAV1@2@XQAVrTypeLibrary@TypeLibraries@RunTime@VIP@@QAVcollectionMsupportSite@@2@X@Z 
01:000391B8 ?_new@collectionMsupport@collectionSupport@@SAXQAVrTypeLibrary@TypeLibraries@RunTime@VIP@@QAVcollectionMsupportSite@@2@XPAPAV1@2@PAX@Z  (Idle)
01:000391E4 ?_object_typelib_initializer$@collectionMsupport@collectionSupport@@SGXQAV1@2@XQAVrTypeLibrary@TypeLibraries@RunTime@VIP@@@Z 
01:00039374 collectionSupport\collectionMsupport{@Type}?_initObject@@@QAGXQAV1@H@Z 
01:000393E0 ?@create_object@collectionMsupport@collectionSupport@@SGQAV1@2@XQAVrTypeLibrary@TypeLibraries@RunTime@VIP@@@Z 
01:00039404 collectionSupport\collectionMsupport{@Type}?_InternalFinalizer@@@QAGXQAV1@@Z 
--- From 'Obj\mapsupport.C7248B7B.obj'
01:00039420 ?new$@collectionSupport@1@SAXQAV1@1@XQAVrTypeLibrary@TypeLibraries@RunTime@VIP@@QAVcollectionSupportSite@@1@X@Z 
--- From 'Obj\collectionsupport.A039CC0D.obj'
01:00039434 ?isEmpty$@collectionSupport@1@SAXQAV1@1@X@Z 
01:0003947C ?_tryGetFirst$@collectionSupport@1@SAXQAV1@1@XPAX@Z 
01:000394A4 ?asList@collectionSupport@1@SGPAU?$__packedList_struct@X@@QAV1@1@X@Z 
01:00039510 ?_presenter$@collectionSupport@1@SAXQAV1@1@XPAPAUpresentation_struct@presenter@@@Z 
01:00039560 ?_getAll_nd$@collectionSupport@1@SAXQAV1@1@XPAX@Z 
01:00039588 ?_new@collectionSupport@1@SAXQAVrTypeLibrary@TypeLibraries@RunTime@VIP@@QAVcollectionSupportSite@@1@XPAPAV1@1@PAX@Z  (Idle)
01:000395B8 ?_object_typelib_initializer$@collectionSupport@1@SGXQAV1@1@XQAVrTypeLibrary@TypeLibraries@RunTime@VIP@@@Z 
--- From 'Obj\mapsupport.C7248B7B.obj'
01:000395D8 collectionSupport\collectionSupport{@Type}?_initObject@@@QAGXQAV1@H@Z 
--- From 'Obj\collectionsupport.A039CC0D.obj'
01:00039600 ?@create_object@collectionSupport@1@SGQAV1@1@XQAVrTypeLibrary@TypeLibraries@RunTime@VIP@@@Z 
--- From 'Obj\mapsupport.C7248B7B.obj'
01:00039624 collectionSupport\collectionSupport{@Type}?_InternalFinalizer@@@QAGXQAV1@@Z 
--- From 'Obj\mapmsupport.8CD6C048.obj'
01:00039630 ?new$@mapMSupport@collectionSupport@@SAXQAV1@2@XXQAVrTypeLibrary@TypeLibraries@RunTime@VIP@@1QAVmapMSupportSite@@2@XX@Z 
01:000396A8 ?insert_site$@mapMSupport@collectionSupport@@SAXQAVmodifiableSupportSite@@2@XX@Z 
01:00039710 ?set_optional$@mapMSupport@collectionSupport@@SAXQAV1@2@XXXPAUoptional_struct@core@@X@Z 
01:00039770 ?remove_site$@mapMSupport@collectionSupport@@SAXQAVmodifiableSupportSite@@2@XX@Z 
01:00039828 ?removeKeyList$@mapMSupport@collectionSupport@@SAXQAV1@2@XXPAU?$__packedList_struct@X@@@Z 
01:00039878 ?removeKeyCollection$@mapMSupport@collectionSupport@@SAXQAV1@2@XXQAVcollection@@@X@Z 
01:000398C0 ?_get_default$@mapMSupport@collectionSupport@@SAXQAVmapSupport@@2@XXXXPAX@Z 
01:00039968 ?_get_defaultLazy$@mapMSupport@collectionSupport@@SAXQAVmapSupport@@2@XXXPA$?_function$1@core@@SAXPAX@Z$PAX@Z 
01:00039A24 ?set$@mapMSupport@collectionSupport@@SAXQAV1@2@XXXX@Z 
01:00039A40 ?removeKey$@mapMSupport@collectionSupport@@SAXQAV1@2@XXX@Z 
01:00039A5C ?_get_cache$@mapMSupport@collectionSupport@@SAXQAV1@2@XXXPA$?_function$1@core@@SAXPAX@Z$PAX@Z 
01:00039A64 ?_new@mapMSupport@collectionSupport@@SAXQAVrTypeLibrary@TypeLibraries@RunTime@VIP@@0QAVmapMSupportSite@@2@XXPAPAV1@2@PAXPAX@Z  (Idle)
01:00039A98 ?_object_typelib_initializer$@mapMSupport@collectionSupport@@SGXQAV1@2@XXQAVrTypeLibrary@TypeLibraries@RunTime@VIP@@1@Z 
01:00039AB4 ?_mk_tl_0_collectionSupport\modifiableSupport{@Type}$imp$$@mapMSupport@collectionSupport@@SGQAVrTypeLibrary@TypeLibraries@RunTime@VIP@@QAV1@2@XX@Z 
01:00039D38 collectionSupport\mapMSupport{@Key,@Data}?_initObject@@@QAGXQAV1@H@Z 
01:00039DB4 ?@create_object@mapMSupport@collectionSupport@@SGQAV1@2@XXQAVrTypeLibrary@TypeLibraries@RunTime@VIP@@0@Z 
01:00039DDC collectionSupport\mapMSupport{@Key,@Data}?_InternalFinalizer@@@QAGXQAV1@@Z 
--- From 'Obj\mapsupport.C7248B7B.obj'
01:00039E00 ?new$@mapSupport@collectionSupport@@SAXQAV1@2@XXQAVrTypeLibrary@TypeLibraries@RunTime@VIP@@1QAVmapSupportSite@@2@XX@Z 
01:00039E54 ?_get$@mapSupport@collectionSupport@@SAXQAV1@2@XXXPAX@Z 
01:00039EE8 ?_get_default$@mapSupport@collectionSupport@@SAXQAV1@2@XXXXPAX@Z 
01:00039F4C ?_get_defaultLazy$@mapSupport@collectionSupport@@SAXQAV1@2@XXXPA$?_function$1@core@@SAXPAX@Z$PAX@Z 
01:00039FD0 ?_get_optional$@mapSupport@collectionSupport@@SAXQAV1@2@XXXPAPAUoptional_struct@core@@PAX@Z 
01:0003A030 ?contains$@mapSupport@collectionSupport@@SAXQAV1@2@XXPAUtuple_struct@core@@XX@Z 
01:0003A08C ?_getKey_nd$@mapSupport@collectionSupport@@SAXQAV1@2@XXPAX@Z 
01:0003A0EC ?_getValue_nd$@mapSupport@collectionSupport@@SAXQAV1@2@XXPAX@Z 
01:0003A14C ?keyList@mapSupport@collectionSupport@@SGPAU?$__packedList_struct@X@@QAV1@2@XX@Z 
01:0003A1B0 ?valueList@mapSupport@collectionSupport@@SGPAU?$__packedList_struct@X@@QAV1@2@XX@Z 
01:0003A214 ?_getFromTo_nd$@mapSupport@collectionSupport@@SAXQAV1@2@XXXXPAPAUtuple_struct@core@@PAXPAX@Z 
01:0003A29C ?_presenter$@mapSupport@collectionSupport@@SAXQAV2@2@XPAPAUpresentation_struct@presenter@@@Z 
01:0003A2F8 ?_tryGet$@mapSupport@collectionSupport@@SAXQAV1@2@XXXPAX@Z 
01:0003A33C ?_upFrom_nd$@mapSupport@collectionSupport@@SAXQAV1@2@XXXPAPAUtuple_struct@core@@PAXPAX@Z 
01:0003A364 ?_getAll_nd_site$@mapSupport@collectionSupport@@SAXQAVcollectionSupportSite@@2@XPAX@Z 
01:0003A38C ?_new@mapSupport@collectionSupport@@SAXQAVrTypeLibrary@TypeLibraries@RunTime@VIP@@0QAVmapSupportSite@@2@XXPAPAV1@2@PAXPAX@Z  (Idle)
01:0003A3C0 ?_object_typelib_initializer$@mapSupport@collectionSupport@@SGXQAV1@2@XXQAVrTypeLibrary@TypeLibraries@RunTime@VIP@@1@Z 
01:0003A3DC ?_mk_tl_0_collectionSupport\collectionSupport{@Type}$imp$$@mapSupport@collectionSupport@@SGQAVrTypeLibrary@TypeLibraries@RunTime@VIP@@QAV1@2@XX@Z 
01:0003A484 collectionSupport\mapSupport{@Key,@Data}?_initObject@@@QAGXQAV1@H@Z 
01:0003A4E0 ?@create_object@mapSupport@collectionSupport@@SGQAV1@2@XXQAVrTypeLibrary@TypeLibraries@RunTime@VIP@@0@Z 
01:0003A508 collectionSupport\mapSupport{@Key,@Data}?_InternalFinalizer@@@QAGXQAV1@@Z 
--- From 'Obj\modifiablesupport.5D48FFF1.obj'
01:0003A520 ?new$@modifiableSupport@collectionSupport@@SAXQAV1@2@XQAVrTypeLibrary@TypeLibraries@RunTime@VIP@@QAVmodifiableSupportSite@@2@X@Z 
01:0003A534 ?insertList$@modifiableSupport@collectionSupport@@SAXQAV1@2@XPAU?$__packedList_struct@X@@@Z 
01:0003A584 ?insertCollection$@modifiableSupport@collectionSupport@@SAXQAV1@2@XQAVcollection@@@X@Z 
01:0003A5CC ?insertEnumerator$@modifiableSupport@collectionSupport@@SAXQAV1@2@XPA$?_function_nd$1@core@@SAXPAX@Z$@Z 
01:0003A614 ?removeList$@modifiableSupport@collectionSupport@@SAXQAV1@2@XPAU?$__packedList_struct@X@@@Z 
01:0003A664 ?removeCollection$@modifiableSupport@collectionSupport@@SAXQAV1@2@XQAVcollection@@@X@Z 
01:0003A6AC ?_tryRemoveFirst$@modifiableSupport@collectionSupport@@SAXQAV1@2@XPAX@Z 
01:0003A6E8 ?insert$@modifiableSupport@collectionSupport@@SAXQAV1@2@XX@Z 
01:0003A704 ?remove$@modifiableSupport@collectionSupport@@SAXQAV1@2@XX@Z 
01:0003A720 ?_new@modifiableSupport@collectionSupport@@SAXQAVrTypeLibrary@TypeLibraries@RunTime@VIP@@QAVmodifiableSupportSite@@2@XPAPAV1@2@PAX@Z  (Idle)
01:0003A750 ?_object_typelib_initializer$@modifiableSupport@collectionSupport@@SGXQAV1@2@XQAVrTypeLibrary@TypeLibraries@RunTime@VIP@@@Z 
01:0003A770 collectionSupport\modifiableSupport{@Type}?_initObject@@@QAGXQAV1@H@Z 
01:0003A798 ?@create_object@modifiableSupport@collectionSupport@@SGQAV1@2@XQAVrTypeLibrary@TypeLibraries@RunTime@VIP@@@Z 
01:0003A7BC collectionSupport\modifiableSupport{@Type}?_InternalFinalizer@@@QAGXQAV1@@Z 
--- From 'Obj\console.E8EB4F3C.obj'
01:0003A7D0 ?handle$@outputStream_console@@SGPBUhandle@_builtIn@@QAV1@@@Z 
01:0003A80C ?newCurrent$@outputStream_console@@SAXQAV1@@I@Z  (Idle)
01:0003A868 ?new$@outputStream_console@@SAXQAV1@@I@Z 
01:0003A8B0 ?doFlush$@outputStream_console@@SAXQAVoutputStreamSupportSite@@@@Z 
01:0003A8C0 ?write$@outputStream_console@@SAXQAVoutputStream@@@@Z 
01:0003A918 ?writeQuoted$@outputStream_console@@SAXQAVoutputStream@@@@Z 
01:0003A970 ?writef$@outputStream_console@@SAXQAVoutputStream@@@PB_W@Z 
01:0003A9CC ?nl$@outputStream_console@@SAXQAVoutputStream@@@@Z 
01:0003AA00 ?save$@outputStream_console@@SAXQAVoutputStream@@@PBUfactDB@_builtIn@@@Z 
01:0003AA58 ?writeBytes$@outputStream_console@@SAXQAVoutputStream@@@PAXPBUbyteCount@core@@@Z 
01:0003AAB4 ?errorHandler$@outputStream_console@@SAXQAV1@@PBUtraceId@exception@@@Z 
01:0003AAF0 ?getCRLFconversion$@outputStream_console@@SGPAUboolean_struct@_builtIn@@QAVstream@@@@Z 
01:0003AB20 ?setCRLFconversion$@outputStream_console@@SGXQAVstream@@@PAUboolean_struct@_builtIn@@@Z 
01:0003AB7C ?getBuffer$@outputStream_console@@SGXQAVoutputStreamSupportSite@@@PAPAXAAUbyteCount@core@@@Z 
01:0003ABFC ?convertLF2CRLF_ifNeeded$@outputStream_console@@SAXQAV1@@PAXPBUbyteCount@core@@PAPAXAAU34@@Z 
01:0003AC54 ?writeToStdDevice@outputStream_console@@SAXPAUmode_struct@stream@@PBUfileHandle@core@@PAXPBUbyteCount@5@@Z 
01:0003ACF8 ?convert_ifAnsi@outputStream_console@@SAXPAUmode_struct@stream@@PAXPBUbyteCount@core@@PAPAXAAU45@@Z 
01:0003ADA0 ?_new@outputStream_console@@SAXIPAPAVoutputStream@@@@Z  (Idle)
01:0003ADC8 ?_newCurrent@outputStream_console@@SAXIPAPAVoutputStream@@@@Z  (Idle)
01:0003ADF0 ?_object_facts_initializer$@outputStream_console@@SGXQAV1@@@Z 
01:0003AE08 ?new$@inputStream_console@@SAXQAV1@@@Z  (Idle)
01:0003AE88 ?getCRLFconversion$@inputStream_console@@SGPAUboolean_struct@_builtIn@@QAVstream@@@@Z 
01:0003AEB8 ?setCRLFconversion$@inputStream_console@@SGXQAVstream@@@PAUboolean_struct@_builtIn@@@Z 
01:0003AF0C ?setMode$@inputStream_console@@SGXQAVstream@@@PAUmode_struct@2@@Z 
01:0003AFAC ?exTextBufferCB$@inputStream_console@@SAXQAV1@@PAPAXAAUbyteCount@core@@@Z  (Idle)
01:0003B008 ?exTextBufferCBLock$@inputStream_console@@SAXQAV1@@PAPAXAAUbyteCount@core@@@Z  (Idle)
01:0003B05C ?handlingBufferLastChar$@inputStream_console@@SAXQAV1@@PBUbyteCount@core@@PAPAXAAU34@@Z  (Idle)
01:0003B098 ?converCRLF2LF_ifNeeded$@inputStream_console@@SAXQAV1@@PBUbyteCount@core@@PAPAXAAU34@@Z 
01:0003B118 ?_readFromStdIn$@inputStream_console@@SAXQAV1@@PAUmode_struct@stream@@PBUfileHandle@core@@AAUbyteCount@6@@Z 
01:0003B22C ?_readFromFile@inputStream_console@@SAXPBUfileHandle@core@@PAXPBUbyteCount@3@AAU43@@Z 
01:0003B27C ?setPosition$@inputStream_console@@SGXQAVstream@@@PBUfileSize@fileSystem_api@@@Z 
01:0003B28C ?getPosition$@inputStream_console@@SGPBUfileSize@fileSystem_api@@QAVstream@@@@Z 
01:0003B294 ?close$@inputStream_console@@SGXQAVstream@@@@Z 
01:0003B2C4 ?getBuffer$@inputStream_console@@SGXQAVbufferSupport@@@PAPAXAAUbyteCount@core@@@Z 
01:0003B2E8 ?getBufferLocked$@inputStream_console@@SGXQAVbufferSupport@@@PAPAXAAUbyteCount@core@@@Z 
01:0003B30C ?_new@inputStream_console@@SAXPAPAVinputStream@@@@Z  (Idle)
01:0003B334 ?_object_facts_initializer$@inputStream_console@@SGXQAV1@@@Z 
01:0003B354 ?_readChar@console@@SAXPA_W@Z  (Idle)
01:0003B3A0 ?_readLine@console@@SAXPAPB_W@Z 
01:0003B3EC ?_read@console@@SAXQAVrTypeLibrary@TypeLibraries@RunTime@VIP@@PAX@Z  (Idle)
01:0003B440 ?write@console@@SAXXZ  (Idle)
01:0003B48C ?writef@console@@SAXPB_W@Z  (Idle)
01:0003B4E0 ?nl@console@@SAXXZ  (Idle)
01:0003B51C ?isModeLine@console@@SAXXZ  (Idle)
01:0003B548 ?setModeLine@console@@SAXPAUboolean_struct@_builtIn@@@Z  (Idle)
01:0003B588 ?isModeEcho@console@@SAXXZ  (Idle)
01:0003B5B4 ?setModeEcho@console@@SAXPAUboolean_struct@_builtIn@@@Z  (Idle)
01:0003B5F4 ?isModeProcessed@console@@SAXXZ  (Idle)
01:0003B640 ?setModeProcessed@console@@SAXPAUboolean_struct@_builtIn@@@Z  (Idle)
01:0003B694 ?isModeWrap@console@@SAXXZ  (Idle)
01:0003B6C0 ?setModeWrap@console@@SAXPAUboolean_struct@_builtIn@@@Z  (Idle)
01:0003B6F0 ?checkConsoleMode@console@@SAXPBUfileHandle@core@@I@Z 
01:0003B718 ?setConsoleMode@console@@SAXPAUboolean_struct@_builtIn@@PBUfileHandle@core@@I@Z 
01:0003B77C ?_toApiMode@console@@SAXPAUboolean_struct@_builtIn@@IIPAI@Z 
01:0003B7C4 ?clearInput@console@@SAXXZ  (Idle)
01:0003B838 ?clearOutput@console@@SAXXZ  (Idle)
01:0003B8FC ?_getLocation@console@@SAXPAPAUcoord_struct@console_native@@@Z  (Idle)
01:0003B924 ?setLocation@console@@SAXPAUcoord_struct@console_native@@@Z 
01:0003B974 ?close@console@@SAXXZ  (Idle)
01:0003B9A8 ?_getConsoleWidth@console@@SAXAAUunsigned16@core@@@Z  (Idle)
01:0003B9CC ?_getConsoleTitle@console@@SAXPAPB_W@Z  (Idle)
01:0003BA34 ?setConsoleTitle@console@@SAXPB_W@Z  (Idle)
01:0003BA6C ?_getConsoleMode@console@@SAXPBUfileHandle@core@@PAI@Z 
01:0003BAA8 ?_getConsoleScreenBufferInfo@console@@SAXPAPAUconsoleScreenBufferInfo_struct@console_native@@@Z 
01:0003BB0C ?setTextAttribute@console@@SAXI@Z  (Idle)
01:0003BB20 ?setTextAttribute@console@@SAXII@Z 
01:0003BB50 ?_getTextAttribute@console@@SAXPAI@Z  (Idle)
01:0003BBA8 ?init@console@@SAXPAUmode_struct@stream@@@Z  (Idle)
01:0003BC50 ?init@console@@SAXXZ  (Idle)
01:0003BC6C ?init8@console@@SAXXZ  (Idle)
01:0003BC80 ?init8@console@@SAXPBUcodePage@core@@@Z 
01:0003BCA8 ?initUtf8@console@@SAXXZ  (Idle)
01:0003BCBC ?run@console@@SAXX@Z  (Idle)
01:0003BCD8 ?run@console@@SAXXPAUmode_struct@stream@@@Z 
01:0003BCF0 ?run@console@@SAXXPAUmode_struct@stream@@PAUrunMode_struct@exe_api@@@Z 
01:0003BDA0 ?run8@console@@SAXX@Z  (Idle)
01:0003BDB8 ?run8@console@@SAXXPBUcodePage@core@@@Z 
01:0003BDE0 ?runUtf8@console@@SAXX@Z 
01:0003BDF4 ?codePage@console@@SGXPBU0core@@@Z  (Idle)
01:0003BE20 ?mode@console@@SGXPAUmode_struct@stream@@@Z 
01:0003BEEC ?checkConsolePresence@console@@SAXXZ 
01:0003BF44 ?_readEvents@console@@SAXPAPAU?$__packedList_struct@PAPAUevent_struct@1@@@@Z  (Idle)
01:0003C0FC ?_makeEvent@console@@SAXIPAXPAPAUevent_struct@1@@Z  (Idle)
01:0003C494 ?_getEventQueue@console@@SAXPAPAU?$__packedList_struct@PAPAUevent_struct@1@@@@Z  (Idle)
01:0003C5C4 ?_getEvent_nd@console@@SAXPAXIIPAPAUevent_struct@1@@Z 
01:0003C6A8 ?_getConsoleInputStream@console@@SAXPAPAVinputStream@@@@Z  (Idle)
01:0003C6DC ?_getConsoleOutputStream@console@@SAXPAPAVoutputStream@@@@Z  (Idle)
01:0003C710 ?_getErrorStream@console@@SAXPAPAVoutputStream@@@@Z  (Idle)
01:0003C744 ?__lateFactInit$errorstream$0$console@classDB@1@SAXPAPAVoutputStream@@@@Z 
01:0003C760 ?__lateFactInit$outputstream$0$console@classDB@1@SAXPAPAVoutputStream@@@@Z 
01:0003C77C ?__lateFactInit$inputstream$0$console@classDB@1@SAXPAPAVinputStream@@@@Z 
01:0003C784 ?inputStream@console@@SGQAV0@@XZ  (Idle)
01:0003C7BC ?outputStream@console@@SGQAV0@@XZ  (Idle)
01:0003C7F4 ?errorStream@console@@SGQAVoutputStream@@@XZ  (Idle)
01:0003CBAC outputStream_console?_initObject@@@QAGXQAV1@H@Z 
01:0003CBE4 ?@create_object@outputStream_console@@SGQAV1@@XZ 
01:0003CC00 outputStream_console?_InternalFinalizer@@@QAGXQAV1@@Z 
01:0003CEBC inputStream_console?_initObject@@@QAGXQAV1@H@Z 
01:0003CEF4 ?@create_object@inputStream_console@@SGQAV1@@XZ 
01:0003CF10 inputStream_console?_InternalFinalizer@@@QAGXQAV1@@Z 
--- From 'Obj\core.5D9B9483.obj'
01:0003CF20 ?_mapSome@core@@SAXQAVrTypeLibrary@TypeLibraries@RunTime@VIP@@0PAUoptional_struct@1@XPA$?_function$2@1@SAXXPAX@Z$PAPAU21@PAX@Z  (Idle)
01:0003CFA0 ?_isSome@core@@SAXQAVrTypeLibrary@TypeLibraries@RunTime@VIP@@PAUoptional_struct@1@XPAX@Z 
01:0003CFD4 ?_getSome@core@@SAXQAVrTypeLibrary@TypeLibraries@RunTime@VIP@@PAUoptional_struct@1@XXPAX@Z  (Idle)
01:0003D00C ?_makeOptional@core@@SAXQAVrTypeLibrary@TypeLibraries@RunTime@VIP@@PA$?_function_dt$1@1@SAXPAX@Z$PAPAUoptional_struct@1@PAX@Z  (Idle)
01:0003D07C ?_compareselect/1nf$1@core@@SAXPAUcompareselect/1nf$1_struct@1@XXPAPAUcompareResult_struct@_builtIn@@@Z 
01:0003D0DC ?_compareSelect@core@@SAXQAVrTypeLibrary@TypeLibraries@RunTime@VIP@@0PA$?_function$2@1@SAXXPAX@Z$PAPA$?_comparator$1@1@SAXXXPAPAUcompareResult_struct@_builtIn@@@Z$@Z  (Idle)
01:0003D11C ?_notEqual@core@@SAXPAUcompareResult_struct@_builtIn@@PAPAU23@@Z  (Idle)
01:0003D14C ?_compareNotEqual@core@@SAXQAVrTypeLibrary@TypeLibraries@RunTime@VIP@@XXPAPAUcompareResult_struct@_builtIn@@@Z  (Idle)
01:0003D17C ?_mkPlatformIndependent_value@core@@SAXPAUvalue_struct@1@PAPAU21@@Z 
01:0003D200 ?_mkPlatformIndependent_valueList@core@@SAXPAU?$__packedList_struct@PAUvalue_struct@1@@@PAPAU?$__packedList_struct@PAPAU21@@@@Z  (Idle)
01:0003D23C ?_mkPlatformIndependent_namedValue@core@@SAXPAUnamedValue_struct@1@PAUvalue_struct@1@PAPAU21@PAPAU41@@Z 
--- From 'Obj\exception.B6F320E8.obj'
01:0003D288 ?_mkPlatformIndependent_namedValueList@core@@SAXPAU?$__packedList_struct@PAUnamedValue_struct@1@PAUvalue_struct@1@@@PAPAU?$__packedList_struct@PAPAU21@PAPAU41@@@@Z 
--- From 'Obj\core.5D9B9483.obj'
01:0003D2C4 ?_mkPlatformIndependant_unsignedNative@core@@SAXPBU2_builtIn@@PAPAUvalue_struct@1@@Z 
--- From 'Obj\filesystem.5B0F823E.obj'
01:0003D328 ?_toUnsigned64@core@@SAXPAUunsigned64_struct_struct@1@PAPA_K@Z 
01:0003D334 ?_fromUnsigned64@core@@SAXPA_KPAPAUunsigned64_struct_struct@1@@Z 
01:0003D364 ?_toInteger64@core@@SAXPAUinteger64_struct_struct@1@PAPA_J@Z 
--- From 'Obj\core.5D9B9483.obj'
01:0003D370 ?_fromInteger64@core@@SAXPA_JPAPAUinteger64_struct_struct@1@@Z 
01:0003D3A0 ?_value2String@core@@SAXPAUvalue_struct@1@PAPB_W@Z  (Idle)
01:0003D3D8 ?_presenter_value@core@@SAXPAUvalue_struct@1@PAPAUpresentation_struct@presenter@@@Z 
01:0003D69C ?_presenter_value2@core@@SAXQAVrTypeLibrary@TypeLibraries@RunTime@VIP@@XPAPAUpresentation_struct@presenter@@@Z 
01:0003D6D0 ?_presenter_namedValue@core@@SAXQAVrTypeLibrary@TypeLibraries@RunTime@VIP@@PAUnamedValue_struct@1@XPAPAUpresentation_struct@presenter@@@Z 
01:0003D764 ?_presenter_packedCursor@core@@SAXPBU21@PAPAUpresentation_struct@presenter@@@Z  (Idle)
01:0003D814 ?_presenter_hResult@core@@SAXPBU21@PAPAUpresentation_struct@presenter@@@Z  (Idle)
01:0003D8C4 ?_presenter_hScopeDescriptor@core@@SAXPBU21@PAPAUpresentation_struct@presenter@@@Z  (Idle)
01:0003D990 ?_presenter_gmtTimeValue@core@@SAXPAPBU21@PAPAUpresentation_struct@presenter@@@Z 
01:0003D998 ?_presenter_localTimeValue@core@@SAXPAPBU21@PAPAUpresentation_struct@presenter@@@Z 
01:0003D9A0 ?_presenter_sourceCursor@core@@SAXPAUsourceCursor_struct@1@PAPAUpresentation_struct@presenter@@@Z 
01:0003DA7C ?_presenter_programPoint@core@@SAXPAUprogramPoint_struct@1@PAPAUpresentation_struct@presenter@@@Z 
01:0003DB34 ?nothing@core@@SAXXZ  (Idle)
01:0003DB3C _Get1_2  (Idle)
01:0003DB64 _Get1_3  (Idle)
01:0003DB8C _Get1_4  (Idle)
01:0003DBB4 _Get1_5  (Idle)
01:0003DBDC _Get1_6  (Idle)
01:0003DC04 _Get1_7  (Idle)
01:0003DC2C _Get1_8  (Idle)
01:0003DC54 _Get1_9  (Idle)
01:0003DC7C _Get1_10  (Idle)
01:0003DCA4 _Get1_11  (Idle)
01:0003DCCC _Get1_12  (Idle)
01:0003DCF4 _Get2_2  (Idle)
01:0003DD1C _Get2_3  (Idle)
01:0003DD44 _Get2_4  (Idle)
01:0003DD6C _Get2_5  (Idle)
01:0003DD94 _Get2_6  (Idle)
01:0003DDBC _Get2_7  (Idle)
01:0003DDE4 _Get2_8  (Idle)
01:0003DE0C _Get2_9  (Idle)
01:0003DE34 _Get2_10  (Idle)
01:0003DE5C _Get2_11  (Idle)
01:0003DE84 _Get2_12  (Idle)
01:0003DEAC _Get3_3  (Idle)
01:0003DED4 _Get3_4  (Idle)
01:0003DEFC _Get3_5  (Idle)
01:0003DF24 _Get3_6  (Idle)
01:0003DF4C _Get3_7  (Idle)
01:0003DF74 _Get3_8  (Idle)
01:0003DF9C _Get3_9  (Idle)
01:0003DFC4 _Get3_10  (Idle)
01:0003DFEC _Get3_11  (Idle)
01:0003E014 _Get3_12  (Idle)
01:0003E03C _Get4_4  (Idle)
01:0003E064 _Get4_5  (Idle)
01:0003E08C _Get4_6  (Idle)
01:0003E0B4 _Get4_7  (Idle)
01:0003E0DC _Get4_8  (Idle)
01:0003E104 _Get4_9  (Idle)
01:0003E12C _Get4_10  (Idle)
01:0003E154 _Get4_11  (Idle)
01:0003E17C _Get4_12  (Idle)
01:0003E1A4 _Get5_5  (Idle)
01:0003E1CC _Get5_6  (Idle)
01:0003E1F4 _Get5_7  (Idle)
01:0003E21C _Get5_8  (Idle)
01:0003E244 _Get5_9  (Idle)
01:0003E26C _Get5_10  (Idle)
01:0003E294 _Get5_11  (Idle)
01:0003E2BC _Get5_12  (Idle)
01:0003E2E4 _Get6_6  (Idle)
01:0003E30C _Get6_7  (Idle)
01:0003E334 _Get6_8  (Idle)
01:0003E35C _Get6_9  (Idle)
01:0003E384 _Get6_10  (Idle)
01:0003E3AC _Get6_11  (Idle)
01:0003E3D4 _Get6_12  (Idle)
01:0003E3FC _Get7_7  (Idle)
01:0003E424 _Get7_8  (Idle)
01:0003E44C _Get7_9  (Idle)
01:0003E474 _Get7_10  (Idle)
01:0003E49C _Get7_11  (Idle)
01:0003E4C4 _Get7_12  (Idle)
01:0003E4EC _Get8_8  (Idle)
01:0003E514 _Get8_9  (Idle)
01:0003E53C _Get8_10  (Idle)
01:0003E564 _Get8_11  (Idle)
01:0003E58C _Get8_12  (Idle)
01:0003E5B4 _Get9_9  (Idle)
01:0003E5DC _Get9_10  (Idle)
01:0003E604 _Get9_11  (Idle)
01:0003E62C _Get9_12  (Idle)
01:0003E654 _Get10_10  (Idle)
01:0003E67C _Get10_11  (Idle)
01:0003E6A4 _Get10_12  (Idle)
01:0003E6CC _Get11_11  (Idle)
01:0003E6F4 _Get11_12  (Idle)
01:0003E71C _Get12_12  (Idle)
01:0003E744 ?_wrap$presenter_hScopeDescriptor@core@@SGPAUpresentation_struct@presenter@@QAVrTypeLibrary@TypeLibraries@RunTime@VIP@@X@Z 
01:0003E770 ?_wrap$presenter_packedCursor@core@@SGPAUpresentation_struct@presenter@@QAVrTypeLibrary@TypeLibraries@RunTime@VIP@@X@Z 
01:0003E79C ?_wrap$presenter_hResult@core@@SGPAUpresentation_struct@presenter@@QAVrTypeLibrary@TypeLibraries@RunTime@VIP@@X@Z 
--- From 'Obj\event.D92D3A63.obj'
01:0003E7D0 ?addListener$@event7@@SAXQAV1@@XXXXXXXX@Z 
01:0003E7F8 ?addlistener_once/1np$1@event7@@SAXPAUaddlistener_once/1np$1_struct@1/7@XXXXXXX@Z 
01:0003E80C ?addlistener_once/1np$2@event7@@SAXPAUaddlistener_once/1np$2_struct@1/7@XXXXXXX@Z 
01:0003E8A4 ?addListener_once$@event7@@SAXQAV1@@XXXXXXXX@Z 
01:0003E9E0 ?addlistener/2np0$1@event7@@SAXPAUaddlistener/2np0$1_struct@1/7@@Z 
01:0003EA0C ?addListener$@event7@@SAXQAV1@@XXXXXXXXQAVevent0@@@@Z 
01:0003EA94 ?removeListener$@event7@@SAXQAV1@@XXXXXXXX@Z 
01:0003EB84 ?removeAllListeners$@event7@@SAXQAV1@@XXXXXXX@Z 
01:0003EBC0 ?hasListeners$@event7@@SAXQAV1@@XXXXXXX@Z 
01:0003EBE0 ?notify$@event7@@SAXQAV1@@XXXXXXXXXXXXXX@Z 
01:0003EC5C ?new$@event7@@SAXQAV1@@XXXXXXXQAVrTypeLibrary@TypeLibraries@RunTime@VIP@@111111@Z  (Idle)
01:0003EC64 ?_new@event7@@SAXQAVrTypeLibrary@TypeLibraries@RunTime@VIP@@000000PAPAV1@@PAXPAXPAXPAXPAXPAXPAX@Z  (Idle)
01:0003ECB0 ?_object_typelib_initializer$@event7@@SGXQAV1@@XXXXXXXQAVrTypeLibrary@TypeLibraries@RunTime@VIP@@111111@Z 
01:0003ECEC ?addlistener/2np1$1@event7@@SAXPAUaddlistener/2np1$1_struct@1/7@X@Z 
01:0003ED10 ?addListener$@event7@@SAXQAV1@@XXXXXXXQAVrTypeLibrary@TypeLibraries@RunTime@VIP@@XQAVevent1@@@X@Z 
01:0003EDA0 ?addlistener/2np2$1@event7@@SAXPAUaddlistener/2np2$1_struct@1/7@XX@Z 
01:0003EDC4 ?addListener$@event7@@SAXQAV1@@XXXXXXXQAVrTypeLibrary@TypeLibraries@RunTime@VIP@@1XQAVevent2@@@XX@Z 
01:0003EE58 ?addlistener/2np3$1@event7@@SAXPAUaddlistener/2np3$1_struct@1/7@XXX@Z 
01:0003EE7C ?addListener$@event7@@SAXQAV1@@XXXXXXXQAVrTypeLibrary@TypeLibraries@RunTime@VIP@@11XQAVevent3@@@XXX@Z 
01:0003EF18 ?addlistener/2np4$1@event7@@SAXPAUaddlistener/2np4$1_struct@1/7@XXXX@Z 
01:0003EF3C ?addListener$@event7@@SAXQAV1@@XXXXXXXQAVrTypeLibrary@TypeLibraries@RunTime@VIP@@111XQAVevent4@@@XXXX@Z 
01:0003EFDC ?addlistener/2np5$1@event7@@SAXPAUaddlistener/2np5$1_struct@1/7@XXXXX@Z 
01:0003F000 ?addListener$@event7@@SAXQAV1@@XXXXXXXQAVrTypeLibrary@TypeLibraries@RunTime@VIP@@1111XQAVevent5@@@XXXXX@Z 
01:0003F0A8 ?addlistener/2np6$1@event7@@SAXPAUaddlistener/2np6$1_struct@1/7@XXXXXX@Z 
01:0003F0CC ?addListener$@event7@@SAXQAV1@@XXXXXXXQAVrTypeLibrary@TypeLibraries@RunTime@VIP@@11111XQAVevent6@@@XXXXXX@Z 
01:0003F178 ?addlistener/2np7$1@event7@@SAXPAUaddlistener/2np7$1_struct@1/7@XXXXXXX@Z 
01:0003F19C ?addListener$@event7@@SAXQAV1@@XXXXXXXQAVrTypeLibrary@TypeLibraries@RunTime@VIP@@111111X0@Z 
01:0003F250 ?addListener$@event6@@SAXQAV1@@XXXXXXX@Z 
01:0003F278 ?addlistener_once/1np$1@event6@@SAXPAUaddlistener_once/1np$1_struct@1/6@XXXXXX@Z 
01:0003F28C ?addlistener_once/1np$2@event6@@SAXPAUaddlistener_once/1np$2_struct@1/6@XXXXXX@Z 
01:0003F318 ?addListener_once$@event6@@SAXQAV1@@XXXXXXX@Z 
01:0003F444 ?addlistener/2np0$1@event6@@SAXPAUaddlistener/2np0$1_struct@1/6@@Z 
01:0003F470 ?addListener$@event6@@SAXQAV1@@XXXXXXXQAVevent0@@@@Z 
01:0003F4F4 ?removeListener$@event6@@SAXQAV1@@XXXXXXX@Z 
01:0003F5DC ?removeAllListeners$@event6@@SAXQAV1@@XXXXXX@Z 
01:0003F618 ?hasListeners$@event6@@SAXQAV1@@XXXXXX@Z 
01:0003F638 ?notify$@event6@@SAXQAV1@@XXXXXXXXXXXX@Z 
01:0003F6B0 ?new$@event6@@SAXQAV1@@XXXXXXQAVrTypeLibrary@TypeLibraries@RunTime@VIP@@11111@Z  (Idle)
01:0003F6B8 ?_new@event6@@SAXQAVrTypeLibrary@TypeLibraries@RunTime@VIP@@00000PAPAV1@@PAXPAXPAXPAXPAXPAX@Z  (Idle)
01:0003F700 ?_object_typelib_initializer$@event6@@SGXQAV1@@XXXXXXQAVrTypeLibrary@TypeLibraries@RunTime@VIP@@11111@Z 
01:0003F734 ?addlistener/2np1$1@event6@@SAXPAUaddlistener/2np1$1_struct@1/6@X@Z 
01:0003F758 ?addListener$@event6@@SAXQAV1@@XXXXXXQAVrTypeLibrary@TypeLibraries@RunTime@VIP@@XQAVevent1@@@X@Z 
01:0003F7E0 ?addlistener/2np2$1@event6@@SAXPAUaddlistener/2np2$1_struct@1/6@XX@Z 
01:0003F804 ?addListener$@event6@@SAXQAV1@@XXXXXXQAVrTypeLibrary@TypeLibraries@RunTime@VIP@@1XQAVevent2@@@XX@Z 
01:0003F894 ?addlistener/2np3$1@event6@@SAXPAUaddlistener/2np3$1_struct@1/6@XXX@Z 
01:0003F8B8 ?addListener$@event6@@SAXQAV1@@XXXXXXQAVrTypeLibrary@TypeLibraries@RunTime@VIP@@11XQAVevent3@@@XXX@Z 
01:0003F94C ?addlistener/2np4$1@event6@@SAXPAUaddlistener/2np4$1_struct@1/6@XXXX@Z 
01:0003F970 ?addListener$@event6@@SAXQAV1@@XXXXXXQAVrTypeLibrary@TypeLibraries@RunTime@VIP@@111XQAVevent4@@@XXXX@Z 
01:0003FA0C ?addlistener/2np5$1@event6@@SAXPAUaddlistener/2np5$1_struct@1/6@XXXXX@Z 
01:0003FA30 ?addListener$@event6@@SAXQAV1@@XXXXXXQAVrTypeLibrary@TypeLibraries@RunTime@VIP@@1111XQAVevent5@@@XXXXX@Z 
01:0003FAD0 ?addlistener/2np6$1@event6@@SAXPAUaddlistener/2np6$1_struct@1/6@XXXXXX@Z 
01:0003FAF4 ?addListener$@event6@@SAXQAV1@@XXXXXXQAVrTypeLibrary@TypeLibraries@RunTime@VIP@@11111X0@Z 
01:0003FB9C ?addListener$@event5@@SAXQAV1@@XXXXXX@Z 
01:0003FBC4 ?addlistener_once/1np$1@event5@@SAXPAUaddlistener_once/1np$1_struct@1/5@XXXXX@Z 
01:0003FBD8 ?addlistener_once/1np$2@event5@@SAXPAUaddlistener_once/1np$2_struct@1/5@XXXXX@Z 
01:0003FC5C ?addListener_once$@event5@@SAXQAV1@@XXXXXX@Z 
01:0003FD74 ?addlistener/2np0$1@event5@@SAXPAUaddlistener/2np0$1_struct@1/5@@Z 
01:0003FDA0 ?addListener$@event5@@SAXQAV1@@XXXXXXQAVevent0@@@@Z 
01:0003FE1C ?removeListener$@event5@@SAXQAV1@@XXXXXX@Z 
01:0003FF00 ?removeAllListeners$@event5@@SAXQAV1@@XXXXX@Z 
01:0003FF3C ?hasListeners$@event5@@SAXQAV1@@XXXXX@Z 
01:0003FF5C ?notify$@event5@@SAXQAV1@@XXXXXXXXXX@Z 
01:0003FFD4 ?new$@event5@@SAXQAV1@@XXXXXQAVrTypeLibrary@TypeLibraries@RunTime@VIP@@1111@Z  (Idle)
01:0003FFDC ?_new@event5@@SAXQAVrTypeLibrary@TypeLibraries@RunTime@VIP@@0000PAPAV1@@PAXPAXPAXPAXPAX@Z  (Idle)
01:0004001C ?_object_typelib_initializer$@event5@@SGXQAV1@@XXXXXQAVrTypeLibrary@TypeLibraries@RunTime@VIP@@1111@Z 
01:0004004C ?addlistener/2np1$1@event5@@SAXPAUaddlistener/2np1$1_struct@1/5@X@Z 
01:00040070 ?addListener$@event5@@SAXQAV1@@XXXXXQAVrTypeLibrary@TypeLibraries@RunTime@VIP@@XQAVevent1@@@X@Z 
01:000400F4 ?addlistener/2np2$1@event5@@SAXPAUaddlistener/2np2$1_struct@1/5@XX@Z 
01:00040118 ?addListener$@event5@@SAXQAV1@@XXXXXQAVrTypeLibrary@TypeLibraries@RunTime@VIP@@1XQAVevent2@@@XX@Z 
01:000401A0 ?addlistener/2np3$1@event5@@SAXPAUaddlistener/2np3$1_struct@1/5@XXX@Z 
01:000401C4 ?addListener$@event5@@SAXQAV1@@XXXXXQAVrTypeLibrary@TypeLibraries@RunTime@VIP@@11XQAVevent3@@@XXX@Z 
01:00040254 ?addlistener/2np4$1@event5@@SAXPAUaddlistener/2np4$1_struct@1/5@XXXX@Z 
01:00040278 ?addListener$@event5@@SAXQAV1@@XXXXXQAVrTypeLibrary@TypeLibraries@RunTime@VIP@@111XQAVevent4@@@XXXX@Z 
01:0004030C ?addlistener/2np5$1@event5@@SAXPAUaddlistener/2np5$1_struct@1/5@XXXXX@Z 
01:00040330 ?addListener$@event5@@SAXQAV1@@XXXXXQAVrTypeLibrary@TypeLibraries@RunTime@VIP@@1111X0@Z 
01:000403CC ?addListener$@event4@@SAXQAV1@@XXXXX@Z 
01:000403F4 ?addlistener_once/1np$1@event4@@SAXPAUaddlistener_once/1np$1_struct@1/4@XXXX@Z 
01:00040408 ?addlistener_once/1np$2@event4@@SAXPAUaddlistener_once/1np$2_struct@1/4@XXXX@Z 
01:00040484 ?addListener_once$@event4@@SAXQAV1@@XXXXX@Z 
01:0004058C ?addlistener/2np0$1@event4@@SAXPAUaddlistener/2np0$1_struct@1/4@@Z 
01:000405B8 ?addListener$@event4@@SAXQAV1@@XXXXXQAVevent0@@@@Z 
01:00040630 ?removeListener$@event4@@SAXQAV1@@XXXXX@Z 
01:0004070C ?removeAllListeners$@event4@@SAXQAV1@@XXXX@Z 
01:00040748 ?hasListeners$@event4@@SAXQAV1@@XXXX@Z 
01:00040768 ?notify$@event4@@SAXQAV1@@XXXXXXXX@Z 
01:000407DC ?new$@event4@@SAXQAV1@@XXXXQAVrTypeLibrary@TypeLibraries@RunTime@VIP@@111@Z  (Idle)
01:000407E4 ?_new@event4@@SAXQAVrTypeLibrary@TypeLibraries@RunTime@VIP@@000PAPAV1@@PAXPAXPAXPAX@Z  (Idle)
01:00040820 ?_object_typelib_initializer$@event4@@SGXQAV1@@XXXXQAVrTypeLibrary@TypeLibraries@RunTime@VIP@@111@Z 
01:00040848 ?addlistener/2np1$1@event4@@SAXPAUaddlistener/2np1$1_struct@1/4@X@Z 
01:0004086C ?addListener$@event4@@SAXQAV1@@XXXXQAVrTypeLibrary@TypeLibraries@RunTime@VIP@@XQAVevent1@@@X@Z 
01:000408E8 ?addlistener/2np2$1@event4@@SAXPAUaddlistener/2np2$1_struct@1/4@XX@Z 
01:0004090C ?addListener$@event4@@SAXQAV1@@XXXXQAVrTypeLibrary@TypeLibraries@RunTime@VIP@@1XQAVevent2@@@XX@Z 
01:00040990 ?addlistener/2np3$1@event4@@SAXPAUaddlistener/2np3$1_struct@1/4@XXX@Z 
01:000409B4 ?addListener$@event4@@SAXQAV1@@XXXXQAVrTypeLibrary@TypeLibraries@RunTime@VIP@@11XQAVevent3@@@XXX@Z 
01:00040A3C ?addlistener/2np4$1@event4@@SAXPAUaddlistener/2np4$1_struct@1/4@XXXX@Z 
01:00040A60 ?addListener$@event4@@SAXQAV1@@XXXXQAVrTypeLibrary@TypeLibraries@RunTime@VIP@@111X0@Z 
01:00040AF0 ?addlistener/2np5$1@event4@@SAXPAUaddlistener/2np5$1_struct@1/4@XXXXX@Z 
01:00040B14 ?addListener$@event4@@SAXQAV1@@XXXXQAVrTypeLibrary@TypeLibraries@RunTime@VIP@@1111XQAVevent5@@@XXXXX@Z 
01:00040BA8 ?addListener$@event3@@SAXQAV1@@XXXX@Z 
01:00040BD0 ?addlistener_once/1np$1@event3@@SAXPAUaddlistener_once/1np$1_struct@1/3@XXX@Z 
01:00040BE4 ?addlistener_once/1np$2@event3@@SAXPAUaddlistener_once/1np$2_struct@1/3@XXX@Z 
01:00040C58 ?addListener_once$@event3@@SAXQAV1@@XXXX@Z 
01:00040D4C ?addlistener/2np0$1@event3@@SAXPAUaddlistener/2np0$1_struct@1/3@@Z 
01:00040D78 ?addListener$@event3@@SAXQAV1@@XXXXQAVevent0@@@@Z 
01:00040DE8 ?removeListener$@event3@@SAXQAV1@@XXXX@Z 
01:00040EC0 ?removeAllListeners$@event3@@SAXQAV1@@XXX@Z 
01:00040EFC ?hasListeners$@event3@@SAXQAV1@@XXX@Z 
01:00040F1C ?notify$@event3@@SAXQAV1@@XXXXXX@Z 
01:00040F8C ?new$@event3@@SAXQAV1@@XXXQAVrTypeLibrary@TypeLibraries@RunTime@VIP@@11@Z  (Idle)
01:00040F94 ?_new@event3@@SAXQAVrTypeLibrary@TypeLibraries@RunTime@VIP@@00PAPAV1@@PAXPAXPAX@Z  (Idle)
01:00040FC8 ?_object_typelib_initializer$@event3@@SGXQAV1@@XXXQAVrTypeLibrary@TypeLibraries@RunTime@VIP@@11@Z 
01:00040FEC ?addlistener/2np1$1@event3@@SAXPAUaddlistener/2np1$1_struct@1/3@X@Z 
01:00041010 ?addListener$@event3@@SAXQAV1@@XXXQAVrTypeLibrary@TypeLibraries@RunTime@VIP@@XQAVevent1@@@X@Z 
01:00041088 ?addlistener/2np2$1@event3@@SAXPAUaddlistener/2np2$1_struct@1/3@XX@Z 
01:000410AC ?addListener$@event3@@SAXQAV1@@XXXQAVrTypeLibrary@TypeLibraries@RunTime@VIP@@1XQAVevent2@@@XX@Z 
01:00041128 ?addlistener/2np3$1@event3@@SAXPAUaddlistener/2np3$1_struct@1/3@XXX@Z 
01:0004114C ?addListener$@event3@@SAXQAV1@@XXXQAVrTypeLibrary@TypeLibraries@RunTime@VIP@@11X0@Z 
01:000411D0 ?addlistener/2np4$1@event3@@SAXPAUaddlistener/2np4$1_struct@1/3@XXXX@Z 
01:000411F4 ?addListener$@event3@@SAXQAV1@@XXXQAVrTypeLibrary@TypeLibraries@RunTime@VIP@@111XQAVevent4@@@XXXX@Z 
01:0004127C ?addlistener/2np5$1@event3@@SAXPAUaddlistener/2np5$1_struct@1/3@XXXXX@Z 
01:000412A0 ?addListener$@event3@@SAXQAV1@@XXXQAVrTypeLibrary@TypeLibraries@RunTime@VIP@@1111XQAVevent5@@@XXXXX@Z 
01:00041330 ?addListener$@event2@@SAXQAV1@@XXX@Z 
01:00041358 ?addlistener_once/1np$1@event2@@SAXPAUaddlistener_once/1np$1_struct@1/2@XX@Z 
01:0004136C ?addlistener_once/1np$2@event2@@SAXPAUaddlistener_once/1np$2_struct@1/2@XX@Z 
01:000413D4 ?addListener_once$@event2@@SAXQAV1@@XXX@Z 
01:000414B8 ?addlistener/2np0$1@event2@@SAXPAUaddlistener/2np0$1_struct@1/2@@Z 
01:000414E4 ?addListener$@event2@@SAXQAV1@@XXXQAVevent0@@@@Z 
01:00041550 ?removeListener$@event2@@SAXQAV1@@XXX@Z 
01:00041620 ?removeAllListeners$@event2@@SAXQAV1@@XX@Z 
01:0004165C ?hasListeners$@event2@@SAXQAV1@@XX@Z 
01:0004167C ?notify$@event2@@SAXQAV1@@XXXX@Z 
01:000416E8 ?new$@event2@@SAXQAV1@@XXQAVrTypeLibrary@TypeLibraries@RunTime@VIP@@1@Z  (Idle)
01:000416F0 ?_new@event2@@SAXQAVrTypeLibrary@TypeLibraries@RunTime@VIP@@0PAPAV1@@PAXPAX@Z  (Idle)
01:00041720 ?_object_typelib_initializer$@event2@@SGXQAV1@@XXQAVrTypeLibrary@TypeLibraries@RunTime@VIP@@1@Z 
01:0004173C ?addlistener/2np1$1@event2@@SAXPAUaddlistener/2np1$1_struct@1/2@X@Z 
01:00041760 ?addListener$@event2@@SAXQAV1@@XXQAVrTypeLibrary@TypeLibraries@RunTime@VIP@@XQAVevent1@@@X@Z 
01:000417D0 ?addlistener/2np2$1@event2@@SAXPAUaddlistener/2np2$1_struct@1/2@XX@Z 
01:000417F4 ?addListener$@event2@@SAXQAV1@@XXQAVrTypeLibrary@TypeLibraries@RunTime@VIP@@1X0@Z 
01:0004186C ?addlistener/2np3$1@event2@@SAXPAUaddlistener/2np3$1_struct@1/2@XXX@Z 
01:00041890 ?addListener$@event2@@SAXQAV1@@XXQAVrTypeLibrary@TypeLibraries@RunTime@VIP@@11XQAVevent3@@@XXX@Z 
01:0004190C ?addlistener/2np4$1@event2@@SAXPAUaddlistener/2np4$1_struct@1/2@XXXX@Z 
01:00041930 ?addListener$@event2@@SAXQAV1@@XXQAVrTypeLibrary@TypeLibraries@RunTime@VIP@@111XQAVevent4@@@XXXX@Z 
01:000419B4 ?addlistener/2np5$1@event2@@SAXPAUaddlistener/2np5$1_struct@1/2@XXXXX@Z 
01:000419D8 ?addListener$@event2@@SAXQAV1@@XXQAVrTypeLibrary@TypeLibraries@RunTime@VIP@@1111XQAVevent5@@@XXXXX@Z 
01:00041A60 ?addListener$@event1@@SAXQAV1@@XX@Z 
01:00041A88 ?addlistener_once/1np$1@event1@@SAXPAUaddlistener_once/1np$1_struct@1/1@X@Z 
01:00041A9C ?addlistener_once/1np$2@event1@@SAXPAUaddlistener_once/1np$2_struct@1/1@X@Z 
01:00041AFC ?addListener_once$@event1@@SAXQAV1@@XX@Z 
01:00041BCC ?addlistener/2np0$1@event1@@SAXPAUaddlistener/2np0$1_struct@1/1@@Z 
01:00041BF8 ?addListener$@event1@@SAXQAV1@@XXQAVevent0@@@@Z 
01:00041C5C ?removeListener$@event1@@SAXQAV1@@XX@Z 
01:00041D28 ?removeAllListeners$@event1@@SAXQAV1@@X@Z 
01:00041D64 ?hasListeners$@event1@@SAXQAV1@@X@Z 
01:00041D84 ?notify$@event1@@SAXQAV1@@XX@Z 
01:00041DF0 ?new$@event1@@SAXQAV1@@XQAVrTypeLibrary@TypeLibraries@RunTime@VIP@@@Z  (Idle)
01:00041DF8 ?_new@event1@@SAXQAVrTypeLibrary@TypeLibraries@RunTime@VIP@@PAPAV1@@PAX@Z  (Idle)
01:00041E20 ?_object_typelib_initializer$@event1@@SGXQAV1@@XQAVrTypeLibrary@TypeLibraries@RunTime@VIP@@@Z 
01:00041E38 ?addlistener/2np1$1@event1@@SAXPAUaddlistener/2np1$1_struct@1/1@X@Z 
01:00041E5C ?addListener$@event1@@SAXQAV1@@XQAVrTypeLibrary@TypeLibraries@RunTime@VIP@@X0@Z 
01:00041EC8 ?addlistener/2np2$1@event1@@SAXPAUaddlistener/2np2$1_struct@1/1@XX@Z 
01:00041EEC ?addListener$@event1@@SAXQAV1@@XQAVrTypeLibrary@TypeLibraries@RunTime@VIP@@1XQAVevent2@@@XX@Z 
01:00041F5C ?addlistener/2np3$1@event1@@SAXPAUaddlistener/2np3$1_struct@1/1@XXX@Z 
01:00041F80 ?addListener$@event1@@SAXQAV1@@XQAVrTypeLibrary@TypeLibraries@RunTime@VIP@@11XQAVevent3@@@XXX@Z 
01:00041FF8 ?addlistener/2np4$1@event1@@SAXPAUaddlistener/2np4$1_struct@1/1@XXXX@Z 
01:0004201C ?addListener$@event1@@SAXQAV1@@XQAVrTypeLibrary@TypeLibraries@RunTime@VIP@@111XQAVevent4@@@XXXX@Z 
01:00042098 ?addlistener/2np5$1@event1@@SAXPAUaddlistener/2np5$1_struct@1/1@XXXXX@Z 
01:000420BC ?addListener$@event1@@SAXQAV1@@XQAVrTypeLibrary@TypeLibraries@RunTime@VIP@@1111XQAVevent5@@@XXXXX@Z 
01:00042140 ?addListener$@event0@@SAXQAV1@@X@Z 
01:00042168 ?addlistener_once/1np$1@event0@@SAXXZ 
01:00042178 ?addlistener_once/1np$2@event0@@SAXPAUaddlistener_once/1np$2_struct@1@@Z 
01:000421D0 ?addListener_once$@event0@@SAXQAV1@@X@Z 
01:0004224C ?addlistener/2np0$1@event0@@SAXPAUaddlistener/2np0$1_struct@1@@Z 
01:00042278 ?addListener$@event0@@SAXQAV1@@X0@Z 
01:000422D4 ?removeListener$@event0@@SAXQAV1@@X@Z 
01:00042370 ?removeAllListeners$@event0@@SAXQAV1@@@Z 
01:000423AC ?hasListeners$@event0@@SAXQAV1@@@Z 
01:000423CC ?notify$@event0@@SAXQAV1@@@Z 
01:00042434 ?new$@event0@@SAXQAV1@@@Z  (Idle)
01:0004243C ?_new@event0@@SAXPAPAV1@@@Z 
01:00042460 ?addlistener/2np1$1@event0@@SAXPAUaddlistener/2np1$1_struct@1@X@Z 
01:00042484 ?addListener$@event0@@SAXQAV1@@QAVrTypeLibrary@TypeLibraries@RunTime@VIP@@XQAVevent1@@@X@Z 
01:000424E4 ?addlistener/2np2$1@event0@@SAXPAUaddlistener/2np2$1_struct@1@XX@Z 
01:00042508 ?addListener$@event0@@SAXQAV1@@QAVrTypeLibrary@TypeLibraries@RunTime@VIP@@1XQAVevent2@@@XX@Z 
01:00042570 ?addlistener/2np3$1@event0@@SAXPAUaddlistener/2np3$1_struct@1@XXX@Z 
01:00042594 ?addListener$@event0@@SAXQAV1@@QAVrTypeLibrary@TypeLibraries@RunTime@VIP@@11XQAVevent3@@@XXX@Z 
01:00042600 ?addlistener/2np4$1@event0@@SAXPAUaddlistener/2np4$1_struct@1@XXXX@Z 
01:00042624 ?addListener$@event0@@SAXQAV1@@QAVrTypeLibrary@TypeLibraries@RunTime@VIP@@111XQAVevent4@@@XXXX@Z 
01:00042698 ?addlistener/2np5$1@event0@@SAXPAUaddlistener/2np5$1_struct@1@XXXXX@Z 
01:000426BC ?addListener$@event0@@SAXQAV1@@QAVrTypeLibrary@TypeLibraries@RunTime@VIP@@1111XQAVevent5@@@XXXXX@Z 
01:0004273C event7{@Type1,@Type2,@Type3,@Type4,@Type5,@Type6,@Type7}?_initObject@@@QAGXQAV1@H@Z 
01:0004277C ?@create_object@event7@@SGQAV1@@XXXXXXXQAVrTypeLibrary@TypeLibraries@RunTime@VIP@@000000@Z 
01:000427B8 event7{@Type1,@Type2,@Type3,@Type4,@Type5,@Type6,@Type7}?_InternalFinalizer@@@QAGXQAV1@@Z 
01:000427CC event6{@Type1,@Type2,@Type3,@Type4,@Type5,@Type6}?_initObject@@@QAGXQAV1@H@Z 
01:00042808 ?@create_object@event6@@SGQAV1@@XXXXXXQAVrTypeLibrary@TypeLibraries@RunTime@VIP@@00000@Z 
01:00042840 event6{@Type1,@Type2,@Type3,@Type4,@Type5,@Type6}?_InternalFinalizer@@@QAGXQAV1@@Z 
01:00042854 event5{@Type1,@Type2,@Type3,@Type4,@Type5}?_initObject@@@QAGXQAV1@H@Z 
01:0004288C ?@create_object@event5@@SGQAV1@@XXXXXQAVrTypeLibrary@TypeLibraries@RunTime@VIP@@0000@Z 
01:000428C0 event5{@Type1,@Type2,@Type3,@Type4,@Type5}?_InternalFinalizer@@@QAGXQAV1@@Z 
01:000428D4 event4{@Type1,@Type2,@Type3,@Type4}?_initObject@@@QAGXQAV1@H@Z 
01:00042908 ?@create_object@event4@@SGQAV1@@XXXXQAVrTypeLibrary@TypeLibraries@RunTime@VIP@@000@Z 
01:00042938 event4{@Type1,@Type2,@Type3,@Type4}?_InternalFinalizer@@@QAGXQAV1@@Z 
01:0004294C event3{@Type1,@Type2,@Type3}?_initObject@@@QAGXQAV1@H@Z 
01:0004297C ?@create_object@event3@@SGQAV1@@XXXQAVrTypeLibrary@TypeLibraries@RunTime@VIP@@00@Z 
01:000429A8 event3{@Type1,@Type2,@Type3}?_InternalFinalizer@@@QAGXQAV1@@Z 
01:000429BC event2{@Type1,@Type2}?_initObject@@@QAGXQAV1@H@Z 
01:000429E8 ?@create_object@event2@@SGQAV1@@XXQAVrTypeLibrary@TypeLibraries@RunTime@VIP@@0@Z 
01:00042A10 event2{@Type1,@Type2}?_InternalFinalizer@@@QAGXQAV1@@Z 
01:00042A24 event1{@Type1}?_initObject@@@QAGXQAV1@H@Z 
01:00042A4C ?@create_object@event1@@SGQAV1@@XQAVrTypeLibrary@TypeLibraries@RunTime@VIP@@@Z 
01:00042A70 event1{@Type1}?_InternalFinalizer@@@QAGXQAV1@@Z 
01:00042A84 event0?_initObject@@@QAGXQAV1@H@Z 
01:00042A9C ?@create_object@event0@@SGQAV1@@XZ 
01:00042AB8 event0?_InternalFinalizer@@@QAGXQAV1@@Z 
--- From 'Obj\exception.B6F320E8.obj'
01:00042AD0 _runtimeExceptionRaiser 
01:00042C40 ?_exceptionFromExceptionCode@runtime_exception@@SAXIPAPAUexception_struct@core@@@Z 
01:00042CA4 ?_exceptionFromErrorCode@runtime_exception@@SAXIPAPAUexception_struct@core@@@Z 
01:00043410 ?raise_externalError_explicit@exception_exception@@SAXPAUprogramPoint_struct@core@@PBUerrorCode@programControl@@PAU?$__packedList_struct@PAUnamedValue_struct@3@PAUvalue_struct@3@@@@Z  (Idle)
01:00043480 ?_tryGetDescriptor@exception@@SAXPBUtraceId@1@PAUexception_struct@core@@PAPAUdescriptor_struct@1@@Z 
01:00043510 ?findException@exception@@SAXPBUtraceId@1@PAU?$__packedList_struct@PAUexception_struct@core@@@@@Z  (Idle)
01:0004356C ?_getDescriptor_nd@exception@@SAXPBUtraceId@1@PAPAUdescriptor_struct@1@@Z 
01:000436E0 ?_mkProgramPointDescriptor_explicit@exception@@SAXPAUprogramPoint_struct@core@@PAPAUprogramPointDescriptor_struct@1@@Z 
01:00043724 ?_getDescriptorChain_nd@exception@@SAXQAVerrorDescriptorInformation@@@PAPAUdescriptor_struct@1@@Z 
01:0004377C ?_getDescriptorChain1_nd@exception@@SAXQAVerrorDescriptorInformation@@@PAPAUdescriptor_struct@1@@Z 
01:00043850 ?_getDescriptorChainFromPacked_nd@exception@@SAXPAU?$__packedList_struct@PAUnamedValue_struct@core@@PAUvalue_struct@3@@@PAPAUdescriptor_struct@1@@Z 
01:000438F8 ?_getTraceInfo_noLineInfo@exception@@SAXPBUtraceId@1@PAPAUtraceInfo_struct@1@@Z  (Idle)
--- From 'Obj\exceptiondump.2B9C9E40.obj'
01:00043914 ?_getTraceInfo@exception@@SAXPBUtraceId@1@PAPAUtraceInfo_struct@1@@Z 
--- From 'Obj\exception.B6F320E8.obj'
01:00043930 ?_getTraceInfo@exception@@SAXPBUtraceId@1@PAUboolean_struct@_builtIn@@PAPAUtraceInfo_struct@1@@Z 
01:00043A40 ?_mkPlatformIndependent_descriptor@exception@@SAXPAUdescriptor_struct@1@PAPAU21@@Z 
01:00043AC0 ?_getStackInfo_nd@exception@@SAXQAVtrapInformationObject@@@PAUboolean_struct@_builtIn@@PAPAUlineInfo_struct@1@@Z 
01:00043C14 ?_getModuleHandleByAddress@exception@@SAXPAXAAUhModule@core@@@Z  (Idle)
01:00043C64 ?_getModuleNameByAddress@exception@@SAXPAXPAPB_W@Z  (Idle)
01:00043CBC ?_tryGetLineInfo@exception@@SAXPAXPAUboolean_struct@_builtIn@@PAPAUlineInfo_struct@1@@Z 
01:00043DA0 ?_tryGetExtraInfo@exception@@SAXPAUdescriptor_struct@1@PB_WPAPAUvalue_struct@core@@@Z  (Idle)
01:00043DB8 ?_searchInfoList@exception@@SAXPAU?$__packedList_struct@PAUnamedValue_struct@core@@PAUvalue_struct@3@@@PB_WPAPAU43@@Z 
01:00043E20 ?_getErrorCode@exception@@SAXPBUtraceId@1@PAI@Z 
01:00043E68 ?_tryGetErrorDescriptorInformation@exception@@SAXPBUtraceId@1@PAPAVerrorDescriptorInformation@@@@Z 
01:00043E90 ?_tryGetErrorDescriptorInformation1@exception@@SAXQAVtrapInformationObject@@@PAPAVerrorDescriptorInformation@@@@Z 
01:00043EB4 ?_getTrapInformationObject@exception@@SAXPBUtraceId@1@PAPAVtrapInformationObject@@@@Z  (Idle)
01:00043F84 ?_tryGetTrapInformationObject@exception@@SAXPBUtraceId@1@PAPAVtrapInformationObject@@@@Z 
--- From 'Obj\math.5D7D6037.obj'
01:00044024 ?raiseDetailed_explicit@exception@@SAXPAUprogramPoint_struct@core@@PAUexception_struct@3@PAU?$__packedList_struct@PAUnamedValue_struct@3@PAUvalue_struct@3@@@@Z 
--- From 'Obj\exception.B6F320E8.obj'
01:00044040 ?raise_explicit@exception@@SAXPAUprogramPoint_struct@core@@PAUexception_struct@3@@Z 
--- From 'Obj\filesystem.5B0F823E.obj'
01:00044058 ?raise_explicit@exception@@SAXPAUprogramPoint_struct@core@@PAUexception_struct@3@PAU?$__packedList_struct@PAUnamedValue_struct@3@PAUvalue_struct@3@@@@Z 
--- From 'Obj\list.A75CEA31.obj'
01:00044094 ?raise_error_explicit@exception@@SAXQAVrTypeLibrary@TypeLibraries@RunTime@VIP@@PAUprogramPoint_struct@core@@@Z 
01:000440AC ?raise_error_explicit@exception@@SAXPAUprogramPoint_struct@core@@@Z 
--- From 'Obj\exception.B6F320E8.obj'
01:0004412C ?raise_exception_explicit@exception@@SAXPAUprogramPoint_struct@core@@PAUexception_struct@3@@Z  (Idle)
01:000441AC ?raise_user_explicit@exception@@SAXPAUprogramPoint_struct@core@@PB_W@Z  (Idle)
--- From 'Obj\filesystem.5B0F823E.obj'
01:000441C4 ?raise_user_explicit@exception@@SAXPAUprogramPoint_struct@core@@PB_WPAU?$__packedList_struct@PAUnamedValue_struct@3@PAUvalue_struct@3@@@@Z 
--- From 'Obj\exception.B6F320E8.obj'
01:000441E4 ?raise_user_explicit@exception@@SAXPAUprogramPoint_struct@core@@PAUexception_struct@3@PB_WPAU?$__packedList_struct@PAUnamedValue_struct@3@PAUvalue_struct@3@@@@Z 
01:00044254 ?raise_definiteUser_explicit@exception@@SAXPAUprogramPoint_struct@core@@PB_W@Z  (Idle)
01:0004426C ?raise_definiteUser_explicit@exception@@SAXPAUprogramPoint_struct@core@@PB_WPAU?$__packedList_struct@PAUnamedValue_struct@3@PAUvalue_struct@3@@@@Z 
01:0004428C ?raise_definiteUser_explicit@exception@@SAXPAUprogramPoint_struct@core@@PAUexception_struct@3@PB_WPAU?$__packedList_struct@PAUnamedValue_struct@3@PAUvalue_struct@3@@@@Z 
01:00044310 ?raise_packed_explicit@exception@@SAXPAUprogramPoint_struct@core@@PAUtraceInfo_struct@1@@Z  (Idle)
--- From 'Obj\filesystem.5B0F823E.obj'
01:000443F4 ?raise_errorf_explicit@exception@@SAXPAUprogramPoint_struct@core@@PB_W@Z 
--- From 'Obj\exception.B6F320E8.obj'
01:000444B8 ?raise_couldNotCreate_explicit@exception@@SAXPAUprogramPoint_struct@core@@PAU?$__packedList_struct@PAUnamedValue_struct@3@PAUvalue_struct@3@@@@Z  (Idle)
01:000444D4 ?raise_removeListener_explicit@exception@@SAXPAUprogramPoint_struct@core@@PB_W@Z  (Idle)
--- From 'Obj\filesystem.5B0F823E.obj'
01:00044548 ?raise_nativeCallException_explicit@exception@@SAXPAUprogramPoint_struct@core@@PB_WPBUhResult@3@PAU?$__packedList_struct@PAUnamedValue_struct@3@PAUvalue_struct@3@@@@Z 
--- From 'Obj\exception.B6F320E8.obj'
01:0004457C ?raise_nativeCallException_explicit@exception@@SAXPAUprogramPoint_struct@core@@PB_WPBUhResult@3@1PAU?$__packedList_struct@PAUnamedValue_struct@3@PAUvalue_struct@3@@@@Z 
--- From 'Obj\filesystem.5B0F823E.obj'
01:00044658 ?_addErrorCode@exception@@SAXPBUhResult@core@@PAU?$__packedList_struct@PAUnamedValue_struct@3@PAUvalue_struct@3@@@PAPAU?$__packedList_struct@PAPAU43@PAPAU63@@@@Z 
--- From 'Obj\exception.B6F320E8.obj'
01:000447A4 ?raise_notImplemented_explicit@exception@@SAXPAUprogramPoint_struct@core@@@Z  (Idle)
--- From 'Obj\filesystem.5B0F823E.obj'
01:000447BC ?raise_unsupportedPredicate_explicit@exception@@SAXPAUprogramPoint_struct@core@@@Z 
--- From 'Obj\exception.B6F320E8.obj'
01:000447D4 ?raise_overloadingExpected_explicit@exception@@SAXPAUprogramPoint_struct@core@@@Z  (Idle)
01:000447EC ?raise_indexOutOfRange_explicit@exception@@SAXPAUprogramPoint_struct@core@@HH@Z 
01:000448B4 ?check_indexOutOfRange_explicit@exception@@SAXPAUprogramPoint_struct@core@@HH@Z 
01:000448D8 ?continueDetailed_explicit@exception@@SAXPAUprogramPoint_struct@core@@PBUtraceId@1@PAUexception_struct@3@@Z  (Idle)
01:000448F4 ?continueDetailed_explicit@exception@@SAXPAUprogramPoint_struct@core@@PBUtraceId@1@PAUexception_struct@3@PAU?$__packedList_struct@PAUnamedValue_struct@3@PAUvalue_struct@3@@@@Z  (Idle)
01:00044910 ?continue_explicit@exception@@SAXPAUprogramPoint_struct@core@@PBUtraceId@1@PAUexception_struct@3@PAU?$__packedList_struct@PAUnamedValue_struct@3@PAUvalue_struct@3@@@@Z 
01:00044954 ?continue1_explicit@exception@@SAXPAUprogramPoint_struct@core@@QAVtrapInformationObject@@@PAUexception_struct@3@PAU?$__packedList_struct@PAUnamedValue_struct@3@PAUvalue_struct@3@@@@Z 
01:00044A74 ?continue_exceptionInListener_explicit@exception@@SAXPAUprogramPoint_struct@core@@PBUtraceId@1@PB_W@Z  (Idle)
--- From 'Obj\filesystem.5B0F823E.obj'
01:00044AE8 ?continue_unknown_explicit@exception@@SAXPAUprogramPoint_struct@core@@PBUtraceId@1@@Z 
--- From 'Obj\exception.B6F320E8.obj'
01:00044B6C ?continue_user_explicit@exception@@SAXPAUprogramPoint_struct@core@@PBUtraceId@1@PB_W@Z  (Idle)
--- From 'Obj\filesystem.5B0F823E.obj'
01:00044B88 ?continue_user_explicit@exception@@SAXPAUprogramPoint_struct@core@@PBUtraceId@1@PB_WPAU?$__packedList_struct@PAUnamedValue_struct@3@PAUvalue_struct@3@@@@Z 
--- From 'Obj\exception.B6F320E8.obj'
01:00044BAC ?continue_user_explicit@exception@@SAXPAUprogramPoint_struct@core@@PBUtraceId@1@PAUexception_struct@3@PB_WPAU?$__packedList_struct@PAUnamedValue_struct@3@PAUvalue_struct@3@@@@Z 
01:00044C20 ?continue_definiteUser_explicit@exception@@SAXPAUprogramPoint_struct@core@@PBUtraceId@1@PB_W@Z  (Idle)
01:00044C3C ?continue_definiteUser_explicit@exception@@SAXPAUprogramPoint_struct@core@@PBUtraceId@1@PB_WPAU?$__packedList_struct@PAUnamedValue_struct@3@PAUvalue_struct@3@@@@Z 
01:00044C60 ?continue_definiteUser_explicit@exception@@SAXPAUprogramPoint_struct@core@@PBUtraceId@1@PAUexception_struct@3@PB_WPAU?$__packedList_struct@PAUnamedValue_struct@3@PAUvalue_struct@3@@@@Z 
01:00044CE8 ?isDefiniteUserError@exception@@SAXPBUtraceId@1@@Z  (Idle)
01:00044D24 ?_getLastErrorDescription@exception@@SAXPBUhResult@core@@PAPB_W@Z 
01:00044D60 ?_makeCallStack@exception@@SAXPAPAU?$__packedList_struct@PAPAUlineInfo_struct@1@@@@Z  (Idle)
01:00044D94 ?_tryGetExceptionDescription@exception@@SAXPBUtraceId@1@PAPB_W@Z 
01:00044DE8 ?_mkTraceId@exception@@SAXXAAUtraceId@1@@Z  (Idle)
01:00044E2C ?new$@errorDescriptorInformation@@SAXQAV1@@PAUprogramPoint_struct@core@@PAUexception_struct@4@PAUkind_struct@exception@@PAU?$__packedList_struct@PAUnamedValue_struct@4@PAUvalue_struct@4@@@PAPBUgmtTimeValue@4@PBUthreadId@multiThread_native@@@Z  (Idle)
01:00044EB4 ?gmtTimeFormatted@errorDescriptorInformation@@SGPB_WQAV1@@@Z 
01:00044EE0 ?_tryGetContinueException$@errorDescriptorInformation@@SAXQAV1@@PAPAV1@@@Z 
01:00044F04 ?setContinueException$@errorDescriptorInformation@@SAXQAV1@@0@Z 
01:00044F2C ?_create@errorDescriptorInformation@@SAXPAUprogramPoint_struct@core@@PAUexception_struct@3@PAUkind_struct@exception@@PAU?$__packedList_struct@PAUnamedValue_struct@3@PAUvalue_struct@3@@@PAPAV1@@@Z 
01:00044F70 ?exceptionDescription@errorDescriptorInformation@@SGPB_WQAV1@@@Z 
--- From 'Obj\exceptiondump.2B9C9E40.obj'
01:00044F90 ?_formatDateTime@errorDescriptorInformation@@SAXPAPBUgmtTimeValue@core@@PAPB_W@Z 
--- From 'Obj\exception.B6F320E8.obj'
01:0004501C ?_new@errorDescriptorInformation@@SAXPAUprogramPoint_struct@core@@PAUexception_struct@3@PAUkind_struct@exception@@PAU?$__packedList_struct@PAUnamedValue_struct@3@PAUvalue_struct@3@@@PAPBUgmtTimeValue@3@PBUthreadId@multiThread_native@@PAPAV1@@@Z 
01:00045054 ?exception@errorDescriptorInformation@@SGPAUexception_struct@core@@QAV1@@@Z 
01:00045060 ?programPointDescriptor@errorDescriptorInformation@@SGPAUprogramPointDescriptor_struct@exception@@QAV1@@@Z 
01:0004506C ?kind@errorDescriptorInformation@@SGPAUkind_struct@exception@@QAV1@@@Z 
01:00045078 ?extraInfo@errorDescriptorInformation@@SGXQAV1@@PAU?$__packedList_struct@PAUnamedValue_struct@core@@PAUvalue_struct@4@@@@Z 
01:00045088 ?extraInfo@errorDescriptorInformation@@SGPAU?$__packedList_struct@PAUnamedValue_struct@core@@PAUvalue_struct@3@@@QAV1@@@Z 
01:00045094 ?_gmtTime@errorDescriptorInformation@@SAXQAV1@@PAAAUgmtTimeValue@core@@@Z 
01:000450A8 ?threadId@errorDescriptorInformation@@SGPBU0multiThread_native@@QAV1@@@Z 
01:000450BC errorDescriptorInformation?_initObject@@@QAGXQAV1@H@Z 
01:000450D4 ?@create_object@errorDescriptorInformation@@SGQAV1@@XZ 
01:000450F0 errorDescriptorInformation?_InternalFinalizer@@@QAGXQAV1@@Z 
--- From 'Obj\exceptiondump.2B9C9E40.obj'
01:00045100 ?dump@exceptionDump@@SAXQAVoutputStream@@@PBUtraceId@exception@@@Z  (Idle)
01:00045128 ?dump_info@exceptionDump@@SAXQAVoutputStream@@@PAUtraceInfo_struct@exception@@@Z 
01:0004518C ?dump_programPoint@exceptionDump@@SAXQAVoutputStream@@@PAUprogramPoint_struct@core@@@Z 
01:00045254 ?dumpToStdOutput@exceptionDump@@SAXPBUtraceId@exception@@@Z 
01:0004527C ?dumpToStdOutput_info@exceptionDump@@SAXPAUtraceInfo_struct@exception@@@Z 
01:000452A4 ?dumpToStdOutput_programpoint@exceptionDump@@SAXPAUprogramPoint_struct@core@@@Z  (Idle)
01:000452CC ?_dumpToString@exceptionDump@@SAXPBUtraceId@exception@@PAPB_W@Z  (Idle)
01:000452F4 ?_dumpToString_info@exceptionDump@@SAXPAUtraceInfo_struct@exception@@PAPB_W@Z 
01:00045328 ?_dumpToString_programpoint@exceptionDump@@SAXPAUprogramPoint_struct@core@@PAPB_W@Z  (Idle)
01:0004535C ?dumpToStdOutputInTrap@exceptionDump@@SAXQAVrTypeLibrary@TypeLibraries@RunTime@VIP@@XPA$?predicate$2@core@@SAXQAVoutputStream@@@X@Z$@Z 
01:00045470 ?processErrorOnDumpToStdOutTrapped@exceptionDump@@SAXPBUtraceId@exception@@@Z 
01:0004552C ?_formatDescriptorList@exceptionDump@@SAXPAU?$__packedList_struct@PAUdescriptor_struct@exception@@@@PAPB_W@Z  (Idle)
01:00045560 ?_formatDescriptor@exceptionDump@@SAXPAUdescriptor_struct@exception@@PAPB_W@Z  (Idle)
01:00045594 ?_formatExtraInfo@exceptionDump@@SAXPAU?$__packedList_struct@PAUnamedValue_struct@core@@PAUvalue_struct@3@@@PAPB_W@Z  (Idle)
01:000455C8 ?_formatLineInfoList@exceptionDump@@SAXPAU?$__packedList_struct@PAUlineInfo_struct@exception@@@@PAPB_W@Z  (Idle)
01:000455FC ?_fillUsrMsgTags@exceptionDump@@SAXPB_WPAU?$__packedList_struct@PAUnamedValue_struct@core@@PAUvalue_struct@3@@@PAPB_W@Z  (Idle)
01:000456D4 ?_substituteTag@exceptionDump@@SAXPB_WPAU?$__packedList_struct@PAUnamedValue_struct@core@@PAUvalue_struct@3@@@PAPB_W@Z 
01:00045728 ?_value2String@exceptionDump@@SAXPAUvalue_struct@core@@PAPB_W@Z 
01:00045794 ?getUserMsgFromNV_dt@exceptionDump@@SAXPAU?$__packedList_struct@PAUnamedValue_struct@core@@PAUvalue_struct@3@@@PAPB_W@Z  (Idle)
01:00045854 ?_getUserMsg@exceptionDump@@SAXPAU?$__packedList_struct@PAUdescriptor_struct@exception@@@@PAPB_W@Z  (Idle)
01:000458A0 ?writeUserMsg@exceptionDump@@SAXQAVoutputStream@@@PAU?$__packedList_struct@PAUdescriptor_struct@exception@@@@@Z 
01:00045918 ?_tryGetUserMsg@exceptionDump@@SAXPAUdescriptor_struct@exception@@PAPB_W@Z 
01:00045930 ?_tryGetUserMessage@exceptionDump@@SAXPBUtraceId@exception@@PAPB_W@Z  (Idle)
01:00045958 ?_tryGetUserMessage_info@exceptionDump@@SAXPAUtraceInfo_struct@exception@@PAPB_W@Z 
01:00045970 ?_tryGetUserMessageFromDescriptorList@exceptionDump@@SAXPAU?$__packedList_struct@PAUdescriptor_struct@exception@@@@PAPB_W@Z 
01:0004599C ?writeTraceInfo@exceptionDump@@SAXQAVoutputStream@@@PAUtraceInfo_struct@exception@@@Z 
01:000459F4 ?writeDescriptor_list@exceptionDump@@SAXQAVoutputStream@@@PAU?$__packedList_struct@PAUdescriptor_struct@exception@@@@@Z 
01:00045A38 ?writeErrorDescriptorInformation@exceptionDump@@SAXQAVoutputStream@@@PAUdescriptor_struct@exception@@@Z 
01:00045CC0 ?writeOSInformation@exceptionDump@@SAXQAVoutputStream@@@PB_W@Z 
01:00045CFC ?writeLineInfo_list@exceptionDump@@SAXQAVoutputStream@@@PAU?$__packedList_struct@PAUlineInfo_struct@exception@@@@@Z 
01:00045DB0 ?writeLineInfo@exceptionDump@@SAXQAVoutputStream@@@PAUlineInfo_struct@exception@@@Z 
01:00045E68 ?writeExtraInfo@exceptionDump@@SAXQAVoutputStream@@@PAU?$__packedList_struct@PAUnamedValue_struct@core@@PAUvalue_struct@4@@@@Z 
01:00045EEC ?writePosition@exceptionDump@@SAXQAVoutputStream@@@IPB_W@Z 
01:00045F30 ?writeNamedValue@exceptionDump@@SAXQAVoutputStream@@@PAUnamedValue_struct@core@@PAUvalue_struct@4@@Z 
01:00045FEC ?writeValue_or_NULL@exceptionDump@@SAXQAVoutputStream@@@PB_W@Z  (Idle)
01:00046060 ?writeValue@exceptionDump@@SAXQAVoutputStream@@@PAUvalue_struct@core@@@Z 
01:00046394 ?writeValue_or_NULL@exceptionDump@@SAXQAVoutputStream@@@PAD@Z 
01:00046408 ?writeValue_or_NULL@exceptionDump@@SAXQAVoutputStream@@@QAE@Z 
01:0004647C ?writeValue_or_NULL@exceptionDump@@SAXQAVoutputStream@@@PBUbinaryNonAtomic@_builtIn@@@Z 
01:000464F0 ?writeValue_or_NULL@exceptionDump@@SAXQAVoutputStream@@@QAVobject@@@@Z 
--- From 'Obj\filesystem.5B0F823E.obj'
01:00046570 ?create$@outputStream_file@@SAXQAV1@@PB_W@Z  (Idle)
01:0004659C ?create$@outputStream_file@@SAXQAV1@@PB_WPAUmode_struct@stream@@@Z  (Idle)
01:000465C0 ?create$@outputStream_file@@SAXQAV1@@PB_WPAUmode_struct@stream@@PAUaccessPermit_struct@fileSystem_api@@@Z  (Idle)
01:000465DC ?create$@outputStream_file@@SAXQAV1@@PB_WPAUmode_struct@stream@@PAUaccessPermit_struct@fileSystem_api@@PAU?$__packedList_struct@PAUfileAttributeAtom_struct@6@@@PBUbyteCount@core@@@Z  (Idle)
01:00046628 ?create$@outputStream_file@@SAXQAV1@@PB_WPAUmode_struct@stream@@PAUaccessPermit_struct@fileSystem_api@@PAU?$__packedList_struct@PAUfileAttributeAtom_struct@6@@@@Z 
01:0004663C ?create8$@outputStream_file@@SAXQAV1@@PB_W@Z  (Idle)
01:00046654 ?create8$@outputStream_file@@SAXQAV1@@PB_WPAUaccessPermit_struct@fileSystem_api@@@Z 
01:00046680 ?createUtf8$@outputStream_file@@SAXQAV1@@PB_W@Z  (Idle)
01:00046698 ?createUtf8$@outputStream_file@@SAXQAV1@@PB_WPAUaccessPermit_struct@fileSystem_api@@@Z 
01:000466C4 ?createUtf8_bom$@outputStream_file@@SAXQAV1@@PB_W@Z  (Idle)
01:000466DC ?createUtf8_bom$@outputStream_file@@SAXQAV1@@PB_WPAUaccessPermit_struct@fileSystem_api@@@Z 
01:000467A0 ?commonPartOfConstructors$@outputStream_file@@SAXQAV1@@PBUfileHandle@core@@PAUmode_struct@stream@@PBUbyteCount@4@@Z 
01:000467E4 ?handleMode_create$@outputStream_file@@SAXQAV1@@PAUmode_struct@stream@@@Z 
01:00046834 ?openFile$@outputStream_file@@SAXQAV1@@PB_W@Z  (Idle)
01:00046858 ?openFile8$@outputStream_file@@SAXQAV1@@PB_W@Z  (Idle)
01:0004687C ?openFile8$@outputStream_file@@SAXQAV1@@PB_WPAUaccessPermit_struct@fileSystem_api@@@Z  (Idle)
01:000468A4 ?openFileUtf8$@outputStream_file@@SAXQAV1@@PB_W@Z  (Idle)
01:000468C8 ?openFileUtf8$@outputStream_file@@SAXQAV1@@PB_WPAUaccessPermit_struct@fileSystem_api@@@Z  (Idle)
01:000468F0 ?openFile$@outputStream_file@@SAXQAV1@@PB_WPAUmode_struct@stream@@@Z  (Idle)
01:00046908 ?openFile$@outputStream_file@@SAXQAV1@@PB_WPAUmode_struct@stream@@PAUaccessPermit_struct@fileSystem_api@@@Z 
01:00046954 ?append$@outputStream_file@@SAXQAV1@@PB_W@Z  (Idle)
01:00046970 ?append8$@outputStream_file@@SAXQAV1@@PB_W@Z  (Idle)
01:0004698C ?append8$@outputStream_file@@SAXQAV1@@PB_WPAUaccessPermit_struct@fileSystem_api@@@Z  (Idle)
01:000469B4 ?appendUtf8$@outputStream_file@@SAXQAV1@@PB_W@Z  (Idle)
01:000469D0 ?appendUtf8$@outputStream_file@@SAXQAV1@@PB_WPAUaccessPermit_struct@fileSystem_api@@@Z  (Idle)
01:000469F8 ?append$@outputStream_file@@SAXQAV1@@PB_WPAUmode_struct@stream@@@Z 
01:00046A10 ?append$@outputStream_file@@SAXQAV1@@PB_WPAUmode_struct@stream@@PAUaccessPermit_struct@fileSystem_api@@@Z 
01:00046A6C ?newHandleFile$@outputStream_file@@SAXQAV1@@PBUfileHandle@core@@PAUmode_struct@stream@@@Z  (Idle)
01:00046AB4 ?newHandle$@outputStream_file@@SAXQAV1@@PBUfileHandle@core@@PAUmode_struct@stream@@@Z  (Idle)
01:00046ACC ?newHandle$@outputStream_file@@SAXQAV1@@PBUfileHandle@core@@PAUmode_struct@stream@@PBUbyteCount@4@@Z  (Idle)
01:00046AD4 ?skipUnicodeSignature$@outputStream_file@@SAXQAV1@@PAUmode_struct@stream@@@Z 
01:00046B28 ?skip$@outputStream_file@@SAXQAV1@@HPBUbyteCount@core@@@Z 
01:00046B98 ?doFlush$@outputStream_file@@SAXQAVoutputStreamSupportSite@@@@Z 
01:00046BA8 ?getCRLFconversion$@outputStream_file@@SGPAUboolean_struct@_builtIn@@QAVstream@@@@Z 
01:00046BD8 ?setCRLFconversion$@outputStream_file@@SGXQAVstream@@@PAUboolean_struct@_builtIn@@@Z 
01:00046C38 ?getPosition$@outputStream_file@@SGPBUfileSize@fileSystem_api@@QAVstream@@@@Z 
01:00046CE5 ?setPosition$@outputStream_file@@SGXQAVstream@@@PBUfileSize@fileSystem_api@@@Z 
01:00046DC8 ?_checkMovingIsInsideBuffer$@outputStream_file@@SAXQAV1@@PAPBUfileSize@fileSystem_api@@1PBUbyteCount@core@@AAU78@@Z 
01:00046EEC ?setMaxOffsetUsedInCurrentBuffer$@outputStream_file@@SAXQAV1@@PBUbyteCount@core@@@Z 
01:00046F0C ?close$@outputStream_file@@SGXQAVstream@@@@Z 
01:00046F58 ?flush$@outputStream_file@@SAXQAVoutputStream@@@@Z 
01:00046F7C ?bufferFullCallBack$@outputStream_file@@SAXQAV1@@PBUbyteCount@core@@@Z  (Idle)
01:00046FF4 ?convertLFtoCRLF_IfNeeded$@outputStream_file@@SAXQAV1@@PAXPBUbyteCount@core@@PAPAXAAU34@@Z 
01:0004704C ?convertToANSI_IfNeeded$@outputStream_file@@SAXQAV1@@PAXPBUbyteCount@core@@PAPAXAAU34@@Z 
01:000470D8 ?getBuffer$@outputStream_file@@SGXQAVoutputStreamSupportSite@@@PAPAXAAUbyteCount@core@@@Z 
01:00047134 ?finalize$@outputStream_file@@SGXQAV1@@@Z 
01:00047160 ?_create@outputStream_file@@SAXPB_WPAPAVoutputStream@@@@Z 
01:00047188 ?_create@outputStream_file@@SAXPB_WPAUmode_struct@stream@@PAPAVoutputStream@@@@Z  (Idle)
01:000471B4 ?_create@outputStream_file@@SAXPB_WPAUmode_struct@stream@@PAUaccessPermit_struct@fileSystem_api@@PAPAVoutputStream@@@@Z  (Idle)
01:000471E4 ?_create@outputStream_file@@SAXPB_WPAUmode_struct@stream@@PAUaccessPermit_struct@fileSystem_api@@PAU?$__packedList_struct@PAUfileAttributeAtom_struct@5@@@PAPAVoutputStream@@@@Z  (Idle)
01:00047218 ?_create@outputStream_file@@SAXPB_WPAUmode_struct@stream@@PAUaccessPermit_struct@fileSystem_api@@PAU?$__packedList_struct@PAUfileAttributeAtom_struct@5@@@PBUbyteCount@core@@PAPAVoutputStream@@@@Z  (Idle)
01:0004724C ?_create8@outputStream_file@@SAXPB_WPAPAVoutputStream@@@@Z  (Idle)
01:00047274 ?_create8@outputStream_file@@SAXPB_WPAUaccessPermit_struct@fileSystem_api@@PAPAVoutputStream@@@@Z  (Idle)
01:000472A0 ?_createUtf8@outputStream_file@@SAXPB_WPAPAVoutputStream@@@@Z  (Idle)
01:000472C8 ?_createUtf8@outputStream_file@@SAXPB_WPAUaccessPermit_struct@fileSystem_api@@PAPAVoutputStream@@@@Z  (Idle)
01:000472F4 ?_createUtf8_bom@outputStream_file@@SAXPB_WPAPAVoutputStream@@@@Z  (Idle)
01:0004731C ?_createUtf8_bom@outputStream_file@@SAXPB_WPAUaccessPermit_struct@fileSystem_api@@PAPAVoutputStream@@@@Z  (Idle)
01:00047348 ?_openFile@outputStream_file@@SAXPB_WPAPAVoutputStream@@@@Z  (Idle)
01:00047370 ?_openFile@outputStream_file@@SAXPB_WPAUmode_struct@stream@@PAPAVoutputStream@@@@Z  (Idle)
01:0004739C ?_openFile@outputStream_file@@SAXPB_WPAUmode_struct@stream@@PAUaccessPermit_struct@fileSystem_api@@PAPAVoutputStream@@@@Z  (Idle)
01:000473CC ?_openFile8@outputStream_file@@SAXPB_WPAPAVoutputStream@@@@Z  (Idle)
01:000473F4 ?_openFile8@outputStream_file@@SAXPB_WPAUaccessPermit_struct@fileSystem_api@@PAPAVoutputStream@@@@Z  (Idle)
01:00047420 ?_openFileUtf8@outputStream_file@@SAXPB_WPAPAVoutputStream@@@@Z  (Idle)
01:00047448 ?_openFileUtf8@outputStream_file@@SAXPB_WPAUaccessPermit_struct@fileSystem_api@@PAPAVoutputStream@@@@Z  (Idle)
01:00047474 ?_append@outputStream_file@@SAXPB_WPAPAVoutputStream@@@@Z  (Idle)
01:0004749C ?_append@outputStream_file@@SAXPB_WPAUmode_struct@stream@@PAPAVoutputStream@@@@Z  (Idle)
01:000474C8 ?_append@outputStream_file@@SAXPB_WPAUmode_struct@stream@@PAUaccessPermit_struct@fileSystem_api@@PAPAVoutputStream@@@@Z  (Idle)
01:000474F8 ?_append8@outputStream_file@@SAXPB_WPAPAVoutputStream@@@@Z  (Idle)
01:00047520 ?_append8@outputStream_file@@SAXPB_WPAUaccessPermit_struct@fileSystem_api@@PAPAVoutputStream@@@@Z  (Idle)
01:0004754C ?_appendUtf8@outputStream_file@@SAXPB_WPAPAVoutputStream@@@@Z  (Idle)
01:00047574 ?_appendUtf8@outputStream_file@@SAXPB_WPAUaccessPermit_struct@fileSystem_api@@PAPAVoutputStream@@@@Z  (Idle)
01:000475A0 ?_newHandleFile@outputStream_file@@SAXPBUfileHandle@core@@PAUmode_struct@stream@@PAPAVoutputStream@@@@Z  (Idle)
01:000475CC ?_newHandle@outputStream_file@@SAXPBUfileHandle@core@@PAUmode_struct@stream@@PAPAVoutputStream@@@@Z  (Idle)
01:000475F8 ?_newHandle@outputStream_file@@SAXPBUfileHandle@core@@PAUmode_struct@stream@@PBUbyteCount@3@PAPAVoutputStream@@@@Z  (Idle)
01:00047628 ?_object_facts_initializer$@outputStream_file@@SGXQAV1@@@Z 
01:00047650 ?append$@messageFile@@SAXQAV1@@PB_W@Z  (Idle)
01:0004766C ?append$@messageFile@@SAXQAV1@@PB_WPAUmode_struct@stream@@@Z 
01:00047684 ?flush$@messageFile@@SAXQAVoutputStream@@@@Z 
01:0004768C ?write/0ep$1@messageFile@@SAXPAUwrite/0ep$1_struct@1@QAVoutputStream@@@@Z 
01:000476B8 ?write$@messageFile@@SAXQAVoutputStream@@@@Z 
01:00047758 ?writef/1ep$1@messageFile@@SAXPAUwritef/1ep$1_struct@1@QAVoutputStream@@@@Z 
01:00047790 ?writef$@messageFile@@SAXQAVoutputStream@@@PB_W@Z 
01:00047834 ?writequoted/0ep$1@messageFile@@SAXPAUwritequoted/0ep$1_struct@1@QAVoutputStream@@@@Z 
01:00047860 ?writeQuoted$@messageFile@@SAXQAVoutputStream@@@@Z 
01:00047900 ?nl/0np$1@messageFile@@SAXQAVoutputStream@@@@Z 
01:00047910 ?nl$@messageFile@@SAXQAVoutputStream@@@@Z 
01:0004792C ?writebytes/2np$1@messageFile@@SAXPAUwritebytes/2np$1_struct@1@QAVoutputStream@@@@Z 
01:00047964 ?writeBytes$@messageFile@@SAXQAVoutputStream@@@PAXPBUbyteCount@core@@@Z 
01:000479A0 ?save/1np$1@messageFile@@SAXPAUsave/1np$1_struct@1@QAVoutputStream@@@@Z 
01:000479C4 ?save$@messageFile@@SAXQAVoutputStream@@@PBUfactDB@_builtIn@@@Z 
01:000479FC ?writeOperation$@messageFile@@SAXQAV1@@X@Z 
01:00047AA0 ?setMode$@messageFile@@SGXQAVstream@@@PAUmode_struct@2@@Z 
01:00047AB8 ?getMode$@messageFile@@SGPAUmode_struct@stream@@QAV3@@@Z 
01:00047AC4 ?getCRLFconversion$@messageFile@@SGPAUboolean_struct@_builtIn@@QAVstream@@@@Z 
01:00047ACC ?setCRLFconversion$@messageFile@@SGXQAVstream@@@PAUboolean_struct@_builtIn@@@Z 
01:00047AF4 ?close$@messageFile@@SGXQAVstream@@@@Z 
01:00047B04 ?getPosition$@messageFile@@SGPBUfileSize@fileSystem_api@@QAVstream@@@@Z 
01:00047B1C ?setPosition$@messageFile@@SGXQAVstream@@@PBUfileSize@fileSystem_api@@@Z 
01:00047B34 ?present/0ep$1@messageFile@@SAXPAUpresent/0ep$1_struct@1@QAVoutputStream@@@@Z 
01:00047B60 ?present$@messageFile@@SAXQAVoutputStream@@@@Z 
01:00047C00 ?streamFromInputBuffer$@messageFile@@SAXQAVoutputStream@@@QAVinputBuffer@@@@Z 
01:00047C18 ?_append@messageFile@@SAXPB_WPAPAVoutputStream@@@@Z  (Idle)
01:00047C40 ?_append@messageFile@@SAXPB_WPAUmode_struct@stream@@PAPAVoutputStream@@@@Z  (Idle)
01:00047C6C ?_object_facts_initializer$@messageFile@@SGXQAV1@@@Z 
01:00047C84 ?allowNullPointers@messageFile@@SGXQAVstream@@@PAUboolean_struct@_builtIn@@@Z 
01:00047C94 ?allowNullPointers@messageFile@@SGPAUboolean_struct@_builtIn@@QAVstream@@@@Z 
01:00047CA0 ?openFile8$@inputStream_file@@SAXQAV1@@PB_W@Z  (Idle)
01:00047CBC ?openFileUtf8$@inputStream_file@@SAXQAV1@@PB_W@Z  (Idle)
01:00047CD8 ?openFile$@inputStream_file@@SAXQAV1@@PB_W@Z  (Idle)
01:00047CF4 ?openFile$@inputStream_file@@SAXQAV1@@PB_WPAUmode_struct@stream@@@Z 
01:00047D0C ?openFile$@inputStream_file@@SAXQAV1@@PB_WPAUmode_struct@stream@@PAUaccessPermit_struct@fileSystem_api@@@Z 
01:00047D24 ?openFile$@inputStream_file@@SAXQAV1@@PB_WPAUmode_struct@stream@@PAUaccessPermit_struct@fileSystem_api@@PBUbyteCount@core@@@Z 
01:00047D74 ?openFileBom$@inputStream_file@@SAXQAV1@@PB_W@Z  (Idle)
01:00047D8C ?openFileBom$@inputStream_file@@SAXQAV1@@PB_WPAUaccessPermit_struct@fileSystem_api@@@Z 
01:00047DB0 ?checkBom$@inputStream_file@@SAXQAV1@@@Z 
01:00047EC8 ?newHandle$@inputStream_file@@SAXQAV1@@PBUfileHandle@core@@PAUmode_struct@stream@@@Z  (Idle)
01:00047EE0 ?newBlockedPipe$@inputStream_file@@SAXQAV1@@PBUfileHandle@core@@PAUmode_struct@stream@@@Z  (Idle)
01:00047F04 ?newHandleFile$@inputStream_file@@SAXQAV1@@PBUfileHandle@core@@PAUmode_struct@stream@@@Z  (Idle)
01:00047F34 ?_halfBufferSize$@inputStream_file@@SAXQAV1@@AAUbyteCount@core@@@Z  (Idle)
01:00047F4C ?commonPartOfConstructors$@inputStream_file@@SAXQAV1@@PBUfileHandle@core@@PAUmode_struct@stream@@PAUboolean_struct@_builtIn@@@Z 
01:00048010 ?allocBuffer$@inputStream_file@@SAXQAV1@@@Z 
01:00048068 ?skipUnicodeSignature$@inputStream_file@@SAXQAV1@@PAUmode_struct@stream@@@Z 
01:000480BC ?skip$@inputStream_file@@SAXQAV1@@HPBUbyteCount@core@@@Z 
01:0004812C ?handlingMode$@inputStream_file@@SAXQAV1@@PAUmode_struct@stream@@@Z 
01:000481E4 ?checkBufferSize@inputStream_file@@SAXPBUbyteCount@core@@@Z 
01:00048238 ?getPosition$@inputStream_file@@SGPBUfileSize@fileSystem_api@@QAVstream@@@@Z 
01:000482FC ?_handlingFileMode$@inputStream_file@@SAXQAV1@@PAUmode_struct@stream@@PBUbyteCount@core@@2AAU56@@Z 
01:0004839C ?_handleTextMode$@inputStream_file@@SAXQAV1@@PAUmode_struct@stream@@PBUbyteCount@core@@IAAU56@@Z 
01:00048424 ?_getPassedConv@inputStream_file@@SAXPAU?$__packedList_struct@PBUbyteCount@core@@@@IIPBU23@PAI@Z 
01:000484BC ?setPosition$@inputStream_file@@SGXQAVstream@@@PBUfileSize@fileSystem_api@@@Z 
01:000485F8 ?_checkMovingIsInsideBuffer@inputStream_file@@SAXPAPBUfileSize@fileSystem_api@@0PBUbyteCount@core@@2AAU67@@Z 
01:0004875C ?close$@inputStream_file@@SGXQAVstream@@@@Z 
01:00048790 ?getCRLFconversion$@inputStream_file@@SGPAUboolean_struct@_builtIn@@QAVstream@@@@Z 
01:000487D8 ?setCRLFconversion$@inputStream_file@@SGXQAVstream@@@PAUboolean_struct@_builtIn@@@Z 
01:000488A0 ?setMode$@inputStream_file@@SGXQAVstream@@@PAUmode_struct@2@@Z 
01:00048944 ?_checkModeAndPos$@inputStream_file@@SAXQAV1@@PAUmode_struct@stream@@PAPBUfileSize@fileSystem_api@@PAAAU56@@Z 
01:00048A4C ?getBufferLocked$@inputStream_file@@SGXQAVbufferSupport@@@PAPAXAAUbyteCount@core@@@Z 
01:00048A78 ?getBuffer$@inputStream_file@@SGXQAVbufferSupport@@@PAPAXAAUbyteCount@core@@@Z 
01:00048ACC ?_fillBuffer$@inputStream_file@@SAXQAV1@@PAUmode_struct@stream@@AAUbyteCount@core@@@Z 
01:00048C08 ?_getChar8sToSave@inputStream_file@@SAXPBUcodePage@core@@PAXPBUbyteCount@3@AAU43@@Z 
01:00048C78 ?_getChar8sToSave_utf8@inputStream_file@@SAXPAXPBUbyteCount@core@@AAU23@@Z 
01:00048CFC ?_utf8CharLength@inputStream_file@@SAXPBUunsigned8@core@@AAUbyteCount@3@@Z 
01:00048ECC ?_convertToUnicode$@inputStream_file@@SAXQAV1@@PBUbyteCount@core@@PBUcodePage@4@PAXAAUcharCount@4@@Z 
01:00048F44 ?convertCRLFtoLF_ifNeeded$@inputStream_file@@SAXQAV1@@PAUmode_struct@stream@@PBUbyteCount@core@@PAPAXAAU56@@Z 
01:0004900C ?handlingBufferLastChar$@inputStream_file@@SAXQAV1@@PBUbyteCount@core@@PAPAXAAU34@@Z 
01:00049048 ?_readFromFile$@inputStream_file@@SAXQAV1@@PAXPBUbyteCount@core@@AAU34@@Z 
01:00049088 ?finalize$@inputStream_file@@SGXQAV1@@@Z 
01:000490AC ?_openFile@inputStream_file@@SAXPB_WPAPAVinputStream@@@@Z  (Idle)
01:000490D4 ?_openFile@inputStream_file@@SAXPB_WPAUmode_struct@stream@@PAPAVinputStream@@@@Z  (Idle)
01:00049100 ?_openFile@inputStream_file@@SAXPB_WPAUmode_struct@stream@@PAUaccessPermit_struct@fileSystem_api@@PAPAVinputStream@@@@Z 
01:00049130 ?_openFile@inputStream_file@@SAXPB_WPAUmode_struct@stream@@PAUaccessPermit_struct@fileSystem_api@@PBUbyteCount@core@@PAPAVinputStream@@@@Z  (Idle)
01:00049164 ?_openFile8@inputStream_file@@SAXPB_WPAPAVinputStream@@@@Z  (Idle)
01:0004918C ?_openFileUtf8@inputStream_file@@SAXPB_WPAPAVinputStream@@@@Z  (Idle)
01:000491B4 ?_openFileBom@inputStream_file@@SAXPB_WPAPAVinputStream@@@@Z  (Idle)
01:000491DC ?_openFileBom@inputStream_file@@SAXPB_WPAUaccessPermit_struct@fileSystem_api@@PAPAVinputStream@@@@Z  (Idle)
01:00049208 ?_newHandleFile@inputStream_file@@SAXPBUfileHandle@core@@PAUmode_struct@stream@@PAPAVinputStream@@@@Z  (Idle)
01:00049234 ?_newHandle@inputStream_file@@SAXPBUfileHandle@core@@PAUmode_struct@stream@@PAPAVinputStream@@@@Z  (Idle)
01:00049260 ?_newBlockedPipe@inputStream_file@@SAXPBUfileHandle@core@@PAUmode_struct@stream@@PAPAVinputStream@@@@Z  (Idle)
01:0004928C ?_object_facts_initializer$@inputStream_file@@SGXQAV1@@@Z 
01:000492C0 ?_tryVerQueryValue@fileVersion@@SAXQAEPB_WPAPAX@Z  (Idle)
01:0004930C ?_getFileVersionInformation@fileVersion@@SAXQAEPB_W1PAPB_W@Z  (Idle)
01:000493AC ?_loadVersionInfo@fileVersion@@SAXPB_WQAPAE@Z  (Idle)
01:0004946C ?_tryLoadVersionInfo@fileVersion@@SAXPB_WQAPAE@Z 
01:000494C0 ?_getLanguageAndCodePageKey@fileVersion@@SAXQAEPAPB_W@Z  (Idle)
01:0004954C ?_getVersionInfo@fileVersion@@SAXPB_WPAPAUversionInformation_struct@1@@Z  (Idle)
01:0004961C ?_getVersionBuildTime@fileVersion@@SAXPB_WPAPB_W@Z  (Idle)
01:00049674 ?_getProductVersion@fileVersion@@SAXPB_WPAPA_K@Z  (Idle)
01:000496D8 ?_getRootKey@fileVersion@@SAXQAEPAPAUvs_fixedfileinfo_struct@1@@Z 
01:00049724 ?_getFileVersionInfo@fileVersion@@SAXPB_WPAPAUfileVersionInformation_struct@1@@Z  (Idle)
01:000497D8 ?_tryGetFileVersionInfo@fileVersion@@SAXPB_WPAPAUfileVersionInformation_struct@1@@Z  (Idle)
01:00049898 ?_getProductVersionInfo@fileVersion@@SAXPB_WPAPAUfileVersionInformation_struct@1@@Z 
01:00049950 ?raise_fileAlreadyExists_explicit@fileSystem_exception@@SAXPAUprogramPoint_struct@core@@PB_W@Z  (Idle)
01:000499C4 ?raise_wrongAttribute_explicit@fileSystem_exception@@SAXPAUprogramPoint_struct@core@@I@Z  (Idle)
01:00049A38 ?raise_fileTooBig_explicit@fileSystem_exception@@SAXPAUprogramPoint_struct@core@@PB_W@Z  (Idle)
01:00049AAC ?checkFileReadResult_explicit@fileSystem_exception@@SAXPAUprogramPoint_struct@core@@H@Z  (Idle)
01:00049AE4 ?_getPath@filename@@SAXPB_WPAPB_W@Z  (Idle)
01:00049B04 ?_getPosLastSlash@filename@@SAXPB_WAAUcharCount@core@@@Z  (Idle)
01:00049B6C ?_getNameWithExtension@filename@@SAXPB_WPAPB_W@Z  (Idle)
01:00049B9C ?getPathAndName@filename@@SAXPB_WPAPB_W1@Z 
01:00049BE4 ?_getName1@filename@@SAXPB_WPAPB_W@Z  (Idle)
01:00049C18 ?_getLastDirectory@filename@@SAXPB_WPAPB_W1@Z  (Idle)
01:00049C70 ?_removeLastSlash@filename@@SAXPB_WPAPB_W@Z 
01:00049CE8 ?_getName@filename@@SAXPB_WPAPB_W@Z  (Idle)
01:00049D10 ?_charGet@filename@@SAXPB_WPBUcharCountOptional@core@@AAU23@@Z  (Idle)
01:00049D80 ?_getExtension@filename@@SAXPB_WPAPB_W@Z  (Idle)
01:00049DD4 ?_getExtension@filename@@SAXPB_WPAPB_W1@Z  (Idle)
01:00049E4C ?_setPath@filename@@SAXPB_W0PAPB_W@Z 
01:00049E78 ?_setName@filename@@SAXPB_W0PAPB_W@Z  (Idle)
01:00049ED4 ?_setExtension@filename@@SAXPB_W0PAPB_W@Z  (Idle)
01:00049FD8 ?_reduce@filename@@SAXPB_W0PAPB_W@Z  (Idle)
01:0004A0EC ?_reduceToShort@filename@@SAXPB_W0PAPB_W@Z  (Idle)
01:0004A138 ?getFirstDirectory@filename@@SAXPB_WPAPB_W1@Z 
01:0004A220 ?getNetName@filename@@SAXPB_W0PAPB_W2@Z 
01:0004A278 ?_setTrailSlash@filename@@SAXPB_WPAPB_W@Z 
01:0004A2C4 ?_getSlashList@filename@@SAXPB_W_WPBUcharCount@core@@PAPAU?$__packedList_struct@AAU23@@@@Z  (Idle)
01:0004A354 ?_tail@filename@@SAXPB_WPBUcharCount@core@@PAPB_W@Z 
01:0004A374 ?_getOrderedList@filename@@SAXPAU?$__packedList_struct@PBUcharCount@core@@@@0PAPAU?$__packedList_struct@AAU23@@@@Z  (Idle)
01:0004A41C ?splitPathString@filename@@SAXPB_WPAU?$__packedList_struct@PBUcharCount@core@@@@PBU23@PAPAU?$__packedList_struct@PAPB_W@@AAU23@@Z  (Idle)
01:0004A4AC ?splitOntoPathAndName@filename@@SAXPB_WPAPAU?$__packedList_struct@PAPB_W@@PAPB_W@Z 
01:0004A560 ?_splitFileExt@filename@@SAXPB_WPAPB_W@Z 
01:0004A59C ?_splitFilename@filename@@SAXPB_WPAPB_W@Z 
01:0004A5E8 ?_directoryCompare@filename@@SAXPAU?$__packedList_struct@PB_W@@PAU?$__packedList_struct@0@@PAPB_W@Z 
01:0004A658 ?_glueRest@filename@@SAXPAU?$__packedList_struct@PB_W@@PAU?$__packedList_struct@0@@PAPB_W@Z 
01:0004A6A4 ?splitPath@filename@@SAXPB_WPAPAU?$__packedList_struct@PAPB_W@@AAUcharCount@core@@@Z 
01:0004A714 ?_nameConcat@filename@@SAXPB_W00PAPB_W@Z 
01:0004A7A8 ?_createPath@filename@@SAXPB_W0PAPB_W@Z  (Idle)
01:0004A818 ?_reducePath@filename@@SAXPB_WPAPB_W@Z  (Idle)
01:0004A898 ?_createPath@filename@@SAX_WPB_W11PAPB_W@Z 
01:0004A958 ?_concatWithSlash@filename@@SAXPB_W0PAPB_W@Z 
01:0004A9F0 ?_getTypeOfSlash@filename@@SAXPB_W0PAPB_W@Z 
01:0004AA9C ?isSlash@filename@@SAX_W@Z 
01:0004AABC ?_checkSecondCharAfterSlash@filename@@SAXPB_W00PAPB_W@Z 
01:0004AB88 ?_checkThirdCharAfterColon@filename@@SAXPB_W_W00PAPB_W@Z 
01:0004AC5C ?_reducePath@filename@@SAX_WPB_WPAPB_W@Z 
01:0004AC8C ?_applyFilename@filename@@SAXPB_WPAU?$__packedList_struct@0@@PAPAU?$__packedList_struct@PAPB_W@@@Z 
01:0004AD98 ?stay_dir@filename@@SAXPB_W@Z  (Idle)
01:0004ADD8 ?up_dir@filename@@SAXPB_W@Z 
01:0004AE20 ?_reducePath_reversed@filename@@SAXPAU?$__packedList_struct@PB_W@@PAPAU?$__packedList_struct@PAPB_W@@@Z 
01:0004AF00 ?_upOneDir_reversed@filename@@SAXPAU?$__packedList_struct@PB_W@@PAPAU?$__packedList_struct@PAPB_W@@@Z 
01:0004B024 ?notDriveOrNetworkVolume@filename@@SAXPB_W@Z 
01:0004B0DC ?_normalize@filename@@SAXPB_WPAPB_W@Z  (Idle)
01:0004B1B4 ?_normalizeSl@filename@@SAXPB_WPAPB_W@Z 
01:0004B204 ?isAbsolutePath@filename@@SAXPB_W@Z  (Idle)
01:0004B2A4 ?front_wc@filename@@SAXPB_WPBUcharCount@core@@PAPB_W2@Z 
01:0004B2D8 ?up_dir@filename@@SAXPAPB_W@Z 
01:0004B2EC ?copy@file@@SAXPB_W0@Z  (Idle)
01:0004B304 ?copy@file@@SAXPB_W0PAUoverwrite_struct@1@@Z 
01:0004B370 ?move@file@@SAXPB_W0@Z  (Idle)
01:0004B388 ?move@file@@SAXPB_W0PAUoverwrite_struct@1@@Z 
01:0004B40C ?delete@file@@SAXPB_W@Z  (Idle)
01:0004B4A0 ?existExactFile@file@@SAXPB_W@Z  (Idle)
01:0004B4C8 ?isReadOnly@file@@SAXPB_W@Z  (Idle)
01:0004B4FC ?existFilePattern@file@@SAXPB_W@Z  (Idle)
01:0004B604 ?tryGetFile@file@@SAXPBUsearchHandle@fileSystem_native@@PAUwin32_find_data_struct@3@@Z 
01:0004B6A0 ?_createUniqueName@file@@SAXPB_W0PAPB_W@Z 
01:0004B7A8 ?_getPhysicalName@file@@SAXPB_WPAPB_W@Z  (Idle)
01:0004B9C4 ?setAttributes@file@@SAXPB_WPAU?$__packedList_struct@PAUfileAttributeAtom_struct@fileSystem_api@@@@PAUboolean_struct@_builtIn@@@Z  (Idle)
01:0004BC0C ?getFileProperties@file@@SAXPB_WPAPAU?$__packedList_struct@PAPAUfileAttributeAtom_struct@fileSystem_api@@@@PAAAUfileSize@3@PAAAUgmtTimeValue@core@@33@Z  (Idle)
01:0004BCC4 ?_tryGetLastChange@file@@SAXPB_WPAAAUgmtTimeValue@core@@@Z  (Idle)
01:0004BD08 ?setFileTime@file@@SAXPB_WPAPBUgmtTimeValue@core@@11@Z  (Idle)
01:0004BF44 ?moveToRecycleBin@file@@SAXPB_W@Z  (Idle)
01:0004C080 ?_readBinary@file@@SAXPB_WQAPAE@Z  (Idle)
01:0004C144 ?_readFile@file@@SAXPBUfileHandle@core@@PAXPBUbyteCount@3@AAU43@@Z 
01:0004C14C ?_readBinary@file@@SAXPB_WPAPBUfileSize@fileSystem_api@@PBUbyteCount@core@@QAPAE@Z  (Idle)
01:0004C290 ?_readString@file@@SAXPB_WPAPB_W@Z  (Idle)
01:0004C2B0 ?_readString@file@@SAXPB_WPAPAUboolean_struct@_builtIn@@PAPB_W@Z 
01:0004C344 ?_readStringFromHandle@file@@SAXPBUfileHandle@core@@PAPAUboolean_struct@_builtIn@@PAPB_W@Z 
01:0004C428 ?_checkMode@file@@SAXPB_WPAPAUmode_struct@stream@@@Z  (Idle)
01:0004C524 ?_readSegmented_binary@file@@SAXPB_WPAPAUsegmented_struct@segmented@@QAPAE@Z  (Idle)
01:0004C584 ?_readSegmented_utf16@file@@SAXPB_WPAPAUsegmented_utf16_struct@segmented@@@Z  (Idle)
01:0004C5F4 ?streamTo@file@@SAXQAVinputStream@@@QAVoutputStream@@@@Z 
01:0004C674 ?isUnicode@file@@SAXPB_W@Z  (Idle)
01:0004C69C ?tryBOM@file@@SAXPAXPBUbyteCount@core@@PB_W1@Z  (Idle)
01:0004C6CC ?checkUnicode@file@@SAXPAXPBUbyteCount@core@@PAPAUmode_struct@stream@@AAU23@@Z 
01:0004C78C ?_getString@file@@SAXPBUbyteCount@core@@PAXPAUmode_struct@stream@@0PAPB_W@Z 
01:0004C7E8 ?_getString2@file@@SAXPBUbyteCount@core@@PAXPAUmode_struct@stream@@PAXPAPB_W@Z 
01:0004C87C ?_getFileSize@file@@SAXPBUfileHandle@core@@PB_WAAUbyteCount@3@@Z 
01:0004C944 ?writeSegmented_binary@file@@SAXPB_WPAUsegmented_struct@segmented@@QAE@Z  (Idle)
01:0004C988 ?writeSegmented_utf16@file@@SAXPB_WPAUsegmented_utf16_struct@segmented@@@Z  (Idle)
01:0004C9CC ?writeSegmented_utf16_bom@file@@SAXPB_WPAUsegmented_utf16_struct@segmented@@@Z  (Idle)
01:0004CA3C ?writeBinary@file@@SAXPB_WQAE@Z  (Idle)
01:0004CAE8 ?writeFile@file@@SAXPBUfileHandle@core@@PAXPBUbyteCount@3@@Z 
01:0004CB0C ?writeBinary@file@@SAXPB_WPAPBUfileSize@fileSystem_api@@QAE@Z  (Idle)
01:0004CBD0 ?appendString@file@@SAXPB_W0PAUboolean_struct@_builtIn@@@Z  (Idle)
01:0004CC20 ?writeString@file@@SAXPB_W0@Z  (Idle)
01:0004CC4C ?writeString@file@@SAXPB_W0PAUboolean_struct@_builtIn@@@Z  (Idle)
01:0004CC6C ?writeStringUtf8@file@@SAXPB_W0@Z  (Idle)
01:0004CC94 ?writeStringUtf8_bom@file@@SAXPB_W0@Z  (Idle)
01:0004CCBC ?writeString_codePage@file@@SAXPB_W0PBU2core@@@Z 
01:0004CCFC ?writeStringAndClose@file@@SAXQAVoutputStream@@@PB_W@Z 
01:0004CD88 ?checkResult@file@@SAXPBUhResult@core@@PB_W11PAUoverwrite_struct@1@@Z 
01:0004D038 ?fileExists_errorCode@file@@SAXPBUhResult@core@@@Z 
01:0004D058 ?hideUnicodeSignature@file@@SAXQAEPBUbyteCount@core@@PAPAXAAU23@@Z 
01:0004D0D8 ?_setDestination@file@@SAXPB_W0PAPB_W@Z 
01:0004D130 ?_toApiAttributes@file@@SAXPAU?$__packedList_struct@PAUfileAttributeAtom_struct@fileSystem_api@@@@PAI@Z 
01:0004D158 ?checkOnLegal@file@@SAXI@Z 
01:0004D18C ?_mixAttributes@file@@SAXPAUboolean_struct@_builtIn@@IIPAI@Z 
01:0004D1D8 ?checkFileHandle@file@@SAXPBUfileHandle@core@@PB_W@Z 
01:0004D208 ?_getStreamCheckUnicode@file@@SAXPB_WPAUboolean_struct@_builtIn@@PAPAVoutputStream@@@@Z  (Idle)
01:0004D230 ?save@file@@SAXPB_WPBUfactDB@_builtIn@@@Z  (Idle)
01:0004D248 ?save@file@@SAXPB_WPBUfactDB@_builtIn@@PAUboolean_struct@3@@Z 
01:0004D2D0 ?saveUtf8@file@@SAXPB_WPBUfactDB@_builtIn@@@Z  (Idle)
01:0004D358 ?consult@file@@SAXPB_WPBUfactDB@_builtIn@@@Z  (Idle)
01:0004D378 ?consult@file@@SAXPB_WPBUfactDB@_builtIn@@PAPAUboolean_struct@3@@Z 
01:0004D428 ?reconsult@file@@SAXPB_WPBUfactDB@_builtIn@@@Z  (Idle)
01:0004D448 ?reconsult@file@@SAXPB_WPBUfactDB@_builtIn@@PAPAUboolean_struct@3@@Z 
01:0004D45C ?_trySearchFileInPath@file@@SAXPB_WPAPB_W@Z  (Idle)
01:0004D4A0 ?_getFilenameHash@file@@SAXPB_WPAI@Z  (Idle)
01:0004D4DC ?existFile@file@@SAXPB_W@Z  (Idle)
01:0004D4E4 ?deleteDirectory@directory@@SAXPB_W@Z  (Idle)
01:0004D4EC ?makeDirectory@directory@@SAXPB_W@Z  (Idle)
01:0004D500 ?makeDirectoryPath@directory@@SAXPB_W@Z  (Idle)
01:0004D5B8 ?makeDirectoryPath2@directory@@SAXPB_W@Z 
01:0004D6B4 ?setCurrentDirectory@directory@@SAXPB_W@Z  (Idle)
01:0004D6BC ?_getCurrentDirectory@directory@@SAXPAPB_W@Z 
01:0004D6C4 ?moveDirectory@directory@@SAXPB_W0@Z  (Idle)
01:0004D6CC ?setVolumeLabel@directory@@SAXPB_W0@Z  (Idle)
01:0004D6D4 ?existDirectory@directory@@SAXPB_W@Z 
01:0004D818 ?existExactDirectory@directory@@SAXPB_W@Z 
01:0004D848 ?isFirst@directory@@SAXPBUsearchHandle@fileSystem_native@@PAUwin32_find_data_struct@3@@Z  (Idle)
01:0004D8EC ?isEmpty@directory@@SAXPB_W@Z  (Idle)
01:0004DB00 ?_dirWithoutBackslash@directory@@SAXPB_WPAPB_W@Z 
01:0004DB4C ?getDirectoryProperties@directory@@SAXPB_WPAPAU?$__packedList_struct@PAPAUfileAttributeAtom_struct@fileSystem_api@@@@PAAAUgmtTimeValue@core@@22@Z  (Idle)
01:0004DB74 ?getVolumeProperties@directory@@SAXPB_WPAPAUvolumeType_struct@1@PAAAUfileSize@fileSystem_api@@2PAPB_WPAI@Z  (Idle)
01:0004DBCC ?_tryGetLogicalDirectory@directory@@SAXPBUdirectoryID@1@PAPB_W@Z  (Idle)
01:0004DBE8 ?_getLogicalDirectory@directory@@SAXPBUdirectoryID@1@PAPB_W@Z 
01:0004DC04 ?_getTemporaryDirectory@directory@@SAXPAPB_W@Z  (Idle)
01:0004DC0C ?_tryCreateLogicalDirectory@directory@@SAXPBUdirectoryID@1@PAPB_W@Z  (Idle)
01:0004DC28 ?_getFilesInDirectory_nd@directory@@SAXPB_WPAPB_W@Z  (Idle)
01:0004DC48 ?_getFilesInDirectory_nd@directory@@SAXPB_W0PAPB_W@Z 
01:0004DC64 ?_getFilesInDirectory_nd@directory@@SAXPB_W0PAUboolean_struct@_builtIn@@PAPB_W@Z 
01:0004DC8C ?_getSubDirectories_nd@directory@@SAXPB_WPAPB_W@Z  (Idle)
01:0004DCAC ?_getSubDirectories_nd@directory@@SAXPB_W0PAPB_W@Z 
01:0004DCD0 ?_getAllSubDirectories_nd@directory@@SAXPB_WPAPB_W@Z  (Idle)
01:0004DD38 ?_getFilesInDirectoryAndSub_nd@directory@@SAXPB_WPAPB_W@Z  (Idle)
01:0004DD58 ?_getFilesInDirectoryAndSub_nd@directory@@SAXPB_W0PAPB_W@Z 
01:0004DDE4 ?_find@directory@@SAXPB_W0IPAUboolean_struct@_builtIn@@PAPB_W@Z 
01:0004DF48 ?_dirWithBackslash@directory@@SAXPB_WPAPB_W@Z 
01:0004DFC4 ?isSlash@directory@@SAX_W@Z 
01:0004DFE4 ?findNext@directory@@SAXPBUsearchHandle@fileSystem_native@@PAUwin32_find_data_struct@3@I@Z 
01:0004E06C ?_findNext_nd@directory@@SAXPBUsearchHandle@fileSystem_native@@PAUwin32_find_data_struct@3@IPAUboolean_struct@_builtIn@@PAPB_W@Z 
01:0004E190 ?_createFullName@directory@@SAXPB_W0PAPB_W@Z 
01:0004E23C ?_tryLogicalDirectoryBuff@directory@@SAXPBUdirectoryId@1@PAUboolean_struct@_builtIn@@PB_WPAPB_W@Z  (Idle)
01:0004E31C ?_logicalDirectoryBuff@directory@@SAXPBUdirectoryId@1@PAUboolean_struct@_builtIn@@PB_WPAPB_W@Z  (Idle)
01:0004E51C ?_tryLogicalDirectory@directory@@SAXPBUdirectoryId@1@PAUboolean_struct@_builtIn@@PAPB_W@Z 
01:0004E554 ?_logicalDirectory@directory@@SAXPBUdirectoryId@1@PAUboolean_struct@_builtIn@@PAPB_W@Z 
01:0004E58C ?_addNeedCreateIfNecessary@directory@@SAXPBUdirectoryId@1@PAUboolean_struct@_builtIn@@AAU21@@Z 
01:0004E5BC ?_convertToVolumeType@directory@@SAXHPAPAUvolumeType_struct@1@@Z 
01:0004E624 ?copyDirectory@directory@@SAXPB_W0PAUboolean_struct@_builtIn@@@Z  (Idle)
01:0004E678 ?copyDir@directory@@SAXPB_W0PAUboolean_struct@_builtIn@@@Z 
01:0004E79C ?forAllFiles@directory@@SAXPB_WPA$?predicate$1@core@@SAXPB_W@Z$@Z  (Idle)
01:0004E7BC ?forAllFiles@directory@@SAXPB_WPA$?predicate$1@core@@SAXPB_W@Z$0PAUboolean_struct@_builtIn@@@Z 
01:0004EBCC outputStream_file?_initObject@@@QAGXQAV1@H@Z 
01:0004EC04 ?@create_object@outputStream_file@@SGQAV1@@XZ 
01:0004EC20 outputStream_file?_InternalFinalizer@@@QAGXQAV1@@Z 
01:0004EC78 messageFile?_initObject@@@QAGXQAV1@H@Z 
01:0004EC9C ?@create_object@messageFile@@SGQAV1@@XZ 
01:0004ECB8 messageFile?_InternalFinalizer@@@QAGXQAV1@@Z 
01:0004EF70 inputStream_file?_initObject@@@QAGXQAV1@H@Z 
01:0004EFA8 ?@create_object@inputStream_file@@SGQAV1@@XZ 
01:0004EFC4 inputStream_file?_InternalFinalizer@@@QAGXQAV1@@Z 
--- From 'Obj\list.A75CEA31.obj'
01:0004F020 ?_comparelexically/1nf$1@list@@SAXPAUcomparelexically/1nf$1_struct@1@PAU?$__packedList_struct@X@@1PAPAUcompareResult_struct@_builtIn@@@Z 
01:0004F078 ?_compareLexically@list@@SAXQAVrTypeLibrary@TypeLibraries@RunTime@VIP@@0PA$?_comparator$2@core@@SAXXXPAPAUcompareResult_struct@_builtIn@@@Z$PAPA$?_comparator$2@core@@SAXPAU?$__packedList_struct@X@@0PAPAUcompareResult_struct@_builtIn@@@Z$@Z  (Idle)
01:0004F0B8 ?_compareLexically@list@@SAXQAVrTypeLibrary@TypeLibraries@RunTime@VIP@@0PA$?_comparator$2@core@@SAXXXPAPAUcompareResult_struct@_builtIn@@@Z$PAU?$__packedList_struct@X@@3PAPAU23@@Z 
01:0004F178 ?_length2@list@@SAXQAVrTypeLibrary@TypeLibraries@RunTime@VIP@@PAU?$__packedList_struct@X@@PBUpositive@core@@AAU23@@Z  (Idle)
--- From 'Obj\memory.568C55F8.obj'
01:0004F1AC ?_length@list@@SAXQAVrTypeLibrary@TypeLibraries@RunTime@VIP@@PAU?$__packedList_struct@X@@AAUpositive@core@@@Z 
--- From 'Obj\list.A75CEA31.obj'
01:0004F1C4 ?isMember@list@@SAXQAVrTypeLibrary@TypeLibraries@RunTime@VIP@@XPAU?$__packedList_struct@X@@@Z  (Idle)
01:0004F214 ?isMemberEq@list@@SAXQAVrTypeLibrary@TypeLibraries@RunTime@VIP@@0PA$?predicate_dt$2@core@@SAXXX@Z$XPAU?$__packedList_struct@X@@@Z  (Idle)
01:0004F280 ?isMemberBy@list@@SAXQAVrTypeLibrary@TypeLibraries@RunTime@VIP@@0PA$?_comparator$2@core@@SAXXXPAPAUcompareResult_struct@_builtIn@@@Z$XPAU?$__packedList_struct@X@@@Z  (Idle)
01:0004F2AC ?comp2eq/1nf$1@list@@SAXPAUcomp2eq/1nf$1_struct@1@XX@Z 
01:0004F2E8 ?_comp2eq@list@@SAXQAVrTypeLibrary@TypeLibraries@RunTime@VIP@@0PA$?_comparator$2@core@@SAXXXPAPAUcompareResult_struct@_builtIn@@@Z$PAPA$?predicate_dt$2@core@@SAXXX@Z$@Z 
01:0004F328 ?_tryGetMemberBy@list@@SAXQAVrTypeLibrary@TypeLibraries@RunTime@VIP@@0PA$?_comparator$2@core@@SAXXXPAPAUcompareResult_struct@_builtIn@@@Z$XPAU?$__packedList_struct@X@@PAX@Z  (Idle)
01:0004F350 ?_tryGetMemberEq@list@@SAXQAVrTypeLibrary@TypeLibraries@RunTime@VIP@@0PA$?predicate_dt$2@core@@SAXXX@Z$XPAU?$__packedList_struct@X@@PAX@Z 
01:0004F3DC ?_getMember_nd@list@@SAXQAVrTypeLibrary@TypeLibraries@RunTime@VIP@@PAU?$__packedList_struct@X@@PAX@Z  (Idle)
01:0004F434 ?_getTupleMember_nd@list@@SAXQAVrTypeLibrary@TypeLibraries@RunTime@VIP@@0PAUtuple_struct@core@@PAU?$__packedList_struct@X@@PAU?$__packedList_struct@X@@PAPAU23@PAXPAX@Z  (Idle)
01:0004F468 ?memberIndexAcc_nd@list@@SAXQAVrTypeLibrary@TypeLibraries@RunTime@VIP@@PAXAAUpositive@core@@PAU?$__packedList_struct@X@@PBU23@@Z  (Idle)
01:0004F4D8 ?memberIndex_nd@list@@SAXQAVrTypeLibrary@TypeLibraries@RunTime@VIP@@PAXAAUpositive@core@@PAU?$__packedList_struct@X@@@Z 
01:0004F4E8 ?_zipHead_nd@list@@SAXQAVrTypeLibrary@TypeLibraries@RunTime@VIP@@0PAU?$__packedList_struct@X@@2PAPAUtuple_struct@core@@PAXPAX@Z  (Idle)
01:0004F574 ?_zip_nd@list@@SAXQAVrTypeLibrary@TypeLibraries@RunTime@VIP@@0PAU?$__packedList_struct@X@@2PAPAUtuple_struct@core@@PAXPAX@Z 
01:0004F624 ?_zip_nd@list@@SAXQAVrTypeLibrary@TypeLibraries@RunTime@VIP@@00PAU?$__packedList_struct@X@@33PAPAUtuple_struct@core@@PAXPAXPAX@Z  (Idle)
01:0004F760 ?_zip_nd@list@@SAXQAVrTypeLibrary@TypeLibraries@RunTime@VIP@@000PAU?$__packedList_struct@X@@444PAPAUtuple_struct@core@@PAXPAXPAXPAX@Z  (Idle)
01:0004F99C ?_zip_nd@list@@SAXQAVrTypeLibrary@TypeLibraries@RunTime@VIP@@0000PAU?$__packedList_struct@X@@5555PAPAUtuple_struct@core@@PAXPAXPAXPAXPAX@Z  (Idle)
01:0004FC70 ?_zip_nd@list@@SAXQAVrTypeLibrary@TypeLibraries@RunTime@VIP@@00000PAU?$__packedList_struct@X@@66666PAPAUtuple_struct@core@@PAXPAXPAXPAXPAXPAX@Z  (Idle)
01:0004FFA8 ?_zip_nd@list@@SAXQAVrTypeLibrary@TypeLibraries@RunTime@VIP@@000000PAU?$__packedList_struct@X@@777777PAPAUtuple_struct@core@@PAXPAXPAXPAXPAXPAXPAX@Z  (Idle)
01:0005036C ?_zip_nd@list@@SAXQAVrTypeLibrary@TypeLibraries@RunTime@VIP@@0000000PAU?$__packedList_struct@X@@8888888PAPAUtuple_struct@core@@PAXPAXPAXPAXPAXPAXPAXPAX@Z  (Idle)
01:000507C0 ?_zip_nd@list@@SAXQAVrTypeLibrary@TypeLibraries@RunTime@VIP@@00000000PAU?$__packedList_struct@X@@99999999PAPAUtuple_struct@core@@PAXPAXPAXPAXPAXPAXPAXPAXPAX@Z  (Idle)
01:00050CC8 ?_zip_nd@list@@SAXQAVrTypeLibrary@TypeLibraries@RunTime@VIP@@000000000PAU?$__packedList_struct@X@@101010101010101010PAPAUtuple_struct@core@@PAXPAXPAXPAXPAXPAXPAXPAXPAXPAX@Z  (Idle)
01:0005126C ?_zip_nd@list@@SAXQAVrTypeLibrary@TypeLibraries@RunTime@VIP@@0000000000PAU?$__packedList_struct@X@@11111111111111111111PAPAUtuple_struct@core@@PAXPAXPAXPAXPAXPAXPAXPAXPAXPAXPAX@Z  (Idle)
01:000518B0 ?_zip_nd@list@@SAXQAVrTypeLibrary@TypeLibraries@RunTime@VIP@@00000000000PAU?$__packedList_struct@X@@1212121212121212121212PAPAUtuple_struct@core@@PAXPAXPAXPAXPAXPAXPAXPAXPAXPAXPAXPAX@Z  (Idle)
01:00051F88 ?_zipWith@list@@SAXQAVrTypeLibrary@TypeLibraries@RunTime@VIP@@00PA$?_function$3@core@@SAXXXPAX@Z$PAU?$__packedList_struct@X@@4PAPAU?$__packedList_struct@PAX@@@Z  (Idle)
01:00052034 ?_zip@list@@SAXQAVrTypeLibrary@TypeLibraries@RunTime@VIP@@0PAU?$__packedList_struct@X@@2PAPAU?$__packedList_struct@PAPAUtuple_struct@core@@PAXPAX@@@Z  (Idle)
01:000520A0 ?_zip@list@@SAXQAVrTypeLibrary@TypeLibraries@RunTime@VIP@@00PAU?$__packedList_struct@X@@33PAPAU?$__packedList_struct@PAPAUtuple_struct@core@@PAXPAXPAX@@@Z  (Idle)
01:00052114 ?_zip@list@@SAXQAVrTypeLibrary@TypeLibraries@RunTime@VIP@@000PAU?$__packedList_struct@X@@444PAPAU?$__packedList_struct@PAPAUtuple_struct@core@@PAXPAXPAXPAX@@@Z  (Idle)
01:0005218C ?_zip@list@@SAXQAVrTypeLibrary@TypeLibraries@RunTime@VIP@@0000PAU?$__packedList_struct@X@@5555PAPAU?$__packedList_struct@PAPAUtuple_struct@core@@PAXPAXPAXPAXPAX@@@Z  (Idle)
01:0005220C ?_zip@list@@SAXQAVrTypeLibrary@TypeLibraries@RunTime@VIP@@00000PAU?$__packedList_struct@X@@66666PAPAU?$__packedList_struct@PAPAUtuple_struct@core@@PAXPAXPAXPAXPAXPAX@@@Z  (Idle)
01:00052290 ?_zip@list@@SAXQAVrTypeLibrary@TypeLibraries@RunTime@VIP@@000000PAU?$__packedList_struct@X@@777777PAPAU?$__packedList_struct@PAPAUtuple_struct@core@@PAXPAXPAXPAXPAXPAXPAX@@@Z  (Idle)
01:0005231C ?_zip@list@@SAXQAVrTypeLibrary@TypeLibraries@RunTime@VIP@@0000000PAU?$__packedList_struct@X@@8888888PAPAU?$__packedList_struct@PAPAUtuple_struct@core@@PAXPAXPAXPAXPAXPAXPAXPAX@@@Z  (Idle)
01:000523AC ?_zip@list@@SAXQAVrTypeLibrary@TypeLibraries@RunTime@VIP@@00000000PAU?$__packedList_struct@X@@99999999PAPAU?$__packedList_struct@PAPAUtuple_struct@core@@PAXPAXPAXPAXPAXPAXPAXPAXPAX@@@Z  (Idle)
01:00052444 ?_zip@list@@SAXQAVrTypeLibrary@TypeLibraries@RunTime@VIP@@000000000PAU?$__packedList_struct@X@@101010101010101010PAPAU?$__packedList_struct@PAPAUtuple_struct@core@@PAXPAXPAXPAXPAXPAXPAXPAXPAXPAX@@@Z  (Idle)
01:000524E0 ?_zip@list@@SAXQAVrTypeLibrary@TypeLibraries@RunTime@VIP@@0000000000PAU?$__packedList_struct@X@@11111111111111111111PAPAU?$__packedList_struct@PAPAUtuple_struct@core@@PAXPAXPAXPAXPAXPAXPAXPAXPAXPAXPAX@@@Z  (Idle)
01:00052584 ?_zip@list@@SAXQAVrTypeLibrary@TypeLibraries@RunTime@VIP@@00000000000PAU?$__packedList_struct@X@@1212121212121212121212PAPAU?$__packedList_struct@PAPAUtuple_struct@core@@PAXPAXPAXPAXPAXPAXPAXPAXPAXPAXPAXPAX@@@Z  (Idle)
01:0005262C ?unzip@list@@SAXQAVrTypeLibrary@TypeLibraries@RunTime@VIP@@0PAU?$__packedList_struct@PAUtuple_struct@core@@XX@@PAPAU?$__packedList_struct@PAX@@3@Z  (Idle)
01:000526BC ?unzip@list@@SAXQAVrTypeLibrary@TypeLibraries@RunTime@VIP@@00PAU?$__packedList_struct@PAUtuple_struct@core@@XXX@@PAPAU?$__packedList_struct@PAX@@44@Z  (Idle)
01:00052780 ?unzip@list@@SAXQAVrTypeLibrary@TypeLibraries@RunTime@VIP@@000PAU?$__packedList_struct@PAUtuple_struct@core@@XXXX@@PAPAU?$__packedList_struct@PAX@@555@Z  (Idle)
01:00052874 ?unzip@list@@SAXQAVrTypeLibrary@TypeLibraries@RunTime@VIP@@0000PAU?$__packedList_struct@PAUtuple_struct@core@@XXXXX@@PAPAU?$__packedList_struct@PAX@@6666@Z  (Idle)
01:0005299C ?unzip@list@@SAXQAVrTypeLibrary@TypeLibraries@RunTime@VIP@@00000PAU?$__packedList_struct@PAUtuple_struct@core@@XXXXXX@@PAPAU?$__packedList_struct@PAX@@77777@Z  (Idle)
01:00052AF4 ?unzip@list@@SAXQAVrTypeLibrary@TypeLibraries@RunTime@VIP@@000000PAU?$__packedList_struct@PAUtuple_struct@core@@XXXXXXX@@PAPAU?$__packedList_struct@PAX@@888888@Z  (Idle)
01:00052C80 ?unzip@list@@SAXQAVrTypeLibrary@TypeLibraries@RunTime@VIP@@0000000PAU?$__packedList_struct@PAUtuple_struct@core@@XXXXXXXX@@PAPAU?$__packedList_struct@PAX@@9999999@Z  (Idle)
01:00052E4C ?unzip@list@@SAXQAVrTypeLibrary@TypeLibraries@RunTime@VIP@@00000000PAU?$__packedList_struct@PAUtuple_struct@core@@XXXXXXXXX@@PAPAU?$__packedList_struct@PAX@@1010101010101010@Z  (Idle)
01:00053064 ?unzip@list@@SAXQAVrTypeLibrary@TypeLibraries@RunTime@VIP@@000000000PAU?$__packedList_struct@PAUtuple_struct@core@@XXXXXXXXXX@@PAPAU?$__packedList_struct@PAX@@111111111111111111@Z  (Idle)
01:000532FC ?unzip@list@@SAXQAVrTypeLibrary@TypeLibraries@RunTime@VIP@@0000000000PAU?$__packedList_struct@PAUtuple_struct@core@@XXXXXXXXXXX@@PAPAU?$__packedList_struct@PAX@@12121212121212121212@Z  (Idle)
01:000535E0 ?unzip@list@@SAXQAVrTypeLibrary@TypeLibraries@RunTime@VIP@@00000000000PAU?$__packedList_struct@PAUtuple_struct@core@@XXXXXXXXXXXX@@PAPAU?$__packedList_struct@PAX@@1313131313131313131313@Z  (Idle)
01:0005390C ?_sortby/3nf$1@list@@SAXPAUsortby/3nf$1_struct@1@XXPAPAUcompareResult_struct@_builtIn@@@Z 
01:0005395C ?_sortBy@list@@SAXQAVrTypeLibrary@TypeLibraries@RunTime@VIP@@PA$?_comparator$1@core@@SAXXXPAPAUcompareResult_struct@_builtIn@@@Z$PAU?$__packedList_struct@X@@PAUsortOrder_struct@3@PAPAU?$__packedList_struct@PAX@@@Z  (Idle)
01:000539B8 ?_sortBy@list@@SAXQAVrTypeLibrary@TypeLibraries@RunTime@VIP@@PA$?_comparator$1@core@@SAXXXPAPAUcompareResult_struct@_builtIn@@@Z$PAU?$__packedList_struct@X@@PAPAU?$__packedList_struct@PAX@@@Z 
01:000539E4 ?_sort/1$1@list@@SAXPAUsort/1$1_struct@1@XXPAPAUcompareResult_struct@_builtIn@@@Z 
01:000539FC ?_sort@list@@SAXQAVrTypeLibrary@TypeLibraries@RunTime@VIP@@PAU?$__packedList_struct@X@@PAPAU?$__packedList_struct@PAX@@@Z  (Idle)
01:00053A48 ?_sort/2nf$1@list@@SAXPAUsort/2nf$1_struct@1@XXPAPAUcompareResult_struct@_builtIn@@@Z 
01:00053A7C ?_sort@list@@SAXQAVrTypeLibrary@TypeLibraries@RunTime@VIP@@PAU?$__packedList_struct@X@@PAUsortOrder_struct@core@@PAPAU?$__packedList_struct@PAX@@@Z  (Idle)
01:00053AE4 ?_merge@list@@SAXQAVrTypeLibrary@TypeLibraries@RunTime@VIP@@PA$?_comparator$1@core@@SAXXXPAPAUcompareResult_struct@_builtIn@@@Z$PAU?$__packedList_struct@PAU?$__packedList_struct@X@@@@PAPAU?$__packedList_struct@PAX@@@Z 
01:00053B48 ?mergeL@list@@SAXQAVrTypeLibrary@TypeLibraries@RunTime@VIP@@PA$?_comparator$1@core@@SAXXXPAPAUcompareResult_struct@_builtIn@@@Z$PAU?$__packedList_struct@PAU?$__packedList_struct@X@@@@PAPAU?$__packedList_struct@PAPAU?$__packedList_struct@PAX@@@@@Z 
01:00053BD0 ?_merge2@list@@SAXQAVrTypeLibrary@TypeLibraries@RunTime@VIP@@PA$?_comparator$1@core@@SAXXXPAPAUcompareResult_struct@_builtIn@@@Z$PAU?$__packedList_struct@X@@2PAPAU?$__packedList_struct@PAX@@@Z 
01:00053CC8 ?_mkRuns@list@@SAXQAVrTypeLibrary@TypeLibraries@RunTime@VIP@@PA$?_comparator$1@core@@SAXXXPAPAUcompareResult_struct@_builtIn@@@Z$PAU?$__packedList_struct@X@@PAPAU?$__packedList_struct@PAPAU?$__packedList_struct@PAX@@@@@Z 
01:00053E14 ?takeRun@list@@SAXQAVrTypeLibrary@TypeLibraries@RunTime@VIP@@PA$?_comparator$1@core@@SAXXXPAPAUcompareResult_struct@_builtIn@@@Z$XPAU?$__packedList_struct@X@@PAPAU?$__packedList_struct@PAX@@4@Z 
01:00053F08 ?takeRunDown@list@@SAXQAVrTypeLibrary@TypeLibraries@RunTime@VIP@@PA$?_comparator$1@core@@SAXXXPAPAUcompareResult_struct@_builtIn@@@Z$XPAU?$__packedList_struct@X@@3PAPAU?$__packedList_struct@PAX@@5@Z 
01:00053FEC ?_append@list@@SAXQAVrTypeLibrary@TypeLibraries@RunTime@VIP@@PAU?$__packedList_struct@X@@1PAPAU?$__packedList_struct@PAX@@@Z  (Idle)
01:0005400C ?_append1@list@@SAXQAVrTypeLibrary@TypeLibraries@RunTime@VIP@@PAU?$__packedList_struct@X@@1PAPAU?$__packedList_struct@PAX@@@Z 
01:00054068 ?_append@list@@SAXQAVrTypeLibrary@TypeLibraries@RunTime@VIP@@PAU?$__packedList_struct@X@@11PAPAU?$__packedList_struct@PAX@@@Z  (Idle)
01:0005409C ?_append@list@@SAXQAVrTypeLibrary@TypeLibraries@RunTime@VIP@@PAU?$__packedList_struct@X@@111PAPAU?$__packedList_struct@PAX@@@Z  (Idle)
01:000540CC ?_append@list@@SAXQAVrTypeLibrary@TypeLibraries@RunTime@VIP@@PAU?$__packedList_struct@X@@1111PAPAU?$__packedList_struct@PAX@@@Z  (Idle)
01:000540FC ?_appendList@list@@SAXQAVrTypeLibrary@TypeLibraries@RunTime@VIP@@PAU?$__packedList_struct@PAU?$__packedList_struct@X@@@@PAPAU?$__packedList_struct@PAX@@@Z 
01:0005415C ?_appendList2@list@@SAXQAVrTypeLibrary@TypeLibraries@RunTime@VIP@@PAU?$__packedList_struct@X@@PAU?$__packedList_struct@PAU?$__packedList_struct@X@@@@PAPAU?$__packedList_struct@PAX@@@Z 
01:000541C0 ?_reverse@list@@SAXQAVrTypeLibrary@TypeLibraries@RunTime@VIP@@PAU?$__packedList_struct@X@@PAPAU?$__packedList_struct@PAX@@@Z 
01:000541E8 ?_reverse1@list@@SAXQAVrTypeLibrary@TypeLibraries@RunTime@VIP@@PAU?$__packedList_struct@X@@1PAPAU?$__packedList_struct@PAX@@@Z 
01:00054234 ?_remove@list@@SAXQAVrTypeLibrary@TypeLibraries@RunTime@VIP@@PAU?$__packedList_struct@X@@XPAPAU?$__packedList_struct@PAX@@@Z  (Idle)
01:000542C0 ?_removeBy@list@@SAXQAVrTypeLibrary@TypeLibraries@RunTime@VIP@@0PA$?_comparator$2@core@@SAXXXPAPAUcompareResult_struct@_builtIn@@@Z$PAU?$__packedList_struct@X@@XPAPAU?$__packedList_struct@PAX@@@Z  (Idle)
01:000542EC ?_removeEq@list@@SAXQAVrTypeLibrary@TypeLibraries@RunTime@VIP@@0PA$?predicate_dt$2@core@@SAXXX@Z$PAU?$__packedList_struct@X@@XPAPAU?$__packedList_struct@PAX@@@Z 
01:00054398 ?_removeAll@list@@SAXQAVrTypeLibrary@TypeLibraries@RunTime@VIP@@PAU?$__packedList_struct@X@@XPAPAU?$__packedList_struct@PAX@@@Z  (Idle)
01:00054444 ?_removeAllBy@list@@SAXQAVrTypeLibrary@TypeLibraries@RunTime@VIP@@0PA$?_comparator$2@core@@SAXXXPAPAUcompareResult_struct@_builtIn@@@Z$PAU?$__packedList_struct@X@@XPAPAU?$__packedList_struct@PAX@@@Z  (Idle)
01:00054470 ?_removeAllEq@list@@SAXQAVrTypeLibrary@TypeLibraries@RunTime@VIP@@0PA$?predicate_dt$2@core@@SAXXX@Z$PAU?$__packedList_struct@X@@XPAPAU?$__packedList_struct@PAX@@@Z 
01:00054520 ?_removeDuplicates@list@@SAXQAVrTypeLibrary@TypeLibraries@RunTime@VIP@@PAU?$__packedList_struct@X@@PAPAU?$__packedList_struct@PAX@@@Z  (Idle)
01:00054554 ?_removeDuplicatesBy@list@@SAXQAVrTypeLibrary@TypeLibraries@RunTime@VIP@@PA$?_comparator$1@core@@SAXXXPAPAUcompareResult_struct@_builtIn@@@Z$PAU?$__packedList_struct@X@@PAPAU?$__packedList_struct@PAX@@@Z  (Idle)
01:00054584 ?_removeDuplicates1@list@@SAXQAVrTypeLibrary@TypeLibraries@RunTime@VIP@@PAU?$__packedList_struct@X@@QAVsetM@@@XPAPAU?$__packedList_struct@PAX@@@Z 
01:00054664 ?_removeDuplicatesEq@list@@SAXQAVrTypeLibrary@TypeLibraries@RunTime@VIP@@PA$?predicate_dt$2@core@@SAXXX@Z$PAU?$__packedList_struct@X@@PAPAU?$__packedList_struct@PAX@@@Z  (Idle)
01:00054714 ?_removeConsecutiveDuplicates/1$1@list@@SAXPAUremoveConsecutiveDuplicates/1$1_struct@1@XXPAPAUcompareResult_struct@_builtIn@@@Z 
01:0005472C ?_removeConsecutiveDuplicates@list@@SAXQAVrTypeLibrary@TypeLibraries@RunTime@VIP@@PAU?$__packedList_struct@X@@PAPAU?$__packedList_struct@PAX@@@Z  (Idle)
01:00054778 ?_removeConsecutiveDuplicatesEq@list@@SAXQAVrTypeLibrary@TypeLibraries@RunTime@VIP@@PA$?predicate_dt$2@core@@SAXXX@Z$PAU?$__packedList_struct@X@@PAPAU?$__packedList_struct@PAX@@@Z  (Idle)
01:0005485C ?_removeConsecutiveDuplicatesBy@list@@SAXQAVrTypeLibrary@TypeLibraries@RunTime@VIP@@PA$?_comparator$1@core@@SAXXXPAPAUcompareResult_struct@_builtIn@@@Z$PAU?$__packedList_struct@X@@PAPAU?$__packedList_struct@PAX@@@Z 
01:0005492C ?_difference@list@@SAXQAVrTypeLibrary@TypeLibraries@RunTime@VIP@@PAU?$__packedList_struct@X@@1PAPAU?$__packedList_struct@PAX@@@Z  (Idle)
01:000549CC ?_differenceBy@list@@SAXQAVrTypeLibrary@TypeLibraries@RunTime@VIP@@0PA$?_comparator$2@core@@SAXXXPAPAUcompareResult_struct@_builtIn@@@Z$PAU?$__packedList_struct@X@@3PAPAU?$__packedList_struct@PAX@@@Z  (Idle)
01:000549F8 ?_differenceEq@list@@SAXQAVrTypeLibrary@TypeLibraries@RunTime@VIP@@0PA$?predicate_dt$2@core@@SAXXX@Z$PAU?$__packedList_struct@X@@3PAPAU?$__packedList_struct@PAX@@@Z 
01:00054AB0 ?_nDuplicates@list@@SAXQAVrTypeLibrary@TypeLibraries@RunTime@VIP@@XPBUpositive@core@@PAPAU?$__packedList_struct@PAX@@@Z  (Idle)
01:00054B00 ?_tryGetIndex@list@@SAXQAVrTypeLibrary@TypeLibraries@RunTime@VIP@@XPAU?$__packedList_struct@X@@AAUpositive@core@@@Z 
01:00054B1C ?_tryGetIndex@list@@SAXQAVrTypeLibrary@TypeLibraries@RunTime@VIP@@XPAU?$__packedList_struct@X@@PBUpositive@core@@AAU23@@Z 
01:00054B84 ?_tryGetIndexBy@list@@SAXQAVrTypeLibrary@TypeLibraries@RunTime@VIP@@0PA$?_comparator$2@core@@SAXXXPAPAUcompareResult_struct@_builtIn@@@Z$XPAU?$__packedList_struct@X@@AAUpositive@3@@Z  (Idle)
01:00054BD4 ?_tryGetIndexEq@list@@SAXQAVrTypeLibrary@TypeLibraries@RunTime@VIP@@0PA$?predicate_dt$2@core@@SAXXX@Z$XPAU?$__packedList_struct@X@@AAUpositive@3@@Z  (Idle)
01:00054BF0 ?_tryGetIndexEq@list@@SAXQAVrTypeLibrary@TypeLibraries@RunTime@VIP@@0PA$?predicate_dt$2@core@@SAXXX@Z$XPAU?$__packedList_struct@X@@PBUpositive@3@AAU23@@Z 
01:00054C74 ?_tryGetLast@list@@SAXQAVrTypeLibrary@TypeLibraries@RunTime@VIP@@PAU?$__packedList_struct@X@@PAX@Z  (Idle)
01:00054CCC ?_nth@list@@SAXQAVrTypeLibrary@TypeLibraries@RunTime@VIP@@PBUpositive@core@@PAU?$__packedList_struct@X@@PAX@Z 
01:00054D64 ?_tryGetNth@list@@SAXQAVrTypeLibrary@TypeLibraries@RunTime@VIP@@PBUpositive@core@@PAU?$__packedList_struct@X@@PAX@Z 
01:00054DDC ?_setNth@list@@SAXQAVrTypeLibrary@TypeLibraries@RunTime@VIP@@PBUpositive@core@@PAU?$__packedList_struct@X@@XPAPAU?$__packedList_struct@PAX@@@Z  (Idle)
01:00054EB4 ?setNth@list@@SAXQAVrTypeLibrary@TypeLibraries@RunTime@VIP@@PBUpositive@core@@PAU?$__packedList_struct@X@@XPAPAU?$__packedList_struct@PAX@@@Z  (Idle)
01:00054EBC ?split@list@@SAXQAVrTypeLibrary@TypeLibraries@RunTime@VIP@@PBUpositive@core@@PAU?$__packedList_struct@X@@PAPAU?$__packedList_struct@PAX@@3@Z  (Idle)
01:00054F44 ?_take@list@@SAXQAVrTypeLibrary@TypeLibraries@RunTime@VIP@@PBUpositive@core@@PAU?$__packedList_struct@X@@PAPAU?$__packedList_struct@PAX@@@Z  (Idle)
01:00054F68 ?_takeWhile@list@@SAXQAVrTypeLibrary@TypeLibraries@RunTime@VIP@@PAU?$__packedList_struct@X@@PA$?predicate_dt$1@core@@SAXX@Z$PAPAU?$__packedList_struct@PAX@@@Z  (Idle)
01:0005500C ?_drop@list@@SAXQAVrTypeLibrary@TypeLibraries@RunTime@VIP@@PBUpositive@core@@PAU?$__packedList_struct@X@@PAPAU?$__packedList_struct@PAX@@@Z  (Idle)
01:0005504C ?splitAfter@list@@SAXQAVrTypeLibrary@TypeLibraries@RunTime@VIP@@PA$?predicate_dt$1@core@@SAXX@Z$PAU?$__packedList_struct@X@@PAPAU?$__packedList_struct@PAX@@3@Z  (Idle)
01:00055120 ?_splitafter/2nf$1@list@@SAXPAUsplitafter/2nf$1_struct@1@PAU?$__packedList_struct@X@@PAPAUtuple_struct@core@@PAPAU?$__packedList_struct@PAX@@PAPAU?$__packedList_struct@PAX@@@Z 
01:0005518C ?_splitAfter@list@@SAXQAVrTypeLibrary@TypeLibraries@RunTime@VIP@@PA$?predicate_dt$1@core@@SAXX@Z$PAU?$__packedList_struct@X@@PAPAU?$__packedList_struct@PAPAU?$__packedList_struct@PAX@@@@@Z  (Idle)
01:00055218 ?_maximumBy@list@@SAXQAVrTypeLibrary@TypeLibraries@RunTime@VIP@@PA$?_comparator$1@core@@SAXXXPAPAUcompareResult_struct@_builtIn@@@Z$PAU?$__packedList_struct@X@@PAX@Z  (Idle)
01:0005527C ?_maximum/1$1@list@@SAXPAUmaximum/1$1_struct@1@XXPAPAUcompareResult_struct@_builtIn@@@Z 
01:00055294 ?_maximum@list@@SAXQAVrTypeLibrary@TypeLibraries@RunTime@VIP@@PAU?$__packedList_struct@X@@PAX@Z  (Idle)
01:000552E0 ?_minimumby/2nf$1@list@@SAXPAUminimumby/2nf$1_struct@1@XXPAPAUcompareResult_struct@_builtIn@@@Z 
01:0005534C ?_minimumBy@list@@SAXQAVrTypeLibrary@TypeLibraries@RunTime@VIP@@PA$?_comparator$1@core@@SAXXXPAPAUcompareResult_struct@_builtIn@@@Z$PAU?$__packedList_struct@X@@PAX@Z  (Idle)
01:000553E0 ?_minimum/1$1@list@@SAXPAUminimum/1$1_struct@1@XXPAPAUcompareResult_struct@_builtIn@@@Z 
01:000553F8 ?_minimum@list@@SAXQAVrTypeLibrary@TypeLibraries@RunTime@VIP@@PAU?$__packedList_struct@X@@PAX@Z  (Idle)
01:00055444 ?_extremum@list@@SAXQAVrTypeLibrary@TypeLibraries@RunTime@VIP@@PA$?_comparator$1@core@@SAXXXPAPAUcompareResult_struct@_builtIn@@@Z$XPAU?$__packedList_struct@X@@PAX@Z 
01:000554D8 ?_sum/1nf0$1@list@@SAXHHPAH@Z 
01:000554EC ?_sum@list@@SAXPAU?$__packedList_struct@H@@PAH@Z  (Idle)
01:0005552C ?_union@list@@SAXQAVrTypeLibrary@TypeLibraries@RunTime@VIP@@PAU?$__packedList_struct@X@@1PAPAU?$__packedList_struct@PAX@@@Z  (Idle)
01:000555CC ?_unionBy@list@@SAXQAVrTypeLibrary@TypeLibraries@RunTime@VIP@@PA$?_comparator$1@core@@SAXXXPAPAUcompareResult_struct@_builtIn@@@Z$PAU?$__packedList_struct@X@@2PAPAU?$__packedList_struct@PAX@@@Z  (Idle)
01:000555F8 ?_unionEq@list@@SAXQAVrTypeLibrary@TypeLibraries@RunTime@VIP@@PA$?predicate_dt$2@core@@SAXXX@Z$PAU?$__packedList_struct@X@@2PAPAU?$__packedList_struct@PAX@@@Z 
01:000556B0 ?_intersection@list@@SAXQAVrTypeLibrary@TypeLibraries@RunTime@VIP@@PAU?$__packedList_struct@X@@1PAPAU?$__packedList_struct@PAX@@@Z  (Idle)
01:00055748 ?_intersectionBy@list@@SAXQAVrTypeLibrary@TypeLibraries@RunTime@VIP@@PA$?_comparator$1@core@@SAXXXPAPAUcompareResult_struct@_builtIn@@@Z$PAU?$__packedList_struct@X@@2PAPAU?$__packedList_struct@PAX@@@Z  (Idle)
01:00055774 ?_intersectionEq@list@@SAXQAVrTypeLibrary@TypeLibraries@RunTime@VIP@@PA$?predicate_dt$2@core@@SAXXX@Z$PAU?$__packedList_struct@X@@2PAPAU?$__packedList_struct@PAX@@@Z 
01:00055824 ?_filter@list@@SAXQAVrTypeLibrary@TypeLibraries@RunTime@VIP@@PAU?$__packedList_struct@X@@PA$?predicate_dt$1@core@@SAXX@Z$PAPAU?$__packedList_struct@PAX@@@Z  (Idle)
01:0005589C ?filter@list@@SAXQAVrTypeLibrary@TypeLibraries@RunTime@VIP@@PAU?$__packedList_struct@X@@PA$?predicate_dt$1@core@@SAXX@Z$PAPAU?$__packedList_struct@PAX@@3@Z  (Idle)
01:00055984 ?_decompose@list@@SAXQAVrTypeLibrary@TypeLibraries@RunTime@VIP@@0PAU?$__packedList_struct@X@@PA$?_function$2@core@@SAXXPAX@Z$PAPAU?$__packedList_struct@PAPAUtuple_struct@3@PAXPAPAU?$__packedList_struct@PAX@@@@@Z  (Idle)
01:00055B40 ?_interleave@list@@SAXQAVrTypeLibrary@TypeLibraries@RunTime@VIP@@PAU?$__packedList_struct@X@@XPAPAU?$__packedList_struct@PAX@@@Z  (Idle)
01:00055BD8 ?groupbyeq/2nf$1@list@@SAXPAUgroupbyeq/2nf$1_struct@1@X@Z 
01:00055C38 ?_groupByEq@list@@SAXQAVrTypeLibrary@TypeLibraries@RunTime@VIP@@PA$?predicate_dt$2@core@@SAXXX@Z$PAU?$__packedList_struct@X@@PAPAU?$__packedList_struct@PAPAU?$__packedList_struct@PAX@@@@@Z  (Idle)
01:00055CF0 ?groupbycmp/2nf$1@list@@SAXPAUgroupbycmp/2nf$1_struct@1@XX@Z 
01:00055D2C ?_groupByCmp@list@@SAXQAVrTypeLibrary@TypeLibraries@RunTime@VIP@@PA$?_comparator$1@core@@SAXXXPAPAUcompareResult_struct@_builtIn@@@Z$PAU?$__packedList_struct@X@@PAPAU?$__packedList_struct@PAPAU?$__packedList_struct@PAX@@@@@Z  (Idle)
01:00055D68 ?_map@list@@SAXQAVrTypeLibrary@TypeLibraries@RunTime@VIP@@0PAU?$__packedList_struct@X@@PA$?_function$2@core@@SAXXPAX@Z$PAPAU?$__packedList_struct@PAX@@@Z 
01:00055DE4 ?_filteredMap@list@@SAXQAVrTypeLibrary@TypeLibraries@RunTime@VIP@@0PAU?$__packedList_struct@X@@PA$?_function_dt$2@core@@SAXXPAX@Z$PAPAU?$__packedList_struct@PAX@@@Z  (Idle)
01:00055E68 ?_tryMap@list@@SAXQAVrTypeLibrary@TypeLibraries@RunTime@VIP@@0PAU?$__packedList_struct@X@@PA$?_function_dt$2@core@@SAXXPAX@Z$PAPAU?$__packedList_struct@PAX@@@Z  (Idle)
01:00055EE4 ?_mapacc@list@@SAXQAVrTypeLibrary@TypeLibraries@RunTime@VIP@@00PAU?$__packedList_struct@X@@XPA$?_function$3@core@@SAXXXPAPAUtuple_struct@1@PAXPAX@Z$PAXPAPAU?$__packedList_struct@PAX@@@Z  (Idle)
01:00055FAC ?_fold@list@@SAXQAVrTypeLibrary@TypeLibraries@RunTime@VIP@@0PAU?$__packedList_struct@X@@PA$?_function$3@core@@SAXXXPAX@Z$XPAX@Z  (Idle)
01:00056040 ?_foldl@list@@SAXQAVrTypeLibrary@TypeLibraries@RunTime@VIP@@0PAU?$__packedList_struct@X@@PA$?_function$3@core@@SAXXXPAX@Z$XPAX@Z 
01:000560A8 ?_foldl1@list@@SAXQAVrTypeLibrary@TypeLibraries@RunTime@VIP@@PAU?$__packedList_struct@X@@PA$?_function$3@core@@SAXXXPAX@Z$PAX@Z  (Idle)
01:00056138 ?_foldl_dt@list@@SAXQAVrTypeLibrary@TypeLibraries@RunTime@VIP@@0PAU?$__packedList_struct@X@@PA$?_function_dt$3@core@@SAXXXPAX@Z$XPAX@Z  (Idle)
01:000561A0 ?_foldr/3nf$1@list@@SAXPAUfoldr/3nf$1_struct@1@XXPAX@Z 
01:000561F0 ?_foldr@list@@SAXQAVrTypeLibrary@TypeLibraries@RunTime@VIP@@0PAU?$__packedList_struct@X@@PA$?_function$3@core@@SAXXXPAX@Z$XPAX@Z  (Idle)
01:00056250 ?_unfold@list@@SAXQAVrTypeLibrary@TypeLibraries@RunTime@VIP@@0XPA$?_function_dt$2@core@@SAXXPAPAUtuple_struct@1@PAXPAX@Z$PAPAU?$__packedList_struct@PAX@@@Z 
01:000562E8 ?forAll@list@@SAXQAVrTypeLibrary@TypeLibraries@RunTime@VIP@@PAU?$__packedList_struct@X@@PA$?predicate$1@core@@SAXX@Z$@Z  (Idle)
01:0005632C ?_exists@list@@SAXQAVrTypeLibrary@TypeLibraries@RunTime@VIP@@PAU?$__packedList_struct@X@@PA$?predicate_dt$1@core@@SAXX@Z$PAX@Z  (Idle)
01:000563B4 ?exists@list@@SAXQAVrTypeLibrary@TypeLibraries@RunTime@VIP@@PAU?$__packedList_struct@X@@PA$?predicate_dt$1@core@@SAXX@Z$@Z  (Idle)
01:000563D8 ?all@list@@SAXQAVrTypeLibrary@TypeLibraries@RunTime@VIP@@PAU?$__packedList_struct@X@@PA$?predicate_dt$1@core@@SAXX@Z$@Z  (Idle)
01:0005642C ?exceptionDifferentLength_explicit@list@@SAXPAUprogramPoint_struct@core@@@Z 
01:00056460 ?exceptionEmpty_explicit@list@@SAXPAUprogramPoint_struct@core@@@Z 
01:00056494 ?_sum/1nf1$1@list@@SAXPANPANPAPAN@Z 
01:000564C8 ?_sum@list@@SAXPAU?$__packedList_struct@PAN@@PAPAN@Z  (Idle)
--- From 'Obj\math.5D7D6037.obj'
01:00056510 ?raise_asinOutOfBounds_explicit@math_exception@@SAXPAUprogramPoint_struct@core@@PAN@Z  (Idle)
01:00056584 ?raise_acoshOutOfBounds_explicit@math_exception@@SAXPAUprogramPoint_struct@core@@PAN@Z  (Idle)
01:000565F8 ?raise_atanhOutOfBounds_explicit@math_exception@@SAXPAUprogramPoint_struct@core@@PAN@Z  (Idle)
01:0005666C ?raise_acotanhOutOfBounds_explicit@math_exception@@SAXPAUprogramPoint_struct@core@@PAN@Z  (Idle)
01:000566E0 ?raise_cotanhInfinityResult_explicit@math_exception@@SAXPAUprogramPoint_struct@core@@PAN@Z  (Idle)
01:00056754 ?isNaN@math@@SAXPAN@Z  (Idle)
01:000567D8 ?_sign@math@@SAXHPAH@Z  (Idle)
01:000567F8 ?check_asin_nearBounds@math@@SAXPAPBUinCircle@1@@Z  (Idle)
01:00056840 ?_getBoundsForValue@math@@SAXPAPBUinCircle@1@PAPAN@Z  (Idle)
01:00056874 ?_arcsin@math@@SAXPAPBUinCircle@1@PAPAN@Z  (Idle)
01:00056A30 ?_sinh@math@@SAXPANPAPAN@Z  (Idle)
01:00056AD0 ?_prepareResultForBigValue@math@@SAXPANPAAAUuReal@1@@Z  (Idle)
01:00056CAC ?_arcsinh@math@@SAXPANPAPAN@Z  (Idle)
01:00056D04 ?_arccos@math@@SAXPAPBUinCircle@1@PAPAN@Z  (Idle)
01:00056D4C ?_cosh@math@@SAXPANPAAAUuReal@1@@Z  (Idle)
01:00056E1C ?_prepareResultForValue@math@@SAXPAPBUuReal@1@PAAAU21@@Z  (Idle)
01:00056FA0 ?_arccosh@math@@SAXPAPBUuReal@1@PAPAN@Z  (Idle)
01:0005701C ?_get_tanhBoundsForValue@math@@SAXPANPAAAUinCircle@1@@Z  (Idle)
01:00057050 ?_tanh@math@@SAXPANPAAAUinCircle@1@@Z  (Idle)
01:00057120 ?_arctanh@math@@SAXPAPBUinCircle@1@PAPAN@Z  (Idle)
01:00057218 ?_cotanh@math@@SAXPANPAPAN@Z  (Idle)
01:000572E0 ?_arccotanh@math@@SAXPANPAPAN@Z  (Idle)
01:000573D8 ?_sqr@math@@SAXPANPAAAUuReal@1@@Z 
01:00057414 ?_round@math@@SAXPANPAH@Z 
01:00057458 ?_roundToUnsigned@math@@SAXPANPAI@Z 
01:0005749C ?_roundToInteger64@math@@SAXPANPAPA_J@Z 
01:000574F8 ?_roundToUnsigned64@math@@SAXPANPAPA_K@Z  (Idle)
01:00057554 ?_trunc@math@@SAXPANPAH@Z 
01:00057598 ?_fraction@math@@SAXPANPAPAN@Z 
01:000575EC ?_ceil@math@@SAXPANPAH@Z 
01:0005761C ?_ceilToReal@math@@SAXPANPAPAN@Z 
01:000576D0 ?_floor@math@@SAXPANPAH@Z 
01:00057724 ?_floorToReal@math@@SAXPANPAPAN@Z  (Idle)
01:00057790 ?_max@math@@SAXHHPAH@Z 
01:000577B0 ?_max@math@@SAXHHHPAH@Z  (Idle)
01:000577D8 ?_min@math@@SAXHHPAH@Z 
01:000577F8 ?_min@math@@SAXHHHPAH@Z  (Idle)
01:00057820 ?_restrict@math@@SAXHHHPAH@Z  (Idle)
01:00057854 ?divides_dt@math@@SAXHH@Z  (Idle)
01:00057890 ?_sign@math@@SAXPANPAH@Z  (Idle)
01:000578C0 ?_max@math@@SAXIIPAI@Z 
01:000578E0 ?_max@math@@SAXPANPANPAPAN@Z  (Idle)
01:00057904 ?_max@math@@SAXMMPAM@Z  (Idle)
01:0005797C ?_max@math@@SAXPA_J0PAPA_J@Z  (Idle)
01:000579B0 ?_max@math@@SAXPBUintegerNative@_builtIn@@0AAU23@@Z  (Idle)
01:000579D0 ?_max@math@@SAXPA_K0PAPA_K@Z  (Idle)
01:00057A04 ?_max@math@@SAXPBUunsignedNative@_builtIn@@0AAU23@@Z  (Idle)
01:00057A24 ?_max@math@@SAXIIIPAI@Z  (Idle)
01:00057A54 ?_max@math@@SAXPANPANPANPAPAN@Z  (Idle)
01:00057A84 ?_max@math@@SAXMMMPAM@Z  (Idle)
01:00057ACC ?_min@math@@SAXIIPAI@Z 
01:00057AEC ?_min@math@@SAXPANPANPAPAN@Z  (Idle)
01:00057B10 ?_min@math@@SAXMMPAM@Z  (Idle)
01:00057B88 ?_min@math@@SAXPA_J0PAPA_J@Z  (Idle)
01:00057BBC ?_min@math@@SAXPBUintegerNative@_builtIn@@0AAU23@@Z  (Idle)
01:00057BDC ?_min@math@@SAXPA_K0PAPA_K@Z  (Idle)
01:00057C10 ?_min@math@@SAXPBUunsignedNative@_builtIn@@0AAU23@@Z  (Idle)
01:00057C30 ?_min@math@@SAXIIIPAI@Z  (Idle)
01:00057C60 ?_min@math@@SAXPANPANPANPAPAN@Z  (Idle)
01:00057C90 ?_min@math@@SAXMMMPAM@Z  (Idle)
01:00057CD8 ?_restrict@math@@SAXIIIPAI@Z  (Idle)
01:00057D0C ?_restrict@math@@SAXPANPANPANPAPAN@Z  (Idle)
01:00057D40 ?divides_dt@math@@SAXII@Z  (Idle)
--- From 'Obj\memory.568C55F8.obj'
01:00057D60 ?_alloc_kind@memory@@SAXQAVrTypeLibrary@TypeLibraries@RunTime@VIP@@PAUmemoryKind_struct@1@PAX@Z  (Idle)
01:00057D88 ?_alloc_kind@memory@@SAXQAVrTypeLibrary@TypeLibraries@RunTime@VIP@@PAUmemoryKind_struct@1@PBUcontext@1@PAX@Z  (Idle)
01:00057DB0 ?_alloc@memory@@SAXQAVrTypeLibrary@TypeLibraries@RunTime@VIP@@PAX@Z 
01:00057DD4 ?_alloc@memory@@SAXQAVrTypeLibrary@TypeLibraries@RunTime@VIP@@PBUcontext@1@PAX@Z 
01:00057DFC ?_alloc_atomic@memory@@SAXQAVrTypeLibrary@TypeLibraries@RunTime@VIP@@PAX@Z 
01:00057E20 ?_alloc_atomic@memory@@SAXQAVrTypeLibrary@TypeLibraries@RunTime@VIP@@PBUcontext@1@PAX@Z 
01:00057E48 ?_alloc_uncollectable@memory@@SAXQAVrTypeLibrary@TypeLibraries@RunTime@VIP@@PAX@Z  (Idle)
01:00057E6C ?_alloc_uncollectable@memory@@SAXQAVrTypeLibrary@TypeLibraries@RunTime@VIP@@PBUcontext@1@PAX@Z  (Idle)
01:00057E94 ?_alloc_atomicWithSize@memory@@SAXQAVrTypeLibrary@TypeLibraries@RunTime@VIP@@PAX@Z 
01:00057ECC ?_alloc_atomicWithSize@memory@@SAXQAVrTypeLibrary@TypeLibraries@RunTime@VIP@@PBUcontext@1@PAX@Z 
01:00057F08 ?_alloc_WithSize@memory@@SAXQAVrTypeLibrary@TypeLibraries@RunTime@VIP@@PAX@Z  (Idle)
01:00057F40 ?_alloc_WithSize@memory@@SAXQAVrTypeLibrary@TypeLibraries@RunTime@VIP@@PBUcontext@1@PAX@Z  (Idle)
01:00057F7C ?_alloc_kind_array@memory@@SAXQAVrTypeLibrary@TypeLibraries@RunTime@VIP@@PAUmemoryKind_struct@1@PBUpositive@core@@PAX@Z  (Idle)
01:00057FA4 ?_alloc_kind_array@memory@@SAXQAVrTypeLibrary@TypeLibraries@RunTime@VIP@@PAUmemoryKind_struct@1@PBUpositive@core@@PBUcontext@1@PAX@Z  (Idle)
01:00057FCC ?_alloc_array@memory@@SAXQAVrTypeLibrary@TypeLibraries@RunTime@VIP@@PBUpositive@core@@PAX@Z  (Idle)
01:00057FF4 ?_alloc_array@memory@@SAXQAVrTypeLibrary@TypeLibraries@RunTime@VIP@@PBUpositive@core@@PBUcontext@1@PAX@Z  (Idle)
01:0005801C ?_alloc_atomic_array@memory@@SAXQAVrTypeLibrary@TypeLibraries@RunTime@VIP@@PBUpositive@core@@PAX@Z  (Idle)
01:00058044 ?_alloc_atomic_array@memory@@SAXQAVrTypeLibrary@TypeLibraries@RunTime@VIP@@PBUpositive@core@@PBUcontext@1@PAX@Z  (Idle)
01:0005806C ?_alloc_uncollectable_array@memory@@SAXQAVrTypeLibrary@TypeLibraries@RunTime@VIP@@PBUpositive@core@@PAX@Z  (Idle)
01:00058094 ?_alloc_uncollectable_array@memory@@SAXQAVrTypeLibrary@TypeLibraries@RunTime@VIP@@PBUpositive@core@@PBUcontext@1@PAX@Z  (Idle)
01:000580BC ?_doAllocate@memory@@SAXQAVrTypeLibrary@TypeLibraries@RunTime@VIP@@PAUmemoryKind_struct@1@PBUpositive@core@@PBUcontext@1@AAUbyteCount@5@PAX@Z 
01:00058144 ?_doAllocate2@memory@@SAXPAUmemoryKind_struct@1@PBUbyteCount@core@@PAPAX@Z 
01:00058184 uncheckedFromPointer@memory@pfc 
01:00058194 ?copyTo@memory@@SAXQAVrTypeLibrary@TypeLibraries@RunTime@VIP@@XX@Z  (Idle)
01:000581B8 ?_copyTo@memory@@SAXQAVrTypeLibrary@TypeLibraries@RunTime@VIP@@XXPAX@Z 
01:000581EC ?_copyTo_pointer@memory@@SAXQAVrTypeLibrary@TypeLibraries@RunTime@VIP@@PAXXPAPAX@Z 
01:00058218 ?mkArray@memory@@SAXQAVrTypeLibrary@TypeLibraries@RunTime@VIP@@PAU?$__packedList_struct@X@@PAPAXAAUpositive@core@@AAUbyteCount@3@@Z  (Idle)
01:00058254 ?mkArray@memory@@SAXQAVrTypeLibrary@TypeLibraries@RunTime@VIP@@PAU?$__packedList_struct@X@@PAPAXAAUpositive@core@@AAUbyteCount@3@PBUcontext@1@@Z  (Idle)
01:00058298 ?mkArray_atomic@memory@@SAXQAVrTypeLibrary@TypeLibraries@RunTime@VIP@@PAU?$__packedList_struct@X@@PAPAXAAUpositive@core@@AAUbyteCount@3@@Z  (Idle)
01:000582D4 ?mkArray_atomic@memory@@SAXQAVrTypeLibrary@TypeLibraries@RunTime@VIP@@PAU?$__packedList_struct@X@@PAPAXAAUpositive@core@@AAUbyteCount@3@PBUcontext@1@@Z  (Idle)
01:00058318 ?mkArray_kind@memory@@SAXQAVrTypeLibrary@TypeLibraries@RunTime@VIP@@PAUmemoryKind_struct@1@PAU?$__packedList_struct@X@@PAPAXAAUpositive@core@@AAUbyteCount@5@@Z 
01:00058330 ?mkArray_kind@memory@@SAXQAVrTypeLibrary@TypeLibraries@RunTime@VIP@@PAUmemoryKind_struct@1@PAU?$__packedList_struct@X@@PAPAXAAUpositive@core@@AAUbyteCount@5@PBUcontext@1@@Z 
01:00058424 ?fillArray_list@memory@@SAXQAVrTypeLibrary@TypeLibraries@RunTime@VIP@@PAXPAU?$__packedList_struct@X@@@Z 
01:00058470 ?_mkList_kind@memory@@SAXQAVrTypeLibrary@TypeLibraries@RunTime@VIP@@PAUmemoryKind_struct@1@XPBUpositive@core@@PAPAU?$__packedList_struct@PAX@@@Z  (Idle)
01:0005852C ?_append@memory@@SAXPAXPAXPBUbyteCount@core@@PAPAX@Z 
01:00058554 ?isReadable@memory@@SAXPAX@Z 
01:0005856C ?isReadable@memory@@SAXPAXPBUbyteCount@core@@@Z 
01:0005858C ?isWritable@memory@@SAXPAX@Z  (Idle)
01:000585A4 ?isWritable@memory@@SAXPAXPBUbyteCount@core@@@Z 
01:000585C4 ?_allocHeap@memory@@SAXPBUbyteCount@core@@PAPAX@Z  (Idle)
01:000585E0 ?_allocHeap@memory@@SAXPBUbyteCount@core@@PAUboolean_struct@_builtIn@@PAPAX@Z 
01:00058608 ?_allocHeapProfile@memory@@SAXPBUbyteCount@core@@PBUcontext@1@PAPAX@Z 
01:00058634 ?_allocHeapProfile@memory@@SAXPBUbyteCount@core@@PBUcontext@1@PAUboolean_struct@_builtIn@@PAPAX@Z 
01:0005865C ?_allocAtomicHeap@memory@@SAXPBUbyteCount@core@@PAPAX@Z 
01:00058678 ?_allocAtomicHeapProfile@memory@@SAXPBUbyteCount@core@@PBUcontext@1@PAPAX@Z 
01:000586A4 ?_allocUncollectableHeap@memory@@SAXPBUbyteCount@core@@PAPAX@Z  (Idle)
01:000586C0 ?_allocAtomicHeap_array@memory@@SAXQAVrTypeLibrary@TypeLibraries@RunTime@VIP@@PBUpositive@core@@PAX@Z  (Idle)
01:0005872C ?_allocUncollectableHeap_array@memory@@SAXQAVrTypeLibrary@TypeLibraries@RunTime@VIP@@PBUpositive@core@@PAX@Z  (Idle)
01:00058798 ?sameType@memory@@SAXQAVrTypeLibrary@TypeLibraries@RunTime@VIP@@XX@Z 
01:000587A0 ?_allocUncollectableHeapProfile@memory@@SAXPBUbyteCount@core@@PBUcontext@1@PAPAX@Z 
01:000587CC ?_allocString@memory@@SAXPBUcharCount@core@@PAPB_W@Z 
01:000587E4 ?_allocStringProfile@memory@@SAXPBUcharCount@core@@PBUcontext@1@PAPB_W@Z 
01:00058824 ?_allocStringBuffer@memory@@SAXPBUcharCount@core@@PAPB_W@Z 
01:00058840 ?_allocStringBufferProfile@memory@@SAXPBUcharCount@core@@PBUcontext@1@PAPB_W@Z 
01:00058870 ?releaseHeap@memory@@SAXQAVrTypeLibrary@TypeLibraries@RunTime@VIP@@X@Z 
01:00058880 ?listToArray@memory@@SAXQAVrTypeLibrary@TypeLibraries@RunTime@VIP@@PAU?$__packedList_struct@X@@PBUbyteCount@core@@PA$?predicate$2@3@SAXPAXX@Z$PAPAXAAUpositive@3@@Z  (Idle)
01:000588E8 ?listToArray_nonatomic@memory@@SAXQAVrTypeLibrary@TypeLibraries@RunTime@VIP@@PAU?$__packedList_struct@X@@PBUbyteCount@core@@PA$?predicate$2@3@SAXPAXX@Z$PAPAXAAUpositive@3@@Z 
01:00058950 ?fillArray@memory@@SAXQAVrTypeLibrary@TypeLibraries@RunTime@VIP@@PAXPAU?$__packedList_struct@X@@PBUbyteCount@core@@PA$?predicate$2@3@SAXPAXX@Z$@Z 
01:000589C8 ?_pointerAdd@memory@@SAXQAVrTypeLibrary@TypeLibraries@RunTime@VIP@@XPBUbyteOffset@core@@PAPAX@Z 
01:000589DC ?_getOffset@memory@@SAXQAVrTypeLibrary@TypeLibraries@RunTime@VIP@@XXAAUbyteOffset@core@@@Z 
01:000589F4 ?isNull@memory@@SAXQAVrTypeLibrary@TypeLibraries@RunTime@VIP@@X@Z 
01:00058A08 getp@memory@pfc 
01:00058A1C get1@memory@pfc 
01:00058A30 get2@memory@pfc 
01:00058A44 get4@memory@pfc 
01:00058A58 get8@memory@pfc 
01:00058A84 getAp@memory@pfc 
01:00058ABC getA1@memory@pfc 
01:00058AF4 getA2@memory@pfc  (Idle)
01:00058B30 getA4@memory@pfc  (Idle)
01:00058B68 getA8@memory@pfc  (Idle)
01:00058BB8 set4r@memory@pfc 
01:00058BE8 set8@memory@pfc 
01:00058C24 setAp@memory@pfc  (Idle)
01:00058C7C setA1@memory@pfc  (Idle)
01:00058CD4 setA2@memory@pfc  (Idle)
01:00058D30 setA4@memory@pfc 
01:00058D88 setA8@memory@pfc  (Idle)
01:00058DEC mkp@memory@pfc  (Idle)
01:00058E10 mk1@memory@pfc  (Idle)
01:00058E34 mk2@memory@pfc 
01:00058E5C mk4@memory@pfc 
01:00058E80 mk8@memory@pfc  (Idle)
01:00058EB0 ?_get@memory@@SAXQAVrTypeLibrary@TypeLibraries@RunTime@VIP@@PAUpointerTo_struct@1@XPAX@Z  (Idle)
01:00058ED8 ?set@memory@@SAXQAVrTypeLibrary@TypeLibraries@RunTime@VIP@@PAUpointerTo_struct@1@XX@Z  (Idle)
01:00058EEC ?_mkPointerTo@memory@@SAXQAVrTypeLibrary@TypeLibraries@RunTime@VIP@@XPAPAUpointerTo_struct@1@PAX@Z  (Idle)
01:00058F10 ?_mkArray_kind@memory@@SAXQAVrTypeLibrary@TypeLibraries@RunTime@VIP@@PAUmemoryKind_struct@1@PAU?$__packedList_struct@X@@PAPAUtuple_struct@core@@PAXAAUpositive@5@@Z  (Idle)
01:00058F6C ?_bitOr@bit@@SAXIIIPAI@Z  (Idle)
01:00058F94 ?_bitOr@bit@@SAXIIIIPAI@Z  (Idle)
01:00058FCC ?_bitOr@bit@@SAXIIIIIPAI@Z  (Idle)
01:00059010 ?_bitOrList@bit@@SAXPAU?$__packedList_struct@I@@PAI@Z  (Idle)
01:0005902C ?_bitOrList_Tail@bit@@SAXPAU?$__packedList_struct@I@@IPAI@Z 
01:00059074 ?isSet@bit@@SAXII@Z 
01:0005909C ?_clear@bit@@SAXIIPAI@Z  (Idle)
01:000590C4 ?_bit2boolean@bit@@SAXIIPAPAUboolean_struct@_builtIn@@@Z  (Idle)
01:00059100 ?_getLow4of8@bit@@SAXPBUunsigned8@core@@AAUunsigned4@1@@Z  (Idle)
01:00059124 ?_setLow4of8@bit@@SAXPBUunsigned8@core@@PBUunsigned4@1@AAU23@@Z  (Idle)
01:00059174 ?_getHigh4of8@bit@@SAXPBUunsigned8@core@@AAUunsigned4@1@@Z  (Idle)
01:000591AC ?_setHigh4of8@bit@@SAXPBUunsigned8@core@@PBUunsigned4@1@AAU23@@Z  (Idle)
01:00059210 ?_swap4of8@bit@@SAXPBUunsigned8@core@@AAU23@@Z  (Idle)
01:00059270 ?_getLow8of16@bit@@SAXPBUunsigned16@core@@AAUunsigned8@3@@Z  (Idle)
01:00059298 ?_setLow8of16@bit@@SAXPBUunsigned16@core@@PBUunsigned8@3@AAU23@@Z  (Idle)
01:000592D8 ?_getHigh8of16@bit@@SAXPBUunsigned16@core@@AAUunsigned8@3@@Z  (Idle)
01:00059310 ?_setHigh8of16@bit@@SAXPBUunsigned16@core@@PBUunsigned8@3@AAU23@@Z  (Idle)
01:00059360 ?_swap8of16@bit@@SAXPBUunsigned16@core@@AAU23@@Z  (Idle)
01:000593C4 ?_getLow16of32@bit@@SAXIAAUunsigned16@core@@@Z 
01:000593E4 ?_setLow16of32@bit@@SAXIPBUunsigned16@core@@PAI@Z 
01:0005941C ?_getHigh16of32@bit@@SAXIAAUunsigned16@core@@@Z 
01:0005944C ?_setHigh16of32@bit@@SAXIPBUunsigned16@core@@PAI@Z 
01:0005949C ?_swap16of32@bit@@SAXIPAI@Z 
01:000594FC ?_toBigEndian@bit@@SAXIPAI@Z  (Idle)
01:000595B0 ?_bitSplit@bit@@SAXIPAPAU?$__packedList_struct@PAI@@@Z  (Idle)
01:00059618 ?getUnsigned32bytes@bit@@SAXIAAUunsigned16@core@@1@Z  (Idle)
01:00059644 ?getInteger32bytes@bit@@SAXIAAUunsigned16@core@@AAUinteger16@3@@Z  (Idle)
01:00059684 ?getUnsigned64bytes@bit@@SAXPA_KPAIPAI@Z 
01:000596C4 ?_getLow32of64@bit@@SAXPA_KPAI@Z  (Idle)
01:000596D8 ?getInteger64bytes@bit@@SAXPA_JPAIPAH@Z  (Idle)
01:00059718 ?_mkUnsigned32@bit@@SAXPBUunsigned16@core@@0PAI@Z  (Idle)
01:00059754 ?_mkInteger32@bit@@SAXPBUunsigned16@core@@PBUinteger16@3@PAH@Z  (Idle)
01:00059790 ?_mkUnsigned64@bit@@SAXIIPAPA_K@Z 
01:000597F8 ?_mkInteger64@bit@@SAXIHPAPA_J@Z  (Idle)
01:00059848 ?_getLow16@bit@@SAXPBUunsignedNative@_builtIn@@AAUunsigned16@core@@@Z  (Idle)
01:00059870 ?_bitOr@bit@@SAXPA_K00PAPA_K@Z  (Idle)
01:000598CC ?_bitOr@bit@@SAXPBUunsignedNative@_builtIn@@00AAU23@@Z  (Idle)
01:000598F4 ?_bitOr@bit@@SAXPA_K000PAPA_K@Z  (Idle)
01:0005996C ?_bitOr@bit@@SAXPBUunsignedNative@_builtIn@@000AAU23@@Z  (Idle)
01:000599A4 ?_bitOr@bit@@SAXPA_K0000PAPA_K@Z  (Idle)
01:00059A38 ?_bitOr@bit@@SAXPBUunsignedNative@_builtIn@@0000AAU23@@Z  (Idle)
01:00059A7C ?isSet@bit@@SAXPA_K0@Z  (Idle)
01:00059AC4 ?isSet@bit@@SAXPBUunsignedNative@_builtIn@@0@Z  (Idle)
01:00059AEC ?_clear@bit@@SAXPA_K0PAPA_K@Z  (Idle)
01:00059B40 ?_clear@bit@@SAXPBUunsignedNative@_builtIn@@0AAU23@@Z  (Idle)
01:00059B68 ?_getLow32of64@bit@@SAXPA_JPAI@Z  (Idle)
--- From 'Obj\segmented.E9C86B20.obj'
01:00059B80 ?_presenter_segmented_utf16@segmented@@SAXPAUsegmented_utf16_struct@1@PAPAUpresentation_struct@presenter@@@Z  (Idle)
01:00059BAC ?_presenter_segmented@1@SAXQAVrTypeLibrary@TypeLibraries@RunTime@VIP@@PAUsegmented_struct@1@XPAPAUpresentation_struct@presenter@@@Z 
01:00059E20 ?_mkfp_sub/2nf$1@segmented@@SAXPAUmkfp_sub/2nf$1_struct@1@PAPAUpresentation_struct@presenter@@@Z 
01:00059E50 ?_mkFP_sub@segmented@@SAXQAVrTypeLibrary@TypeLibraries@RunTime@VIP@@PB_WPAUsegmented_struct@1@XPAPAUfieldPresentation_struct@presenter@@@Z 
01:00059EC0 ?_getByteSize@segmented@@SAXQAVrTypeLibrary@TypeLibraries@RunTime@VIP@@PAUsegmented_struct@1@XAAUbyteCount@core@@@Z 
01:00059F20 ?_wrap$presenter_segmented_utf16@segmented@@SGPAUpresentation_struct@presenter@@QAVrTypeLibrary@TypeLibraries@RunTime@VIP@@X@Z 
001000:058F50 0001E0   .text$mn::CODE::<no group> F=4
--- From '..\..\..\_intermediate\sourceVS\vipInit\Win32\ReleasePE\VIPMain.obj'
01:00059F50 _VIPStartUp@0  (Idle)
--- From '..\..\..\_intermediate\sourceVS\vipInit\Win32\ReleasePE\VIPDll.obj'
01:00059FC0 ?VIPDllGetHandleModule@RunTime@VIP@@YAPAXXZ 
01:00059FD0 ?tryCallHook@VIPDllHook@RunTime@VIP@@QBEHPAXK0@Z 
01:0005A010 _VIPDllMain@12  (Idle)
01:0005A0F0 _VIPSetDllHook@4  (Idle)
--- From '..\..\..\_intermediate\sourceVS\vipInit\Win32\ReleasePE\VIPPE.obj'
01:0005A110 ?VIP_PE_Dialog@@YAXXZ 
Frame 05B000   Size 0007B0.  Name=<  VIPini>, 	Chars=40000040h. [IR]
05B000:000000 000004   VIPini$A::VIPini$A::VIPini F=4
--- From 'Obj\main.789E136F.obj'
02:0005B000 _VIPStartOfClassDescriptors 
05B000:000004 00032C   VIPini$C::VIPini$C::VIPini F=4
05B000:000330 000008   VIPini$E::VIPini$E::VIPini F=4
Frame 05C000   Size 000010.  Name=<  VIPsym>, 	Chars=40000040h. [IR]
05C000:000000 000004   VIPsym$A::VIPsym$A::VIPsym F=4
--- From 'Obj\main.789E136F.obj'
03:0005C000 _VIPStartOfSymbols 
05C000:000004 000000   VIPsym$C::VIPsym$C::VIPsym F=4
05C000:000004 000008   VIPsym$E::VIPsym$E::VIPsym F=4
Frame 05D000   Size 001080.  Name=<  VIPtpd>, 	Chars=40000040h. [IR]
05D000:000000 000004   VIPtpd$A::VIPtpd$A::VIPtpd F=4
--- From 'Obj\main.789E136F.obj'
04:0005D000 _VIPStartOfTypeDescriptors 
05D000:000004 00106C   VIPtpd$C::VIPtpd$C::VIPtpd F=4
05D000:001070 000008   VIPtpd$E::VIPtpd$E::VIPtpd F=4
Frame 05F000   Size 0010B0.  Name=<  VIPtpl>, 	Chars=40000040h. [IR]
05F000:000000 000004   VIPtpl$A::VIPtpl$A::VIPtpl F=4
--- From 'Obj\main.789E136F.obj'
05:0005F000 _VIPStartOfTypeLibraries 
05F000:000004 0010A0   VIPtpl$C::VIPtpl$C::VIPtpl F=4
05F000:0010A4 000008   VIPtpl$E::VIPtpl$E::VIPtpl F=4
Frame 061000   Size 042EE0.  Name=<  .rdata>, 	Chars=40000040h. [IR]
061000:000000 011A90   .rdata::.rdata::.rdata F=4
--- From '..\..\..\_intermediate\sourceVS\vipInit\Win32\ReleasePE\VIPDll.obj'
06:0006DD14 _VIPStartOfDictionary 
--- From 'Obj\core.5D9B9483.obj'
06:000700DA v$$_mkPlatformIndependant_unsignedNative@core@@SAXPBU2_builtIn@@PAPAUvalue_struct@1@@Z$fmt$10000$$type_expression$class$_builtIn::string$  (Idle)
--- From 'Obj\exception.B6F320E8.obj'
06:00070794 v$$_getTrapInformationObject@exception@@SAXPBUtraceId@1@PAPAVtrapInformationObject@@@@Z$externalexception$1$$type_expression$class$core::exception$  (Idle)
--- From '..\..\..\_intermediate\sourceVS\vipInit\Win32\ReleasePE\VIPPE.obj'
06:000729E0 ??_C@_0L@DLNDOIBH@Attention?$CB?$AA@ 
06:000729F0 ??_C@_0JO@IKLJBBEK@This?5application?5is?5created?5with@ 
061000:011A90 0000D0   VIPBrow::VIPBrow::.rdata F=4
--- From 'Obj\systeminformation_api.809129C1.obj'
06:00072A90 v$$constant$$0000  (Idle)
--- From 'Obj\binary.248EF86D.obj'
06:00072AA0 v$$constant$$00000000  (Idle)
--- From 'Obj\gui_api.9FE53D0D.obj'
06:00072AB0 v$$constant$$0000002C  (Idle)
06:00072AC0 v$$constant$$00000030  (Idle)
06:00072AD0 v$$constant$$000003E8  (Idle)
06:00072AE0 v$$constant$$0000001C  (Idle)
--- From 'Obj\systeminformation_api.809129C1.obj'
06:00072AF0 v$$constant$$0000011C  (Idle)
06:00072B00 v$$constant$$00000114  (Idle)
--- From 'Obj\console.E8EB4F3C.obj'
06:00072B10 v$$constant$$FFFFFFFF  (Idle)
--- From 'Obj\memory.568C55F8.obj'
06:00072B20 v$$constant$$00000004  (Idle)
06:00072B30 v$$constant$$00000001  (Idle)
06:00072B40 v$$constant$$00000002  (Idle)
06:00072B50 v$$constant$$00000008  (Idle)
061000:011B60 006980   VIPConst::VIPConst::.rdata F=4
--- From 'Obj\namedvalue.6D52B2A6.obj'
06:00072BD8 $nameNotInMap$namedValue_class$constant$ 
--- From 'Obj\registry.917E8C91.obj'
06:00072C7C $wrongValue$registry_exception_class$constant$ 
06:00072CEC $noPath$registry_exception_class$constant$ 
06:00072D7C $cannotCreateKey$registry_exception_class$constant$ 
--- From 'Obj\stream.8B55AAA7.obj'
06:00072DE8 $endOfStream$stream_exception_class$constant$ 
06:00072EB4 $notSupportedProperty$stream_exception_class$constant$ 
06:00072F54 $noCRLFconversion$stream_exception_class$constant$ 
06:00072FF4 $wrongMode$stream_exception_class$constant$ 
06:00073084 $noStream$stream_exception_class$constant$ 
--- From 'Obj\string.19AABD3B.obj'
06:00073118 $emptyString$string_exception_class$constant$ 
06:000731DC $outOfBoundaries$string_exception_class$constant$ 
06:00073280 $oddOffset$string_exception_class$constant$ 
--- From 'Obj\time.6AFD2988.obj'
06:0007337C $wrongStringFormat$time_exception_class$constant$ 
06:0007343C $cannotGetTimeZoneInformation$time_exception_class$constant$ 
--- From 'Obj\filesystem_api.C5B8AF1A.obj'
06:000734E0 $cannotCreate$fileSystem_api_class$constant$ 
06:00073560 $cannotGetFileSize$fileSystem_api_class$constant$ 
06:000735F4 $cannotSetFilePointer$fileSystem_api_class$constant$ 
--- From 'Obj\gui_api.9FE53D0D.obj'
06:00073BD8 $wm_MsgCodeList$gui_native_class$constant$ 
06:000757D0 $wm_MsgNameList$gui_native_class$constant$ 
--- From 'Obj\time_api.32F5932A.obj'
06:00075894 $cannotGetDateTimeFormat$time_api_class$constant$ 
06:00075918 $cannotGetLocaleInfo$time_api_class$constant$ 
--- From 'Obj\binary.248EF86D.obj'
06:000759C0 $invalidCompressionFormat$binary_exception_class$constant$ 
06:00075A48 $internalDecodeError$binary_exception_class$constant$ 
06:00075AE0 $wrongBinaryFormat$binary_exception_class$constant$ 
--- From 'Obj\arraym_inline.F665267A.obj'
06:00075B08 $variableLengthTypes$pfc\reflection\reflection_class$constant$ 
--- From 'Obj\exception.B6F320E8.obj'
06:00075B78 $systemException$runtime_exception_class$constant$ 
06:00075BFC $realOverflow$runtime_exception_class$constant$ 
06:00075C90 $realDivideByZero$runtime_exception_class$constant$ 
06:00075D14 $arithmeticOverflow$runtime_exception_class$constant$ 
06:00075DE0 $mismatchVersion$runtime_exception_class$constant$ 
06:00075E58 $osError$runtime_exception_class$constant$ 
06:00075EE8 $cannotLoadLibrary$runtime_exception_class$constant$ 
06:00075FB0 $cannotGetProcAddress$runtime_exception_class$constant$ 
06:00076038 $gcAbend$runtime_exception_class$constant$ 
06:000760C4 $gcError$runtime_exception_class$constant$ 
06:0007612C $heapOverflow$runtime_exception_class$constant$ 
06:000761B8 $invalidTerm$runtime_exception_class$constant$ 
06:00076280 $noRangeNumber$runtime_exception_class$constant$ 
06:00076338 $fromString$runtime_exception_class$constant$ 
06:000763F8 $fromBinary$runtime_exception_class$constant$ 
06:0007647C $negZero$runtime_exception_class$constant$ 
06:00076524 $objectConversion$runtime_exception_class$constant$ 
06:000765AC $cyclicInheritance$runtime_exception_class$constant$ 
06:0007664C $functorNotFound$runtime_exception_class$constant$ 
06:00076708 $determFact$runtime_exception_class$constant$ 
06:000767A8 $invalidFormat$runtime_exception_class$constant$ 
06:00076848 $unsupportedFormat$runtime_exception_class$constant$ 
06:00076920 $wrongNumberArgumentForFormat$runtime_exception_class$constant$ 
06:000769DC $integerExpected$runtime_exception_class$constant$ 
06:00076A70 $parserUnexpectedEOS$runtime_exception_class$constant$ 
06:00076AF0 $unGetChar$runtime_exception_class$constant$ 
06:00076B80 $vip6runInternalError$runtime_exception_class$constant$ 
06:00076C4C $invalidTermRepresentation$runtime_exception_class$constant$ 
06:00076CCC $consult_WrongComment$runtime_exception_class$constant$ 
06:00076D6C $consult_WrongUsageOfKeyword$runtime_exception_class$constant$ 
06:00076E24 $retractSingleFact$runtime_exception_class$constant$ 
06:00076ECC $expectedChar$runtime_exception_class$constant$ 
06:00076F54 $freeVariable$runtime_exception_class$constant$ 
06:00076FE4 $singleFactHasNoValue$runtime_exception_class$constant$ 
06:00077094 $valueCannotBeConvertedToType$runtime_exception_class$constant$ 
06:00077114 $mustUnifyFailed$runtime_exception_class$constant$ 
06:000771BC $accessToNotInitializedFact$runtime_exception_class$constant$ 
06:00077248 $chainDB_DBAlreadyOpen$runtime_exception_class$constant$ 
06:000772EC $chainDB_InvalidDBFilename$runtime_exception_class$constant$ 
06:00077370 $chainDB_NotOpenDB$runtime_exception_class$constant$ 
06:000773F8 $chainDB_ExistsBTree$runtime_exception_class$constant$ 
06:000774C0 $chainDB_ExistsDBInPlace$runtime_exception_class$constant$ 
06:00077550 $chainDB_InvalidOrderValue$runtime_exception_class$constant$ 
06:000775E8 $chainDB_InvalidKeyValue$runtime_exception_class$constant$ 
06:00077694 $chainDB_UnableOpenDB$runtime_exception_class$constant$ 
06:00077718 $chainDB_InvalidDB$runtime_exception_class$constant$ 
06:000777A8 $chainDB_UnableDeleteDB$runtime_exception_class$constant$ 
06:00077834 $chainDB_InvalidRefVal$runtime_exception_class$constant$ 
06:000778B4 $chainDB_AbsentChain$runtime_exception_class$constant$ 
06:00077930 $chainDB_AbsentBTree$runtime_exception_class$constant$ 
06:000779C4 $chainDB_InvalidBTreeSel$runtime_exception_class$constant$ 
06:00077A5C $chainDB_DeleteOpenBTree$runtime_exception_class$constant$ 
06:00077B0C $chainDB_NotFoundKeyAndRef$runtime_exception_class$constant$ 
06:00077BA8 $chainDB_IncorrectDBVersion$runtime_exception_class$constant$ 
06:00077C48 $chainDB_NotInTransaction$runtime_exception_class$constant$ 
06:00077D28 $chainDB_WriteROTransaction$runtime_exception_class$constant$ 
06:00077DE0 $chainDB_AlreadyOpenTransaction$runtime_exception_class$constant$ 
06:00077EB0 $chainDB_UpdatingROTransaction$runtime_exception_class$constant$ 
06:00077F58 $chainDB_TimeOutTransaction$runtime_exception_class$constant$ 
06:0007800C $chainDB_DuplicateKey$runtime_exception_class$constant$ 
06:000780F0 $chainDB_WrongChainToDeleteTerm$runtime_exception_class$constant$ 
06:000781C8 $chainDB_ReadWrongNumberBytes$runtime_exception_class$constant$ 
06:000782A4 $chainDB_WriteWrongNumberBytes$runtime_exception_class$constant$ 
06:00078334 $chainDB_OSNativeError$runtime_exception_class$constant$ 
06:000783AC $binary_invalidBlock$runtime_exception_class$constant$ 
06:0007843C $binary_invalidFormat$runtime_exception_class$constant$ 
06:000784EC $binary_DecodeInternalError$runtime_exception_class$constant$ 
06:000785A4 $odbc_unidentifiedError$runtime_exception_class$constant$ 
06:000786A0 $sql_invalidHandle$runtime_exception_class$constant$ 
06:00078778 $sql_stillExecuting$runtime_exception_class$constant$ 
06:00078810 $sql_needData$runtime_exception_class$constant$ 
06:00078880 $sql_noDataFound$runtime_exception_class$constant$ 
06:00078930 $sql_error$runtime_exception_class$constant$ 
06:000789C0 $odbc_error$runtime_exception_class$constant$ 
06:00078A5C $externalError$exception_exception_class$constant$ 
06:00078AE4 $internal$exception_class$constant$ 
06:00078B64 $couldNotCreate$exception_class$constant$ 
06:00078BD8 $removeListener$exception_class$constant$ 
--- From 'Obj\filesystem.5B0F823E.obj'
06:00078C70 $nativeCallException$exception_class$constant$ 
--- From 'Obj\exception.B6F320E8.obj'
06:00078CE4 $notImplementedException$exception_class$constant$ 
06:00078D5C $unsupportedPredicate$exception_class$constant$ 
06:00078DD8 $overloadingExpected$exception_class$constant$ 
06:00078E4C $indexOutOfRange$exception_class$constant$ 
06:00078EDC $exceptionInListener$exception_class$constant$ 
06:00078F7C $unknown$exception_class$constant$ 
--- From 'Obj\filesystem.5B0F823E.obj'
06:00079008 $fileAlreadyExists$fileSystem_exception_class$constant$ 
06:0007909C $wrongAttribute$fileSystem_exception_class$constant$ 
06:00079168 $fileTooBig$fileSystem_exception_class$constant$ 
--- From 'Obj\math.5D7D6037.obj'
06:00079220 $asinOutOfBounds$math_exception_class$constant$ 
06:000792CC $acoshOutOfBounds$math_exception_class$constant$ 
06:00079384 $atanhOutOfBounds$math_exception_class$constant$ 
06:0007943C $acotanhOutOfBounds$math_exception_class$constant$ 
06:000794D4 $cotanhInfinityResult$math_exception_class$constant$ 
061000:0184E0 0028D0   VIPTypeL::VIPTypeL::.rdata F=4
--- From 'Obj\memory.568C55F8.obj'
06:000794E0 $binary$_builtIn_class$0$domain$$type_library$ 
--- From 'Obj\segmented_binary.C16992E7.obj'
06:000794F0 $segmentedSupport{@Segment}$_global_class$1$domain$$type_library$1${class$_builtIn::binary$}$static$ 
--- From 'Obj\segmented.E9C86B20.obj'
06:00079500 $string$_builtIn_class$0$domain$$type_library$ 
--- From 'Obj\memory.568C55F8.obj'
06:00079510 $integer$_builtIn_class$0$domain$$type_library$ 
06:00079520 $pointer$_builtIn_class$0$domain$$type_library$ 
--- From 'Obj\exception.B6F320E8.obj'
06:00079530 $outputStream_binary$_global_class$0$domain$$type_library$ 
--- From 'Obj\segmented_binary.C16992E7.obj'
06:00079540 $segmented_binary@classDB$segmented_binary_implement$0$domain$$type_library$ 
--- From 'Obj\segmented_utf16.76E668A2.obj'
06:00079550 $segmentedSupport{@Segment}$_global_class$1$domain$$type_library$1${class$_builtIn::string$}$static$ 
06:00079560 $segmented_utf16@classDB$segmented_utf16_implement$0$domain$$type_library$ 
--- From 'Obj\segmented.E9C86B20.obj'
06:00079570 $unsigned$_builtIn_class$0$domain$$type_library$ 
06:00079580 $byteCount$core_class$0$domain$$type_library$ 
--- From 'Obj\segmentedsupport.2BAFE67D.obj'
06:00079590 $segmentedSupport@objectDB$segmentedSupport{@Segment}_implement$0$domain$$type_library$ 
06:000795A0 $segmentedsupport$typeLibDB$segmentedSupport{@Segment}_implement$0$domain$$type_library$ 
06:000795B0 $segmentedIterator@objectDB$segmentedIterator{@Segment}_implement$0$domain$$type_library$ 
06:000795C0 $segmentediterator$typeLibDB$segmentedIterator{@Segment}_implement$0$domain$$type_library$ 
--- From 'Obj\event.D92D3A63.obj'
06:000795D0 $event0$_global_class$0$domain$$type_library$ 
06:000795E0 $listener$event0_interface$0$domain$$type_library$ 
--- From 'Obj\segmented.E9C86B20.obj'
06:000795F0 $_someType$_builtIn_class$0$domain$$type_library$ 
--- From 'Obj\event.D92D3A63.obj'
06:00079600 $listener$event1{@Type1}_interface$0$domain$$type_library$ 
06:00079610 $listener$event2{@Type1,@Type2}_interface$0$domain$$type_library$ 
06:00079620 $listener$event3{@Type1,@Type2,@Type3}_interface$0$domain$$type_library$ 
06:00079630 $listener$event4{@Type1,@Type2,@Type3,@Type4}_interface$0$domain$$type_library$ 
06:00079640 $listener$event5{@Type1,@Type2,@Type3,@Type4,@Type5}_interface$0$domain$$type_library$ 
06:00079650 $listener$event6{@Type1,@Type2,@Type3,@Type4,@Type5,@Type6}_interface$0$domain$$type_library$ 
06:00079660 $listener$event7{@Type1,@Type2,@Type3,@Type4,@Type5,@Type6,@Type7}_interface$0$domain$$type_library$ 
--- From 'Obj\weakreference.0A1AF11C.obj'
06:00079670 $weakReference@objectDB$weakReference{@Type}_implement$0$domain$$type_library$ 
06:00079680 $weakreference$typeLibDB$weakReference{@Type}_implement$0$domain$$type_library$ 
--- From 'Obj\exceptiondump.2B9C9E40.obj'
06:00079690 $value$core_class$0$domain$$type_library$ 
--- From 'Obj\core.5D9B9483.obj'
06:000796A0 $function$core_class$1$domain$$type_library$1${class$presenter::presentation$}$static$ 
--- From 'Obj\exceptiondump.2B9C9E40.obj'
06:000796B0 $presentation$presenter_class$0$domain$$type_library$ 
--- From 'Obj\presenter.E6E77556.obj'
06:000796C0 $tuple$core_class$2$domain$$type_library$2${class$_builtIn::unsigned$class$_builtIn::string$}$static$ 
06:000796D0 $presenter$presenter_class$1$domain$$type_library$ 
06:000796E0 $presenter$presenter_class$0$domain$$type_library$ 
06:000796F0 $subPresenter$presenter_class$0$domain$$type_library$ 
06:00079700 $subPresentation$presenter_class$1$domain$$type_library$1${class$presenter::presentation$}$static$ 
06:00079710 $sequencePresenter$presenter_class$0$domain$$type_library$ 
--- From 'Obj\outputstreamsupport.6F229CFB.obj'
06:00079720 $fieldPresentation$presenter_class$0$domain$$type_library$ 
--- From 'Obj\presenter.E6E77556.obj'
06:00079730 $fieldPresenter$presenter_class$0$domain$$type_library$ 
06:00079740 $functorDescr$presenter_class$0$domain$$type_library$ 
06:00079750 $presentdebug/2nf$1$presenter_implement$0$domain$$type_library$ 
06:00079760 $mkpresenter_setelements/1nf$1$presenter_implement$0$domain$$type_library$ 
06:00079770 $mkpresenter_mapelements/2nf$1$presenter_implement$0$domain$$type_library$ 
06:00079780 $presenter_flagset/2nf$1$presenter_implement$0$domain$$type_library$ 
06:00079790 $presenter_flagset/2nf$2$presenter_implement$0$domain$$type_library$ 
--- From 'Obj\programcontrol.2B27F1CB.obj'
06:000797A0 $exceptionRaiser$programControl_class$0$domain$$type_library$ 
06:000797B0 $deObject$programControl_implement$0$domain$$type_library$ 
--- From 'Obj\exceptiondump.2B9C9E40.obj'
06:000797C0 $pfc\reflection\typeLibrary$_global_class$0$domain$$type_library$ 
--- From 'Obj\reflection.ACE59E5C.obj'
06:000797D0 $*$_builtIn_class$1$domain$$type_library$1${typelib(class$core::tuple{class$_builtIn::string$interface$pfc\reflection\typeLibrary$})$}$static$ 
06:000797E0 $tuple$core_class$2$domain$$type_library$2${class$_builtIn::string$class$_global::pfc\reflection\typeLibrary$}$static$ 
--- From 'Obj\memory.568C55F8.obj'
06:000797F0 $object$_global_class$0$domain$$type_library$ 
--- From 'Obj\exceptiondump.2B9C9E40.obj'
06:00079800 $pfc\reflection\typeDescriptor$_global_class$0$domain$$type_library$ 
--- From 'Obj\reflection.ACE59E5C.obj'
06:00079810 $*$_builtIn_class$1$domain$$type_library$1${class$_global::pfc\reflection\scopeDescriptor$}$static$ 
--- From 'Obj\exceptiondump.2B9C9E40.obj'
06:00079820 $pfc\reflection\scopeDescriptor$_global_class$0$domain$$type_library$ 
--- From 'Obj\reflection.ACE59E5C.obj'
06:00079830 $presenterDescriptor$pfc\reflection\reflection_native_class$0$domain$$type_library$ 
06:00079840 $prologPredicateValue$pfc\reflection\reflection_native_class$0$domain$$type_library$ 
06:00079850 $varM{@Term}$_global_class$1$domain$$type_library$1${class$_builtIn::pointer$}$static$ 
06:00079860 $*$_builtIn_class$1$domain$$type_library$1${class$pfc\reflection\reflection_native::objectStructure$}$static$ 
06:00079870 $objectStructure$pfc\reflection\reflection_native_class$0$domain$$type_library$ 
--- From 'Obj\arraym_inline.F665267A.obj'
06:00079880 $typeKind$pfc\reflection\reflection_class$0$domain$$type_library$ 
--- From 'Obj\memory.568C55F8.obj'
06:00079890 $char$_builtIn_class$0$domain$$type_library$ 
--- From 'Obj\event.D92D3A63.obj'
06:000798A0 $varM_boolean$_global_class$0$domain$$type_library$ 
06:000798B0 $varM_integer$_global_class$0$domain$$type_library$ 
06:000798C0 $varM_unsigned$_global_class$0$domain$$type_library$ 
--- From 'Obj\exceptiondump.2B9C9E40.obj'
06:000798D0 $errorDescriptorInformation$_global_class$0$domain$$type_library$ 
06:000798E0 $trapInformationObject$_global_class$0$domain$$type_library$ 
06:000798F0 $pfc\reflection\factDescriptor$_global_class$0$domain$$type_library$ 
06:00079900 $pfc\reflection\functorDescriptor$_global_class$0$domain$$type_library$ 
06:00079910 $factRepresentationKind$pfc\reflection\functorDescriptor_interface$0$domain$$type_library$ 
06:00079920 $scopeKind$pfc\reflection\scopeDescriptor_interface$0$domain$$type_library$ 
06:00079930 $presenter$pfc\reflection\typeLibrary_interface$0$domain$$type_library$ 
06:00079940 $pfc\reflection\typeLibrary_arrow$_global_class$0$domain$$type_library$ 
06:00079950 $formalParameter$pfc\reflection\typeLibrary_arrow_interface$0$domain$$type_library$ 
06:00079960 $typePattern$pfc\reflection\typeLibrary_arrow_interface$0$domain$$type_library$ 
06:00079970 $pfc\reflection\typeLibrary_functor$_global_class$0$domain$$type_library$ 
06:00079980 $pfc\reflection\typeLibrary_numeric$_global_class$0$domain$$type_library$ 
06:00079990 $bufferSupport$_global_class$0$domain$$type_library$ 
06:000799A0 $inputStream$_global_class$0$domain$$type_library$ 
--- From 'Obj\filesystem.5B0F823E.obj'
06:000799B0 $inputBuffer$_global_class$0$domain$$type_library$ 
--- From 'Obj\exceptiondump.2B9C9E40.obj'
06:000799C0 $inputSupport$_global_class$0$domain$$type_library$ 
06:000799D0 $outputStream$_global_class$0$domain$$type_library$ 
06:000799E0 $outputSerializer$outputStream_interface$0$domain$$type_library$ 
06:000799F0 $stdioState$_global_class$0$domain$$type_library$ 
06:00079A00 $stream$_global_class$0$domain$$type_library$ 
--- From 'Obj\filesystem.5B0F823E.obj'
06:00079A10 $mode$stream_interface$0$domain$$type_library$ 
--- From 'Obj\exceptiondump.2B9C9E40.obj'
06:00079A20 $outputStream_string$_global_class$0$domain$$type_library$ 
--- From 'Obj\event.D92D3A63.obj'
06:00079A30 $runtimeLinknamesKernel$_global_class$0$domain$$type_library$ 
06:00079A40 $runtimeLinkNamesRun$_global_class$0$domain$$type_library$ 
--- From 'Obj\reflection.ACE59E5C.obj'
06:00079A50 $anyTermValue$pfc\reflection\reflection_native_class$0$domain$$type_library$ 
06:00079A60 $factDbValue$pfc\reflection\reflection_native_class$0$domain$$type_library$ 
06:00079A70 $predicateOrFunctionCallDescriptor$pfc\reflection\reflection_native_class$0$domain$$type_library$ 
06:00079A80 $returnKind$pfc\reflection\reflection_native_class$0$domain$$type_library$ 
06:00079A90 $viewDescriptor$pfc\reflection\reflection_native_class$0$domain$$type_library$ 
06:00079AA0 $viewDescriptorTableHeader$pfc\reflection\reflection_native_class$0$domain$$type_library$ 
06:00079AB0 $predicateMode$pfc\reflection\reflection_class$0$domain$$type_library$ 
06:00079AC0 $functor$pfc\reflection\reflection_class$0$domain$$type_library$ 
06:00079AD0 $callingConvention$pfc\reflection\reflection_class$0$domain$$type_library$ 
06:00079AE0 $argumentFlow$pfc\reflection\reflection_class$0$domain$$type_library$ 
--- From 'Obj\registry.917E8C91.obj'
06:00079AF0 $rootKey$registry_class$0$domain$$type_library$ 
--- From 'Obj\exceptiondump.2B9C9E40.obj'
06:00079B00 $namedValue$core_class$1$domain$$type_library$1${class$core::value$}$static$ 
--- From 'Obj\registry.917E8C91.obj'
06:00079B10 $registryView$registry_class$0$domain$$type_library$ 
--- From 'Obj\std.2DE0EC97.obj'
06:00079B20 $lazy/1nf$1$std_implement$0$domain$$type_library$ 
--- From 'Obj\inputstreamsupport.7AF62102.obj'
06:00079B30 $inputSupport@objectDB$inputSupport_implement$0$domain$$type_library$ 
--- From 'Obj\main.789E136F.obj'
06:00079B40 $any$_builtIn_class$0$domain$$type_library$ 
--- From 'Obj\filesystem.5B0F823E.obj'
06:00079B50 $boolean$_builtIn_class$0$domain$$type_library$ 
--- From 'Obj\memory.568C55F8.obj'
06:00079B60 $integer64$_builtIn_class$0$domain$$type_library$ 
--- From 'Obj\console.E8EB4F3C.obj'
06:00079B70 $outputBuffer$_global_class$0$domain$$type_library$ 
06:00079B80 $outputStreamSupport$_global_class$0$domain$$type_library$ 
06:00079B90 $outputStreamSupportSite$_global_class$0$domain$$type_library$ 
--- From 'Obj\outputstreamsupport.6F229CFB.obj'
06:00079BA0 $presentation2stringSerializer_function$outputStreamSupport_implement$0$domain$$type_library$ 
06:00079BB0 $outputStreamSupport@objectDB$outputStreamSupport_implement$0$domain$$type_library$ 
06:00079BC0 $outputStreamSegmentedSupport@objectDB$outputStreamSegmentedSupport{@Segment}_implement$0$domain$$type_library$ 
06:00079BD0 $outputstreamsegmentedsupport$typeLibDB$outputStreamSegmentedSupport{@Segment}_implement$0$domain$$type_library$ 
06:00079BE0 $presenter/0nf$1$outputStreamSegmentedSupport{@Segment}_implement$0$domain$$type_library$ 
--- From 'Obj\stream.8B55AAA7.obj'
06:00079BF0 $stdioState@objectDB$stdioState_implement$0$domain$$type_library$ 
06:00079C00 $stdio@classDB$stdio_implement$0$domain$$type_library$ 
06:00079C10 $outputStream_null@classDB$outputStream_null_implement$0$domain$$type_library$ 
06:00079C20 $inputStream_null@classDB$inputStream_null_implement$0$domain$$type_library$ 
--- From 'Obj\string.19AABD3B.obj'
06:00079C30 $tuple$core_class$2$domain$$type_library$2${class$_builtIn::real$class$_builtIn::string$}$static$ 
--- From 'Obj\memory.568C55F8.obj'
06:00079C40 $real$_builtIn_class$0$domain$$type_library$ 
--- From 'Obj\list.A75CEA31.obj'
06:00079C50 $positive$core_class$0$domain$$type_library$ 
--- From 'Obj\string.19AABD3B.obj'
06:00079C60 $caseSensitivity$string_class$0$domain$$type_library$ 
06:00079C70 $adjustBehaviour$string_class$0$domain$$type_library$ 
06:00079C80 $adjustSide$string_class$0$domain$$type_library$ 
06:00079C90 $oneSymbolString$string_implement$0$domain$$type_library$ 
06:00079CA0 $getstring/2nf$1$outputStream_string_implement$0$domain$$type_library$ 
06:00079CB0 $getstring/3nf$1$outputStream_string_implement$0$domain$$type_library$ 
06:00079CC0 $getstring/4nf$1$outputStream_string_implement$0$domain$$type_library$ 
06:00079CD0 $getstring/5nf$1$outputStream_string_implement$0$domain$$type_library$ 
06:00079CE0 $getstringallownull/2nf$1$outputStream_string_implement$0$domain$$type_library$ 
06:00079CF0 $getstringallownull/3nf$1$outputStream_string_implement$0$domain$$type_library$ 
06:00079D00 $getstringallownull/4nf$1$outputStream_string_implement$0$domain$$type_library$ 
06:00079D10 $getstringallownull/5nf$1$outputStream_string_implement$0$domain$$type_library$ 
06:00079D20 $inputStream_string@objectDB$inputStream_string_implement$0$domain$$type_library$ 
--- From 'Obj\memory.568C55F8.obj'
06:00079D30 $string8$_builtIn_class$0$domain$$type_library$ 
06:00079D40 $unsigned16$core_class$0$domain$$type_library$ 
--- From 'Obj\time.6AFD2988.obj'
06:00079D50 $*$_builtIn_class$1$domain$$type_library$1${class$timeFormatter::dateTimePos$}$static$ 
06:00079D60 $dateTimePos$timeFormatter_implement$0$domain$$type_library$ 
--- From 'Obj\core.5D9B9483.obj'
06:00079D70 $timeFormatter$_global_class$0$domain$$type_library$ 
--- From 'Obj\time_api.32F5932A.obj'
06:00079D80 $fileTime$time_native_class$0$domain$$type_library$ 
--- From 'Obj\exceptiondump.2B9C9E40.obj'
06:00079D90 $gmtTimeValue$core_class$0$domain$$type_library$ 
--- From 'Obj\memory.568C55F8.obj'
06:00079DA0 $unsigned64$_builtIn_class$0$domain$$type_library$ 
--- From 'Obj\time.6AFD2988.obj'
06:00079DB0 $function$core_class$1$domain$$type_library$1${class$_builtIn::unsigned64$}$static$ 
--- From 'Obj\core.5D9B9483.obj'
06:00079DC0 $calendarDuration$_global_class$0$domain$$type_library$ 
06:00079DD0 $duration$_global_class$0$domain$$type_library$ 
06:00079DE0 $gmtTime$_global_class$0$domain$$type_library$ 
06:00079DF0 $timeInterval$_global_class$0$domain$$type_library$ 
06:00079E00 $calendarInterval$_global_class$0$domain$$type_library$ 
06:00079E10 $time$_global_class$0$domain$$type_library$ 
--- From 'Obj\time.6AFD2988.obj'
06:00079E20 $weekRule$timeFormatter_implement$0$domain$$type_library$ 
06:00079E30 $timeDesignator$timeFormatter_implement$0$domain$$type_library$ 
06:00079E40 $dateTime$timeFormatter_implement$0$domain$$type_library$ 
06:00079E50 $templateAndPosition$timeFormatter_implement$0$domain$$type_library$ 
06:00079E60 $timeFormatter@objectDB$timeFormatter_implement$0$domain$$type_library$ 
06:00079E70 $timeFormatter@classDB$timeFormatter_implement$0$domain$$type_library$ 
06:00079E80 $gmtTimeFunction$time_class$0$domain$$type_library$ 
06:00079E90 $time@objectDB$time_implement$0$domain$$type_library$ 
06:00079EA0 $time@classDB$time_implement$0$domain$$type_library$ 
06:00079EB0 $gmtTimeFunction$gmtTime_class$0$domain$$type_library$ 
06:00079EC0 $duration@objectDB$duration_implement$0$domain$$type_library$ 
06:00079ED0 $calendarDuration@objectDB$calendarDuration_implement$0$domain$$type_library$ 
--- From 'Obj\systeminformation_api.809129C1.obj'
06:00079EE0 $logfont$gui_native_class$0$domain$$type_library$ 
--- From 'Obj\vpidomains.E7102A6D.obj'
06:00079EF0 $event$vpiDomains_class$0$domain$$type_library$ 
--- From 'Obj\memory.568C55F8.obj'
06:00079F00 $handle$_builtIn_class$0$domain$$type_library$ 
--- From 'Obj\gui_api.9FE53D0D.obj'
06:00079F10 $pnt$vpiDomains_class$0$domain$$type_library$ 
--- From 'Obj\shell_api.E8D4E14B.obj'
06:00079F20 $rct$vpiDomains_class$0$domain$$type_library$ 
--- From 'Obj\vpidomains.E7102A6D.obj'
06:00079F30 $brush$vpiDomains_class$0$domain$$type_library$ 
06:00079F40 $pen$vpiDomains_class$0$domain$$type_library$ 
06:00079F50 $drawtools$vpiDomains_class$0$domain$$type_library$ 
06:00079F60 $menu$vpiDomains_class$0$domain$$type_library$ 
06:00079F70 $keyModifier$vpiDomains_class$0$domain$$type_library$ 
06:00079F80 $acceleratorKey$vpiDomains_class$0$domain$$type_library$ 
06:00079F90 $menuItem$vpiDomains_class$0$domain$$type_library$ 
06:00079FA0 $controlInfo$vpiDomains_class$0$domain$$type_library$ 
06:00079FB0 $stateInfo$vpiDomains_class$0$domain$$type_library$ 
06:00079FC0 $windef$vpiDomains_class$0$domain$$type_library$ 
06:00079FD0 $wdef$vpiDomains_class$0$domain$$type_library$ 
06:00079FE0 $errhandler$vpiDomains_class$0$domain$$type_library$ 
06:00079FF0 $eHandler$vpiDomains_class$0$domain$$type_library$ 
06:0007A000 $accelerator$vpiDomains_class$0$domain$$type_library$ 
06:0007A010 $bitmapId$vpiDomains_class$0$domain$$type_library$ 
06:0007A020 $ddeserviceInfo$vpiDomains_class$0$domain$$type_library$ 
06:0007A030 $ddedata$vpiDomains_class$0$domain$$type_library$ 
06:0007A040 $ddeevent$vpiDomains_class$0$domain$$type_library$ 
06:0007A050 $alignment$vpiDomains_class$0$domain$$type_library$ 
06:0007A060 $ellipsis$vpiDomains_class$0$domain$$type_library$ 
--- From 'Obj\console_api.1787DB80.obj'
06:0007A070 $coord$console_native_class$0$domain$$type_library$ 
--- From 'Obj\console.E8EB4F3C.obj'
06:0007A080 $consoleScreenBufferInfo$console_native_class$0$domain$$type_library$ 
--- From 'Obj\console_api.1787DB80.obj'
06:0007A090 $char_info$console_native_class$0$domain$$type_library$ 
06:0007A0A0 $small_rect$console_native_class$0$domain$$type_library$ 
06:0007A0B0 $key_event_record$console_native_class$0$domain$$type_library$ 
06:0007A0C0 $mouse_event_record$console_native_class$0$domain$$type_library$ 
06:0007A0D0 $handlerRoutine$console_native_class$0$domain$$type_library$ 
--- From 'Obj\exe.D80FC844.obj'
06:0007A0E0 $runMode$exe_api_class$0$domain$$type_library$ 
--- From 'Obj\exe_api.026B8342.obj'
06:0007A0F0 $coInit$exe_api_class$0$domain$$type_library$ 
--- From 'Obj\filesystem.5B0F823E.obj'
06:0007A100 $fileAttributesInfo$fileSystem_native_class$0$domain$$type_library$ 
--- From 'Obj\filesystem_api.C5B8AF1A.obj'
06:0007A110 $overlapped$fileSystem_native_class$0$domain$$type_library$ 
06:0007A120 $ofStruct$lZ_fileSystem_native_class$0$domain$$type_library$ 
06:0007A130 $fileInfo$fileSystem_native_class$0$domain$$type_library$ 
--- From 'Obj\filesystem.5B0F823E.obj'
06:0007A140 $win32_find_data$fileSystem_native_class$0$domain$$type_library$ 
--- From 'Obj\filesystem_api.C5B8AF1A.obj'
06:0007A150 $file_info_by_handle_class$fileSystem_native_class$0$domain$$type_library$ 
06:0007A160 $fileIOCompletionRoutine$fileSystem_native_class$0$domain$$type_library$ 
06:0007A170 $fileAction$fileSystem_native_class$0$domain$$type_library$ 
06:0007A180 $file_notify_information$fileSystem_native_class$0$domain$$type_library$ 
06:0007A190 $openFilename$fileSystem_native_class$0$domain$$type_library$ 
06:0007A1A0 $oFNHookProc$fileSystem_native_class$0$domain$$type_library$ 
06:0007A1B0 $uSE_INFO_0$fileSystem_native_class$0$domain$$type_library$ 
06:0007A1C0 $fileAttributeAtom$fileSystem_api_class$0$domain$$type_library$ 
06:0007A1D0 $accessPermit$fileSystem_api_class$0$domain$$type_library$ 
06:0007A1E0 $memAppend_CallBack$fileSystem_api_implement$0$domain$$type_library$ 
--- From 'Obj\memory.568C55F8.obj'
06:0007A1F0 $charCount$core_class$0$domain$$type_library$ 
--- From 'Obj\filesystem_api.C5B8AF1A.obj'
06:0007A200 $bufferOperation$fileSystem_api_implement$0$domain$$type_library$ 
06:0007A210 $getshortpathname/1nf$1$fileSystem_api_implement$0$domain$$type_library$ 
06:0007A220 $getlongpathname/1nf$1$fileSystem_api_implement$0$domain$$type_library$ 
--- From 'Obj\gui_api.9FE53D0D.obj'
06:0007A230 $scrollInfo$gui_native_class$0$domain$$type_library$ 
06:0007A240 $scrollBarInfo$gui_native_class$0$domain$$type_library$ 
06:0007A250 $windowPlacement$gui_native_class$0$domain$$type_library$ 
06:0007A260 $size$gui_native_class$0$domain$$type_library$ 
06:0007A270 $textmetric$gui_native_class$0$domain$$type_library$ 
06:0007A280 $dlgItemTemplate$gui_api_class$0$domain$$type_library$ 
--- From 'Obj\memory.568C55F8.obj'
06:0007A290 $integer16$core_class$0$domain$$type_library$ 
06:0007A2A0 $unsigned8$core_class$0$domain$$type_library$ 
--- From 'Obj\gui_api.9FE53D0D.obj'
06:0007A2B0 $paintStruct$gui_native_class$0$domain$$type_library$ 
06:0007A2C0 $accel$gui_native_class$0$domain$$type_library$ 
06:0007A2D0 $msg$gui_native_class$0$domain$$type_library$ 
06:0007A2E0 $menuItemInfo$gui_native_class$0$domain$$type_library$ 
06:0007A2F0 $*$_builtIn_class$1$domain$$type_library$1${class$vpiDomains::pnt$}$static$ 
06:0007A300 $input$gui_native_class$0$domain$$type_library$ 
06:0007A310 $iconInfo$gui_native_class$0$domain$$type_library$ 
06:0007A320 $mouseMovePoint$gui_native_class$0$domain$$type_library$ 
06:0007A330 $enumDesktopProc$gui_native_class$0$domain$$type_library$ 
06:0007A340 $enumWindowStationProc$gui_native_class$0$domain$$type_library$ 
06:0007A350 $copyDataStruct$gui_native_class$0$domain$$type_library$ 
06:0007A360 $trackMouseEvent$gui_native_class$0$domain$$type_library$ 
06:0007A370 $sendAsyncProc$gui_native_class$0$domain$$type_library$ 
06:0007A380 $wndProc$gui_native_class$0$domain$$type_library$ 
06:0007A390 $wndClassEx$gui_native_class$0$domain$$type_library$ 
06:0007A3A0 $createstruct$gui_native_class$0$domain$$type_library$ 
06:0007A3B0 $flashInfo$gui_native_class$0$domain$$type_library$ 
06:0007A3C0 $windowPos$gui_native_class$0$domain$$type_library$ 
06:0007A3D0 $windowInfo$gui_native_class$0$domain$$type_library$ 
06:0007A3E0 $monitorInfo$gui_native_class$0$domain$$type_library$ 
06:0007A3F0 $monitorInfoEx$gui_native_class$0$domain$$type_library$ 
06:0007A400 $monitorEnumProc$gui_native_class$0$domain$$type_library$ 
06:0007A410 $dlgTemplate$gui_native_class$0$domain$$type_library$ 
06:0007A420 $dlgItemTemplate$gui_native_class$0$domain$$type_library$ 
06:0007A430 $dlgTemplateEx$gui_native_class$0$domain$$type_library$ 
--- From 'Obj\memory.568C55F8.obj'
06:0007A440 $unsignedNative$_builtIn_class$0$domain$$type_library$ 
--- From 'Obj\gui_api.9FE53D0D.obj'
06:0007A450 $timerProc$gui_native_class$0$domain$$type_library$ 
06:0007A460 $drawTextParams$gui_native_class$0$domain$$type_library$ 
06:0007A470 $grayStringProc$gui_native_class$0$domain$$type_library$ 
06:0007A480 $drawStateProc$gui_native_class$0$domain$$type_library$ 
06:0007A490 $scrollBar$gui_native_class$0$domain$$type_library$ 
06:0007A4A0 $propEnumProc$gui_native_class$0$domain$$type_library$ 
06:0007A4B0 $helpInfo$gui_native_class$0$domain$$type_library$ 
06:0007A4C0 $wndEnumProc$gui_native_class$0$domain$$type_library$ 
06:0007A4D0 $gaFlags$gui_native_class$0$domain$$type_library$ 
06:0007A4E0 $hookProc$gui_native_class$0$domain$$type_library$ 
06:0007A4F0 $kbdllhookstruct$gui_native_class$0$domain$$type_library$ 
06:0007A500 $buttonImageList$gui_native_class$0$domain$$type_library$ 
06:0007A510 $button_imageList_align$gui_native_class$0$domain$$type_library$ 
06:0007A520 $nmBcHotItem$gui_native_class$0$domain$$type_library$ 
06:0007A530 $button_splitInfo$gui_native_class$0$domain$$type_library$ 
06:0007A540 $nmBcDropdown$gui_native_class$0$domain$$type_library$ 
06:0007A550 $nmhdr$gui_native_class$0$domain$$type_library$ 
06:0007A560 $nmCustomDraw$gui_native_class$0$domain$$type_library$ 
06:0007A570 $logbrush$gui_native_class$0$domain$$type_library$ 
06:0007A580 $tcItem$gui_native_class$0$domain$$type_library$ 
06:0007A590 $tagInitCommonControlsEx$gui_native_class$0$domain$$type_library$ 
06:0007A5A0 $logPalette$gui_native_class$0$domain$$type_library$ 
06:0007A5B0 $mouseInput$gui_native_class$0$domain$$type_library$ 
06:0007A5C0 $keybdInput$gui_native_class$0$domain$$type_library$ 
06:0007A5D0 $hardwareInput$gui_native_class$0$domain$$type_library$ 
06:0007A5E0 $inputUnion$gui_native_class$0$domain$$type_library$ 
06:0007A5F0 $toolinfo$gui_native_class$0$domain$$type_library$ 
06:0007A600 $nmttdispInfo$gui_native_class$0$domain$$type_library$ 
06:0007A610 $blendFunction$gui_native_class$0$domain$$type_library$ 
06:0007A620 $chooseFont$gui_native_class$0$domain$$type_library$ 
06:0007A630 $printdlg$gui_native_class$0$domain$$type_library$ 
06:0007A640 $printdlgEx$gui_native_class$0$domain$$type_library$ 
06:0007A650 $inputUnion_mi$gui_native_class$0$domain$$type_library$ 
06:0007A660 $inputUnion_ki$gui_native_class$0$domain$$type_library$ 
06:0007A670 $inputUnion_hi$gui_native_class$0$domain$$type_library$ 
06:0007A680 $scrollInfo$gui_api_class$0$domain$$type_library$ 
06:0007A690 $scrollBarInfo$gui_api_class$0$domain$$type_library$ 
06:0007A6A0 $scrollBarInfoRgState$gui_api_class$0$domain$$type_library$ 
06:0007A6B0 $windowPlacement$gui_api_class$0$domain$$type_library$ 
06:0007A6C0 $dlgTemplate$gui_api_class$0$domain$$type_library$ 
06:0007A6D0 $varArray$gui_api_class$0$domain$$type_library$ 
06:0007A6E0 $monitorInfo$gui_api_class$0$domain$$type_library$ 
06:0007A6F0 $sendinput/1np$1$gui_api_implement$0$domain$$type_library$ 
--- From 'Obj\locale_api.2E000328.obj'
06:0007A700 $stdBoolFunc$locale_native_class$1$domain$$type_library$ 
06:0007A710 $stdBoolFunc$locale_native_class$2$domain$$type_library$ 
06:0007A720 $stdBoolFunc$locale_native_class$4$domain$$type_library$ 
06:0007A730 $stdBoolFunc$locale_native_class$5$domain$$type_library$ 
06:0007A740 $numberfmt$locale_native_class$0$domain$$type_library$ 
--- From 'Obj\memory_api.EF10D306.obj'
06:0007A750 $process_memory_counters$memory_native_class$0$domain$$type_library$ 
06:0007A760 $memory_basic_information$memory_native_class$0$domain$$type_library$ 
06:0007A770 $memoryStatusEx$memory_native_class$0$domain$$type_library$ 
--- From 'Obj\multithread_api.57E3A62D.obj'
06:0007A780 $predicate_dt$core_class$1$domain$$type_library$1${class$windowsAPIprocessHandle::$}$static$ 
06:0007A790 $selectorEntry$multiThread_native_class$0$domain$$type_library$ 
06:0007A7A0 $timerAPCProc$multiThread_native_class$0$domain$$type_library$ 
06:0007A7B0 $startupInfo$multiThread_native_class$0$domain$$type_library$ 
06:0007A7C0 $processInformation$multiThread_native_class$0$domain$$type_library$ 
06:0007A7D0 $threadRunnable$multiThread_native_class$0$domain$$type_library$ 
06:0007A7E0 $critical_section$multiThread_native_class$0$domain$$type_library$ 
06:0007A7F0 $m128A$multiThread_native_class$0$domain$$type_library$ 
06:0007A800 $cache_descriptor$multiThread_native_class$0$domain$$type_library$ 
06:0007A810 $system_logical_processor_information$multiThread_native_class$0$domain$$type_library$ 
06:0007A820 $apcProc$multiThread_native_class$0$domain$$type_library$ 
06:0007A830 $native$multiThread_api_implement$0$domain$$type_library$ 
06:0007A840 $isWOW64Process_func$multiThread_api_implement$0$domain$$type_library$ 
06:0007A850 $multiThread_api@classDB$multiThread_api_implement$0$domain$$type_library$ 
06:0007A860 $mkwow64processfunc/0nf$2$multiThread_api_implement$0$domain$$type_library$ 
--- From 'Obj\registry_api.CF388C66.obj'
06:0007A870 $securityAttr$registry_native_class$0$domain$$type_library$ 
--- From 'Obj\filesystem.5B0F823E.obj'
06:0007A880 $iStream_native$_global_class$0$domain$$type_library$ 
06:0007A890 $iUnknown$_global_class$0$domain$$type_library$ 
--- From 'Obj\shell_api.E8D4E14B.obj'
06:0007A8A0 $shellExecuteInfo$shell_native_class$0$domain$$type_library$ 
06:0007A8B0 $appBarData$shell_native_class$0$domain$$type_library$ 
06:0007A8C0 $shFileOpStruct$shell_native_class$0$domain$$type_library$ 
06:0007A8D0 $sHNameMapping$shell_native_class$0$domain$$type_library$ 
06:0007A8E0 $shQueryRBinfo$shell_native_class$0$domain$$type_library$ 
06:0007A8F0 $notifyIcondata$shell_native_class$0$domain$$type_library$ 
06:0007A900 $sHFileInfo$shell_native_class$0$domain$$type_library$ 
06:0007A910 $browseinfo$shell_native_class$0$domain$$type_library$ 
06:0007A920 $browseCallbackProc$shell_native_class$0$domain$$type_library$ 
06:0007A930 $shard$shell_native_class$0$domain$$type_library$ 
--- From 'Obj\systeminformation_api.809129C1.obj'
06:0007A940 $system_Info$systemInformation_native_class$0$domain$$type_library$ 
06:0007A950 $nonclientMetrics$systemInformation_native_class$0$domain$$type_library$ 
06:0007A960 $nonclientMetricsXP$systemInformation_native_class$0$domain$$type_library$ 
06:0007A970 $osVersionInfo$systemInformation_native_class$0$domain$$type_library$ 
06:0007A980 $osVersionInfoEX$systemInformation_native_class$0$domain$$type_library$ 
06:0007A990 $systemInformation_api@classDB$systemInformation_api_implement$0$domain$$type_library$ 
--- From 'Obj\time_api.32F5932A.obj'
06:0007A9A0 $systemTime$time_native_class$0$domain$$type_library$ 
06:0007A9B0 $timeZoneAPI$time_native_class$0$domain$$type_library$ 
06:0007A9C0 $time_zone_information$time_native_class$0$domain$$type_library$ 
06:0007A9D0 $mapM{@Key,@Data}$_global_class$2$domain$$type_library$2${typelib(class$core::tuple{class$core::unsigned16$class$time_native::timeZoneAPI$})$typelib(class$time_native::time_zone_information)$}$static$ 
06:0007A9E0 $tuple$core_class$2$domain$$type_library$2${class$core::unsigned16$class$time_native::timeZoneAPI$}$static$ 
06:0007A9F0 $lastInputInfo$time_native_class$0$domain$$type_library$ 
06:0007AA00 $reg_tzi_format$time_native_class$0$domain$$type_library$ 
06:0007AA10 $time_api@classDB$time_api_implement$0$domain$$type_library$ 
06:0007AA20 $gettimezoneinformationforyear/2nf$1$time_api_implement$0$domain$$type_library$ 
--- From 'Obj\windowsapi.FC171F8F.obj'
06:0007AA30 $security_descriptor$windowsAPI_class$0$domain$$type_library$ 
06:0007AA40 $acl$windowsAPI_class$0$domain$$type_library$ 
06:0007AA50 $security_attributes$windowsAPI_class$0$domain$$type_library$ 
--- From 'Obj\main.789E136F.obj'
06:0007AA60 $*$_builtIn_class$1$domain$$type_library$1${class$_builtIn::char$}$static$ 
--- From 'Obj\memory.568C55F8.obj'
06:0007AA70 $real32$_builtIn_class$0$domain$$type_library$ 
--- From 'Obj\main.789E136F.obj'
06:0007AA80 $$byte$_builtIn_class$0$domain$$type_library$ 
06:0007AA90 $symbol$_builtIn_class$0$domain$$type_library$ 
--- From 'Obj\memory.568C55F8.obj'
06:0007AAA0 $binaryNonAtomic$_builtIn_class$0$domain$$type_library$ 
--- From 'Obj\filesystem.5B0F823E.obj'
06:0007AAB0 $factdb$_builtIn_class$0$domain$$type_library$ 
06:0007AAC0 $...$_builtIn_class$0$domain$$type_library$ 
--- From 'Obj\memory.568C55F8.obj'
06:0007AAD0 $integerNative$_builtIn_class$0$domain$$type_library$ 
--- From 'Obj\core.5D9B9483.obj'
06:0007AAE0 $compareResult$_builtIn_class$0$domain$$type_library$ 
--- From 'Obj\exe.D80FC844.obj'
06:0007AAF0 $mainExe@classDB$mainExe_implement$0$domain$$type_library$ 
--- From 'Obj\iterator.60C55021.obj'
06:0007AB00 $iterator@objectDB$iterator{@Elem}_implement$0$domain$$type_library$ 
06:0007AB10 $iterator$typeLibDB$iterator{@Elem}_implement$0$domain$$type_library$ 
06:0007AB20 $list/1np$1$iterator{@Elem}_implement$0$domain$$type_library$ 
06:0007AB30 $close/1np$1$iterator{@Elem}_implement$0$domain$$type_library$ 
--- From 'Obj\binary.248EF86D.obj'
06:0007AB40 $inputStream_binary@objectDB$inputStream_binary_implement$0$domain$$type_library$ 
--- From 'Obj\redblackset.DC1C3622.obj'
06:0007AB50 $empty/0$1$redBlackSet_implement$0$domain$$type_library$ 
06:0007AB60 $present_setrep/1nf$1$redBlackSet_implement$0$domain$$type_library$ 
--- From 'Obj\redblacktree.401E21A0.obj'
06:0007AB70 $empty/0$1$redBlackTree_implement$0$domain$$type_library$ 
06:0007AB80 $emptyUnique/0$1$redBlackTree_implement$0$domain$$type_library$ 
--- From 'Obj\redblacktreerep.E6A269FA.obj'
06:0007AB90 $uniqueKey$redBlackTreeRep_class$0$domain$$type_library$ 
06:0007ABA0 $present_treerep/1nf$1$redBlackTreeRep_implement$0$domain$$type_library$ 
--- From 'Obj\arraym_inline.F665267A.obj'
06:0007ABB0 $ptr$arrayM_inlineValue{@ItemType}_implement$0$domain$$type_library$ 
06:0007ABC0 $arrayM_inlineValue@objectDB$arrayM_inlineValue{@ItemType}_implement$0$domain$$type_library$ 
06:0007ABD0 $arraym_inlinevalue$typeLibDB$arrayM_inlineValue{@ItemType}_implement$0$domain$$type_library$ 
06:0007ABE0 $arrayM_inline@objectDB$arrayM_inline{@ItemType}_implement$0$domain$$type_library$ 
06:0007ABF0 $arrayM_inline@classDB$arrayM_inline{@ItemType}_implement$0$domain$$type_library$ 
06:0007AC00 $arraym_inline$typeLibDB$arrayM_inline{@ItemType}_implement$0$domain$$type_library$ 
--- From 'Obj\mapm_redblack.875A0474.obj'
06:0007AC10 $mapM_redBlack@objectDB$mapM_redBlack{@Key,@Data}_implement$0$domain$$type_library$ 
06:0007AC20 $mapm_redblack$typeLibDB$mapM_redBlack{@Key,@Data}_implement$0$domain$$type_library$ 
--- From 'Obj\setm_redblack.16EF8DC5.obj'
06:0007AC30 $setM_redBlack@objectDB$setM_redBlack{@Type}_implement$0$domain$$type_library$ 
06:0007AC40 $setm_redblack$typeLibDB$setM_redBlack{@Type}_implement$0$domain$$type_library$ 
--- From 'Obj\varm.B882E173.obj'
06:0007AC50 $reference$varM_reference{@Term}_class$0$domain$$type_library$ 
06:0007AC60 $varM_reference@objectDB$varM_reference{@Term}_implement$0$domain$$type_library$ 
06:0007AC70 $varm_reference$typeLibDB$varM_reference{@Term}_implement$0$domain$$type_library$ 
06:0007AC80 $varm_optional$typeLibDB$varM_optional{@Term}_implement$0$domain$$type_library$ 
06:0007AC90 $varM_lazy@objectDB$varM_lazy{@Term}_implement$0$domain$$type_library$ 
06:0007ACA0 $varm_lazy$typeLibDB$varM_lazy{@Term}_implement$0$domain$$type_library$ 
06:0007ACB0 $varM@objectDB$varM{@Term}_implement$0$domain$$type_library$ 
06:0007ACC0 $varm$typeLibDB$varM{@Term}_implement$0$domain$$type_library$ 
06:0007ACD0 $newmodel_unary/2np$1$varM{@Term}_implement$0$domain$$type_library$ 
06:0007ACE0 $newmodel_unary/2np$2$varM{@Term}_implement$0$domain$$type_library$ 
06:0007ACF0 $newmodel_binary/3np$1$varM{@Term}_implement$0$domain$$type_library$ 
06:0007AD00 $newmodel_binary/3np$2$varM{@Term}_implement$0$domain$$type_library$ 
--- From 'Obj\collectionmsupport.3A44ED4E.obj'
06:0007AD10 $collectionmsupport$typeLibDB$collectionSupport\collectionMsupport{@Type}_implement$0$domain$$type_library$ 
--- From 'Obj\collectionsupport.A039CC0D.obj'
06:0007AD20 $collectionSupport@objectDB$collectionSupport\collectionSupport{@Type}_implement$0$domain$$type_library$ 
06:0007AD30 $collectionsupport$typeLibDB$collectionSupport\collectionSupport{@Type}_implement$0$domain$$type_library$ 
--- From 'Obj\mapmsupport.8CD6C048.obj'
06:0007AD40 $mapMSupport@objectDB$collectionSupport\mapMSupport{@Key,@Data}_implement$0$domain$$type_library$ 
06:0007AD50 $mapmsupport$typeLibDB$collectionSupport\mapMSupport{@Key,@Data}_implement$0$domain$$type_library$ 
--- From 'Obj\mapsupport.C7248B7B.obj'
06:0007AD60 $mapSupport@objectDB$collectionSupport\mapSupport{@Key,@Data}_implement$0$domain$$type_library$ 
06:0007AD70 $mapsupport$typeLibDB$collectionSupport\mapSupport{@Key,@Data}_implement$0$domain$$type_library$ 
--- From 'Obj\modifiablesupport.5D48FFF1.obj'
06:0007AD80 $modifiableSupport@objectDB$collectionSupport\modifiableSupport{@Type}_implement$0$domain$$type_library$ 
06:0007AD90 $modifiablesupport$typeLibDB$collectionSupport\modifiableSupport{@Type}_implement$0$domain$$type_library$ 
--- From 'Obj\console.E8EB4F3C.obj'
06:0007ADA0 $outputStream_console@objectDB$outputStream_console_implement$0$domain$$type_library$ 
06:0007ADB0 $inputStream_console@objectDB$inputStream_console_implement$0$domain$$type_library$ 
06:0007ADC0 $event$console_class$0$domain$$type_library$ 
06:0007ADD0 $console@classDB$console_implement$0$domain$$type_library$ 
--- From 'Obj\exceptiondump.2B9C9E40.obj'
06:0007ADE0 $localTimeValue$core_class$0$domain$$type_library$ 
--- From 'Obj\filesystem.5B0F823E.obj'
06:0007ADF0 $hResult$core_class$0$domain$$type_library$ 
--- From 'Obj\core.5D9B9483.obj'
06:0007AE00 $hScopeDescriptor$core_class$0$domain$$type_library$ 
--- From 'Obj\exceptiondump.2B9C9E40.obj'
06:0007AE10 $sourceCursor$core_class$0$domain$$type_library$ 
--- From 'Obj\core.5D9B9483.obj'
06:0007AE20 $resourceIdentifiers$_global_class$0$domain$$type_library$ 
06:0007AE30 $unit$core_class$0$domain$$type_library$ 
06:0007AE40 $unsigned64_struct$core_class$0$domain$$type_library$ 
--- From 'Obj\memory.568C55F8.obj'
06:0007AE50 $integer8$core_class$0$domain$$type_library$ 
--- From 'Obj\core.5D9B9483.obj'
06:0007AE60 $integer64_struct$core_class$0$domain$$type_library$ 
--- From 'Obj\exception.B6F320E8.obj'
06:0007AE70 $exception$core_class$0$domain$$type_library$ 
--- From 'Obj\core.5D9B9483.obj'
06:0007AE80 $nativeGuid$core_class$0$domain$$type_library$ 
06:0007AE90 $byteCountOptional$core_class$0$domain$$type_library$ 
06:0007AEA0 $charCountOptional$core_class$0$domain$$type_library$ 
06:0007AEB0 $positiveOptional$core_class$0$domain$$type_library$ 
06:0007AEC0 $function$core_class$1$domain$$type_library$ 
06:0007AED0 $function$core_class$2$domain$$type_library$ 
06:0007AEE0 $function$core_class$3$domain$$type_library$ 
06:0007AEF0 $function$core_class$4$domain$$type_library$ 
06:0007AF00 $function$core_class$5$domain$$type_library$ 
06:0007AF10 $function$core_class$6$domain$$type_library$ 
06:0007AF20 $function$core_class$7$domain$$type_library$ 
06:0007AF30 $function$core_class$8$domain$$type_library$ 
06:0007AF40 $function$core_class$9$domain$$type_library$ 
06:0007AF50 $function$core_class$10$domain$$type_library$ 
06:0007AF60 $function$core_class$11$domain$$type_library$ 
06:0007AF70 $function_dt$core_class$1$domain$$type_library$ 
06:0007AF80 $function_dt$core_class$2$domain$$type_library$ 
06:0007AF90 $function_dt$core_class$3$domain$$type_library$ 
06:0007AFA0 $function_dt$core_class$4$domain$$type_library$ 
06:0007AFB0 $function_dt$core_class$5$domain$$type_library$ 
06:0007AFC0 $function_dt$core_class$6$domain$$type_library$ 
06:0007AFD0 $function_dt$core_class$7$domain$$type_library$ 
06:0007AFE0 $function_dt$core_class$8$domain$$type_library$ 
06:0007AFF0 $function_dt$core_class$9$domain$$type_library$ 
06:0007B000 $function_dt$core_class$10$domain$$type_library$ 
06:0007B010 $function_dt$core_class$11$domain$$type_library$ 
06:0007B020 $function_nd$core_class$1$domain$$type_library$ 
06:0007B030 $function_nd$core_class$2$domain$$type_library$ 
06:0007B040 $function_nd$core_class$3$domain$$type_library$ 
06:0007B050 $function_nd$core_class$4$domain$$type_library$ 
06:0007B060 $function_nd$core_class$5$domain$$type_library$ 
06:0007B070 $function_nd$core_class$6$domain$$type_library$ 
06:0007B080 $function_nd$core_class$7$domain$$type_library$ 
06:0007B090 $function_nd$core_class$8$domain$$type_library$ 
06:0007B0A0 $function_nd$core_class$9$domain$$type_library$ 
06:0007B0B0 $function_nd$core_class$10$domain$$type_library$ 
06:0007B0C0 $function_nd$core_class$11$domain$$type_library$ 
06:0007B0D0 $predicate$core_class$0$domain$$type_library$ 
06:0007B0E0 $predicate$core_class$1$domain$$type_library$ 
06:0007B0F0 $predicate$core_class$2$domain$$type_library$ 
06:0007B100 $predicate$core_class$3$domain$$type_library$ 
06:0007B110 $predicate$core_class$4$domain$$type_library$ 
06:0007B120 $predicate$core_class$5$domain$$type_library$ 
06:0007B130 $predicate$core_class$6$domain$$type_library$ 
06:0007B140 $predicate$core_class$7$domain$$type_library$ 
06:0007B150 $predicate$core_class$8$domain$$type_library$ 
06:0007B160 $predicate$core_class$9$domain$$type_library$ 
06:0007B170 $predicate$core_class$10$domain$$type_library$ 
06:0007B180 $predicate_dt$core_class$0$domain$$type_library$ 
06:0007B190 $predicate_dt$core_class$1$domain$$type_library$ 
06:0007B1A0 $predicate_dt$core_class$2$domain$$type_library$ 
06:0007B1B0 $predicate_dt$core_class$3$domain$$type_library$ 
06:0007B1C0 $predicate_dt$core_class$4$domain$$type_library$ 
06:0007B1D0 $predicate_dt$core_class$5$domain$$type_library$ 
06:0007B1E0 $predicate_dt$core_class$6$domain$$type_library$ 
06:0007B1F0 $predicate_dt$core_class$7$domain$$type_library$ 
06:0007B200 $predicate_dt$core_class$8$domain$$type_library$ 
06:0007B210 $predicate_dt$core_class$9$domain$$type_library$ 
06:0007B220 $predicate_dt$core_class$10$domain$$type_library$ 
06:0007B230 $predicate_nd$core_class$0$domain$$type_library$ 
06:0007B240 $predicate_nd$core_class$1$domain$$type_library$ 
06:0007B250 $predicate_nd$core_class$2$domain$$type_library$ 
06:0007B260 $predicate_nd$core_class$3$domain$$type_library$ 
06:0007B270 $predicate_nd$core_class$4$domain$$type_library$ 
06:0007B280 $predicate_nd$core_class$5$domain$$type_library$ 
06:0007B290 $predicate_nd$core_class$6$domain$$type_library$ 
06:0007B2A0 $predicate_nd$core_class$7$domain$$type_library$ 
06:0007B2B0 $predicate_nd$core_class$8$domain$$type_library$ 
06:0007B2C0 $predicate_nd$core_class$9$domain$$type_library$ 
06:0007B2D0 $predicate_nd$core_class$10$domain$$type_library$ 
06:0007B2E0 $runnable$core_class$0$domain$$type_library$ 
06:0007B2F0 $comparator$core_class$1$domain$$type_library$ 
06:0007B300 $comparator$core_class$2$domain$$type_library$ 
06:0007B310 $sortOrder$core_class$0$domain$$type_library$ 
06:0007B320 $packedCursor$core_class$0$domain$$type_library$ 
--- From 'Obj\exceptiondump.2B9C9E40.obj'
06:0007B330 $programPoint$core_class$0$domain$$type_library$ 
--- From 'Obj\core.5D9B9483.obj'
06:0007B340 $allowBoolean$core_class$0$domain$$type_library$ 
06:0007B350 $defaultActionBoolean$core_class$0$domain$$type_library$ 
06:0007B360 $classInfo$core_class$0$domain$$type_library$ 
06:0007B370 $compareselect/1nf$1$core_implement$0$domain$$type_library$ 
--- From 'Obj\event.D92D3A63.obj'
06:0007B380 $$_arrowtype@_procedure_prolog_0$XXZ$event0_implement$0$domain$$event0_implement$0$domain$$type_library$ 
06:0007B390 $event7@objectDB$event7{@Type1,@Type2,@Type3,@Type4,@Type5,@Type6,@Type7}_implement$0$domain$$type_library$ 
06:0007B3A0 $event7$typeLibDB$event7{@Type1,@Type2,@Type3,@Type4,@Type5,@Type6,@Type7}_implement$0$domain$$type_library$ 
06:0007B3B0 $addlistener_once/1np$1$event7{@Type1,@Type2,@Type3,@Type4,@Type5,@Type6,@Type7}_implement$0$domain$$type_library$ 
06:0007B3C0 $addlistener_once/1np$2$event7{@Type1,@Type2,@Type3,@Type4,@Type5,@Type6,@Type7}_implement$0$domain$$type_library$ 
06:0007B3D0 $addlistener/2np0$1$event7{@Type1,@Type2,@Type3,@Type4,@Type5,@Type6,@Type7}_implement$0$domain$$type_library$ 
06:0007B3E0 $addlistener/2np1$1$event7{@Type1,@Type2,@Type3,@Type4,@Type5,@Type6,@Type7}_implement$0$domain$$type_library$ 
06:0007B3F0 $addlistener/2np2$1$event7{@Type1,@Type2,@Type3,@Type4,@Type5,@Type6,@Type7}_implement$0$domain$$type_library$ 
06:0007B400 $addlistener/2np3$1$event7{@Type1,@Type2,@Type3,@Type4,@Type5,@Type6,@Type7}_implement$0$domain$$type_library$ 
06:0007B410 $addlistener/2np4$1$event7{@Type1,@Type2,@Type3,@Type4,@Type5,@Type6,@Type7}_implement$0$domain$$type_library$ 
06:0007B420 $addlistener/2np5$1$event7{@Type1,@Type2,@Type3,@Type4,@Type5,@Type6,@Type7}_implement$0$domain$$type_library$ 
06:0007B430 $addlistener/2np6$1$event7{@Type1,@Type2,@Type3,@Type4,@Type5,@Type6,@Type7}_implement$0$domain$$type_library$ 
06:0007B440 $addlistener/2np7$1$event7{@Type1,@Type2,@Type3,@Type4,@Type5,@Type6,@Type7}_implement$0$domain$$type_library$ 
06:0007B450 $$_arrowtype@_procedure_prolog_28$XXXXXXXX@Z$event7{@Type1,@Type2,@Type3,@Type4,@Type5,@Type6,@Type7}_implement$0$domain$$event7{@Type1,@Type2,@Type3,@Type4,@Type5,@Type6,@Type7}_implement$0$domain$$type_library$ 
06:0007B460 $event6@objectDB$event6{@Type1,@Type2,@Type3,@Type4,@Type5,@Type6}_implement$0$domain$$type_library$ 
06:0007B470 $event6$typeLibDB$event6{@Type1,@Type2,@Type3,@Type4,@Type5,@Type6}_implement$0$domain$$type_library$ 
06:0007B480 $addlistener_once/1np$1$event6{@Type1,@Type2,@Type3,@Type4,@Type5,@Type6}_implement$0$domain$$type_library$ 
06:0007B490 $addlistener_once/1np$2$event6{@Type1,@Type2,@Type3,@Type4,@Type5,@Type6}_implement$0$domain$$type_library$ 
06:0007B4A0 $addlistener/2np0$1$event6{@Type1,@Type2,@Type3,@Type4,@Type5,@Type6}_implement$0$domain$$type_library$ 
06:0007B4B0 $addlistener/2np1$1$event6{@Type1,@Type2,@Type3,@Type4,@Type5,@Type6}_implement$0$domain$$type_library$ 
06:0007B4C0 $addlistener/2np2$1$event6{@Type1,@Type2,@Type3,@Type4,@Type5,@Type6}_implement$0$domain$$type_library$ 
06:0007B4D0 $addlistener/2np3$1$event6{@Type1,@Type2,@Type3,@Type4,@Type5,@Type6}_implement$0$domain$$type_library$ 
06:0007B4E0 $addlistener/2np4$1$event6{@Type1,@Type2,@Type3,@Type4,@Type5,@Type6}_implement$0$domain$$type_library$ 
06:0007B4F0 $addlistener/2np5$1$event6{@Type1,@Type2,@Type3,@Type4,@Type5,@Type6}_implement$0$domain$$type_library$ 
06:0007B500 $addlistener/2np6$1$event6{@Type1,@Type2,@Type3,@Type4,@Type5,@Type6}_implement$0$domain$$type_library$ 
06:0007B510 $$_arrowtype@_procedure_prolog_24$XXXXXXX@Z$event6{@Type1,@Type2,@Type3,@Type4,@Type5,@Type6}_implement$0$domain$$event6{@Type1,@Type2,@Type3,@Type4,@Type5,@Type6}_implement$0$domain$$type_library$ 
06:0007B520 $event5@objectDB$event5{@Type1,@Type2,@Type3,@Type4,@Type5}_implement$0$domain$$type_library$ 
06:0007B530 $event5$typeLibDB$event5{@Type1,@Type2,@Type3,@Type4,@Type5}_implement$0$domain$$type_library$ 
06:0007B540 $addlistener_once/1np$1$event5{@Type1,@Type2,@Type3,@Type4,@Type5}_implement$0$domain$$type_library$ 
06:0007B550 $addlistener_once/1np$2$event5{@Type1,@Type2,@Type3,@Type4,@Type5}_implement$0$domain$$type_library$ 
06:0007B560 $addlistener/2np0$1$event5{@Type1,@Type2,@Type3,@Type4,@Type5}_implement$0$domain$$type_library$ 
06:0007B570 $addlistener/2np1$1$event5{@Type1,@Type2,@Type3,@Type4,@Type5}_implement$0$domain$$type_library$ 
06:0007B580 $addlistener/2np2$1$event5{@Type1,@Type2,@Type3,@Type4,@Type5}_implement$0$domain$$type_library$ 
06:0007B590 $addlistener/2np3$1$event5{@Type1,@Type2,@Type3,@Type4,@Type5}_implement$0$domain$$type_library$ 
06:0007B5A0 $addlistener/2np4$1$event5{@Type1,@Type2,@Type3,@Type4,@Type5}_implement$0$domain$$type_library$ 
06:0007B5B0 $addlistener/2np5$1$event5{@Type1,@Type2,@Type3,@Type4,@Type5}_implement$0$domain$$type_library$ 
06:0007B5C0 $$_arrowtype@_procedure_prolog_20$XXXXXX@Z$event5{@Type1,@Type2,@Type3,@Type4,@Type5}_implement$0$domain$$event5{@Type1,@Type2,@Type3,@Type4,@Type5}_implement$0$domain$$type_library$ 
06:0007B5D0 $event4@objectDB$event4{@Type1,@Type2,@Type3,@Type4}_implement$0$domain$$type_library$ 
06:0007B5E0 $event4$typeLibDB$event4{@Type1,@Type2,@Type3,@Type4}_implement$0$domain$$type_library$ 
06:0007B5F0 $addlistener_once/1np$1$event4{@Type1,@Type2,@Type3,@Type4}_implement$0$domain$$type_library$ 
06:0007B600 $addlistener_once/1np$2$event4{@Type1,@Type2,@Type3,@Type4}_implement$0$domain$$type_library$ 
06:0007B610 $addlistener/2np0$1$event4{@Type1,@Type2,@Type3,@Type4}_implement$0$domain$$type_library$ 
06:0007B620 $addlistener/2np1$1$event4{@Type1,@Type2,@Type3,@Type4}_implement$0$domain$$type_library$ 
06:0007B630 $addlistener/2np2$1$event4{@Type1,@Type2,@Type3,@Type4}_implement$0$domain$$type_library$ 
06:0007B640 $addlistener/2np3$1$event4{@Type1,@Type2,@Type3,@Type4}_implement$0$domain$$type_library$ 
06:0007B650 $addlistener/2np4$1$event4{@Type1,@Type2,@Type3,@Type4}_implement$0$domain$$type_library$ 
06:0007B660 $addlistener/2np5$1$event4{@Type1,@Type2,@Type3,@Type4}_implement$0$domain$$type_library$ 
06:0007B670 $$_arrowtype@_procedure_prolog_16$XXXXX@Z$event4{@Type1,@Type2,@Type3,@Type4}_implement$0$domain$$event4{@Type1,@Type2,@Type3,@Type4}_implement$0$domain$$type_library$ 
06:0007B680 $event3@objectDB$event3{@Type1,@Type2,@Type3}_implement$0$domain$$type_library$ 
06:0007B690 $event3$typeLibDB$event3{@Type1,@Type2,@Type3}_implement$0$domain$$type_library$ 
06:0007B6A0 $addlistener_once/1np$1$event3{@Type1,@Type2,@Type3}_implement$0$domain$$type_library$ 
06:0007B6B0 $addlistener_once/1np$2$event3{@Type1,@Type2,@Type3}_implement$0$domain$$type_library$ 
06:0007B6C0 $addlistener/2np0$1$event3{@Type1,@Type2,@Type3}_implement$0$domain$$type_library$ 
06:0007B6D0 $addlistener/2np1$1$event3{@Type1,@Type2,@Type3}_implement$0$domain$$type_library$ 
06:0007B6E0 $addlistener/2np2$1$event3{@Type1,@Type2,@Type3}_implement$0$domain$$type_library$ 
06:0007B6F0 $addlistener/2np3$1$event3{@Type1,@Type2,@Type3}_implement$0$domain$$type_library$ 
06:0007B700 $addlistener/2np4$1$event3{@Type1,@Type2,@Type3}_implement$0$domain$$type_library$ 
06:0007B710 $addlistener/2np5$1$event3{@Type1,@Type2,@Type3}_implement$0$domain$$type_library$ 
06:0007B720 $$_arrowtype@_procedure_prolog_12$XXXX@Z$event3{@Type1,@Type2,@Type3}_implement$0$domain$$event3{@Type1,@Type2,@Type3}_implement$0$domain$$type_library$ 
06:0007B730 $event2@objectDB$event2{@Type1,@Type2}_implement$0$domain$$type_library$ 
06:0007B740 $event2$typeLibDB$event2{@Type1,@Type2}_implement$0$domain$$type_library$ 
06:0007B750 $addlistener_once/1np$1$event2{@Type1,@Type2}_implement$0$domain$$type_library$ 
06:0007B760 $addlistener_once/1np$2$event2{@Type1,@Type2}_implement$0$domain$$type_library$ 
06:0007B770 $addlistener/2np0$1$event2{@Type1,@Type2}_implement$0$domain$$type_library$ 
06:0007B780 $addlistener/2np1$1$event2{@Type1,@Type2}_implement$0$domain$$type_library$ 
06:0007B790 $addlistener/2np2$1$event2{@Type1,@Type2}_implement$0$domain$$type_library$ 
06:0007B7A0 $addlistener/2np3$1$event2{@Type1,@Type2}_implement$0$domain$$type_library$ 
06:0007B7B0 $addlistener/2np4$1$event2{@Type1,@Type2}_implement$0$domain$$type_library$ 
06:0007B7C0 $addlistener/2np5$1$event2{@Type1,@Type2}_implement$0$domain$$type_library$ 
06:0007B7D0 $$_arrowtype@_procedure_prolog_8$XXX@Z$event2{@Type1,@Type2}_implement$0$domain$$event2{@Type1,@Type2}_implement$0$domain$$type_library$ 
06:0007B7E0 $event1@objectDB$event1{@Type1}_implement$0$domain$$type_library$ 
06:0007B7F0 $event1$typeLibDB$event1{@Type1}_implement$0$domain$$type_library$ 
06:0007B800 $addlistener_once/1np$1$event1{@Type1}_implement$0$domain$$type_library$ 
06:0007B810 $addlistener_once/1np$2$event1{@Type1}_implement$0$domain$$type_library$ 
06:0007B820 $addlistener/2np0$1$event1{@Type1}_implement$0$domain$$type_library$ 
06:0007B830 $addlistener/2np1$1$event1{@Type1}_implement$0$domain$$type_library$ 
06:0007B840 $addlistener/2np2$1$event1{@Type1}_implement$0$domain$$type_library$ 
06:0007B850 $addlistener/2np3$1$event1{@Type1}_implement$0$domain$$type_library$ 
06:0007B860 $addlistener/2np4$1$event1{@Type1}_implement$0$domain$$type_library$ 
06:0007B870 $addlistener/2np5$1$event1{@Type1}_implement$0$domain$$type_library$ 
06:0007B880 $$_arrowtype@_procedure_prolog_4$XX@Z$event1{@Type1}_implement$0$domain$$event1{@Type1}_implement$0$domain$$type_library$ 
06:0007B890 $event0@objectDB$event0_implement$0$domain$$type_library$ 
06:0007B8A0 $addlistener_once/1np$2$event0_implement$0$domain$$type_library$ 
06:0007B8B0 $addlistener/2np0$1$event0_implement$0$domain$$type_library$ 
06:0007B8C0 $addlistener/2np1$1$event0_implement$0$domain$$type_library$ 
06:0007B8D0 $addlistener/2np2$1$event0_implement$0$domain$$type_library$ 
06:0007B8E0 $addlistener/2np3$1$event0_implement$0$domain$$type_library$ 
06:0007B8F0 $addlistener/2np4$1$event0_implement$0$domain$$type_library$ 
06:0007B900 $addlistener/2np5$1$event0_implement$0$domain$$type_library$ 
--- From 'Obj\exceptiondump.2B9C9E40.obj'
06:0007B910 $traceInfo$exception_class$0$domain$$type_library$ 
06:0007B920 $descriptor$exception_class$0$domain$$type_library$ 
06:0007B930 $*$_builtIn_class$1$domain$$type_library$1${typelib(class$core::namedValue{class$core::value$})$}$static$ 
--- From 'Obj\exception.B6F320E8.obj'
06:0007B940 $kind$exception_class$0$domain$$type_library$ 
06:0007B950 $programPointDescriptor$exception_class$0$domain$$type_library$ 
--- From 'Obj\exceptiondump.2B9C9E40.obj'
06:0007B960 $lineInfo$exception_class$0$domain$$type_library$ 
--- From 'Obj\exception.B6F320E8.obj'
06:0007B970 $raiser$exception_class$0$domain$$type_library$ 
06:0007B980 $errorDescriptorInformation@objectDB$errorDescriptorInformation_implement$0$domain$$type_library$ 
--- From 'Obj\exceptiondump.2B9C9E40.obj'
06:0007B990 $*$_builtIn_class$1$domain$$type_library$1${class$exception::descriptor$}$static$ 
06:0007B9A0 $*$_builtIn_class$1$domain$$type_library$1${class$exception::lineInfo$}$static$ 
--- From 'Obj\filesystem.5B0F823E.obj'
06:0007B9B0 $codePage$fileVersion_implement$0$domain$$type_library$ 
06:0007B9C0 $languagex$fileVersion_implement$0$domain$$type_library$ 
06:0007B9D0 $outputStream_file@objectDB$outputStream_file_implement$0$domain$$type_library$ 
06:0007B9E0 $messageFile@objectDB$messageFile_implement$0$domain$$type_library$ 
06:0007B9F0 $write/0ep$1$messageFile_implement$0$domain$$type_library$ 
06:0007BA00 $writef/1ep$1$messageFile_implement$0$domain$$type_library$ 
06:0007BA10 $writequoted/0ep$1$messageFile_implement$0$domain$$type_library$ 
06:0007BA20 $writebytes/2np$1$messageFile_implement$0$domain$$type_library$ 
06:0007BA30 $save/1np$1$messageFile_implement$0$domain$$type_library$ 
06:0007BA40 $present/0ep$1$messageFile_implement$0$domain$$type_library$ 
06:0007BA50 $inputStream_file@objectDB$inputStream_file_implement$0$domain$$type_library$ 
06:0007BA60 $versionInformation$fileVersion_class$0$domain$$type_library$ 
06:0007BA70 $fileVersionInformation$fileVersion_class$0$domain$$type_library$ 
06:0007BA80 $twoInt$fileVersion_implement$0$domain$$type_library$ 
06:0007BA90 $pTwoInt$fileVersion_implement$0$domain$$type_library$ 
06:0007BAA0 $vs_fixedfileinfo$fileVersion_implement$0$domain$$type_library$ 
06:0007BAB0 $pvs_fixedfileinfo$fileVersion_implement$0$domain$$type_library$ 
06:0007BAC0 $overwrite$file_class$0$domain$$type_library$ 
06:0007BAD0 $volumeType$directory_class$0$domain$$type_library$ 
--- From 'Obj\list.A75CEA31.obj'
06:0007BAE0 $comparelexically/1nf$1$list_implement$0$domain$$type_library$ 
06:0007BAF0 $comp2eq/1nf$1$list_implement$0$domain$$type_library$ 
06:0007BB00 $sortby/3nf$1$list_implement$0$domain$$type_library$ 
06:0007BB10 $sort/1$1$list_implement$0$domain$$type_library$ 
06:0007BB20 $sort/2nf$1$list_implement$0$domain$$type_library$ 
06:0007BB30 $removeConsecutiveDuplicates/1$1$list_implement$0$domain$$type_library$ 
06:0007BB40 $splitafter/2nf$1$list_implement$0$domain$$type_library$ 
06:0007BB50 $maximum/1$1$list_implement$0$domain$$type_library$ 
06:0007BB60 $minimumby/2nf$1$list_implement$0$domain$$type_library$ 
06:0007BB70 $minimum/1$1$list_implement$0$domain$$type_library$ 
06:0007BB80 $groupbyeq/2nf$1$list_implement$0$domain$$type_library$ 
06:0007BB90 $groupbycmp/2nf$1$list_implement$0$domain$$type_library$ 
06:0007BBA0 $foldr/3nf$1$list_implement$0$domain$$type_library$ 
--- From 'Obj\math.5D7D6037.obj'
06:0007BBB0 $inCircle$math_class$0$domain$$type_library$ 
06:0007BBC0 $aPeriod$math_class$0$domain$$type_library$ 
06:0007BBD0 $uReal$math_class$0$domain$$type_library$ 
--- From 'Obj\memory.568C55F8.obj'
06:0007BBE0 $pPointer$memory_class$0$domain$$type_library$ 
06:0007BBF0 $pInteger8$memory_class$0$domain$$type_library$ 
06:0007BC00 $pInteger16$memory_class$0$domain$$type_library$ 
06:0007BC10 $pInteger$memory_class$0$domain$$type_library$ 
06:0007BC20 $pInteger64$memory_class$0$domain$$type_library$ 
06:0007BC30 $contextMap$memory_class$0$domain$$type_library$ 
06:0007BC40 $memoryKind$memory_class$0$domain$$type_library$ 
06:0007BC50 $pBinary$memory_class$0$domain$$type_library$ 
06:0007BC60 $pBinaryNonAtomic$memory_class$0$domain$$type_library$ 
06:0007BC70 $pByteCount$memory_class$0$domain$$type_library$ 
06:0007BC80 $pChar$memory_class$0$domain$$type_library$ 
06:0007BC90 $pChar8$memory_class$0$domain$$type_library$ 
06:0007BCA0 $pCharCount$memory_class$0$domain$$type_library$ 
06:0007BCB0 $pHandle$memory_class$0$domain$$type_library$ 
06:0007BCC0 $pIntegerNative$memory_class$0$domain$$type_library$ 
06:0007BCD0 $pObject$memory_class$0$domain$$type_library$ 
06:0007BCE0 $pReal$memory_class$0$domain$$type_library$ 
06:0007BCF0 $pReal32$memory_class$0$domain$$type_library$ 
06:0007BD00 $pString$memory_class$0$domain$$type_library$ 
06:0007BD10 $pString8$memory_class$0$domain$$type_library$ 
06:0007BD20 $pUnsigned$memory_class$0$domain$$type_library$ 
06:0007BD30 $pUnsigned16$memory_class$0$domain$$type_library$ 
06:0007BD40 $pUnsigned64$memory_class$0$domain$$type_library$ 
06:0007BD50 $pUnsigned8$memory_class$0$domain$$type_library$ 
06:0007BD60 $pUnsignedNative$memory_class$0$domain$$type_library$ 
06:0007BD70 $unsigned4$bit_class$0$domain$$type_library$ 
--- From 'Obj\segmented.E9C86B20.obj'
06:0007BD80 $segmented$segmented_class$1$domain$$type_library$1${class$_builtIn::_someType$}$static$ 
06:0007BD90 $segmented_utf16$segmented_class$0$domain$$type_library$ 
06:0007BDA0 $mkfp_sub/2nf$1$segmented_implement$0$domain$$type_library$ 
061000:01ADB0 005180   VIPInter::VIPInter::.rdata F=4
--- From 'Obj\console.E8EB4F3C.obj'
06:0007BDB0 interface$iterator{@Elem} 
06:0007BE40 $iterator{@Elem}$_global_class$1$domain$ 
--- From 'Obj\exception.B6F320E8.obj'
06:0007BE70 interface$outputStream_binary 
06:0007BF10 $outputStream_binary$_global_class$0$domain$ 
--- From 'Obj\console.E8EB4F3C.obj'
06:0007BF50 interface$segmentedSupport{@Segment} 
06:0007C030 $segmentedSupport{@Segment}$_global_class$1$domain$ 
06:0007C070 interface$segmentedSupportSite{@Segment} 
06:0007C160 $segmentedSupportSite{@Segment}$_global_class$1$domain$ 
--- From 'Obj\event.D92D3A63.obj'
06:0007C1B0 interface$event0 
06:0007C220 $event0$_global_class$0$domain$ 
06:0007C250 $listener$event0_interface$0$domain$ 
06:0007C280 interface$event1{@Type1} 
06:0007C300 $event1{@Type1}$_global_class$1$domain$ 
06:0007C33C $listener$event1{@Type1}_interface$0$domain$ 
06:0007C370 interface$event2{@Type1,@Type2} 
06:0007C400 $event2{@Type1,@Type2}$_global_class$2$domain$ 
06:0007C448 $listener$event2{@Type1,@Type2}_interface$0$domain$ 
06:0007C480 interface$event3{@Type1,@Type2,@Type3} 
06:0007C510 $event3{@Type1,@Type2,@Type3}$_global_class$3$domain$ 
06:0007C564 $listener$event3{@Type1,@Type2,@Type3}_interface$0$domain$ 
06:0007C5A0 interface$event4{@Type1,@Type2,@Type3,@Type4} 
06:0007C640 $event4{@Type1,@Type2,@Type3,@Type4}$_global_class$4$domain$ 
06:0007C6A0 $listener$event4{@Type1,@Type2,@Type3,@Type4}_interface$0$domain$ 
06:0007C6E0 interface$event5{@Type1,@Type2,@Type3,@Type4,@Type5} 
06:0007C790 $event5{@Type1,@Type2,@Type3,@Type4,@Type5}$_global_class$5$domain$ 
06:0007C7FC $listener$event5{@Type1,@Type2,@Type3,@Type4,@Type5}_interface$0$domain$ 
06:0007C840 interface$event6{@Type1,@Type2,@Type3,@Type4,@Type5,@Type6} 
06:0007C900 $event6{@Type1,@Type2,@Type3,@Type4,@Type5,@Type6}$_global_class$6$domain$ 
06:0007C978 $listener$event6{@Type1,@Type2,@Type3,@Type4,@Type5,@Type6}_interface$0$domain$ 
06:0007C9C0 interface$event7{@Type1,@Type2,@Type3,@Type4,@Type5,@Type6,@Type7} 
06:0007CA90 $event7{@Type1,@Type2,@Type3,@Type4,@Type5,@Type6,@Type7}$_global_class$7$domain$ 
06:0007CB14 $listener$event7{@Type1,@Type2,@Type3,@Type4,@Type5,@Type6,@Type7}_interface$0$domain$ 
--- From 'Obj\varm.B882E173.obj'
06:0007CB60 interface$weakReference{@Type} 
06:0007CC10 $weakReference{@Type}$_global_class$1$domain$ 
--- From 'Obj\filesystem.5B0F823E.obj'
06:0007CC50 interface$object 
--- From 'Obj\exceptiondump.2B9C9E40.obj'
06:0007CC90 $object$_global_class$0$domain$ 
--- From 'Obj\event.D92D3A63.obj'
06:0007CCC0 interface$varM{@Term} 
06:0007CD50 $varM{@Term}$_global_class$1$domain$ 
06:0007CD80 interface$varM_boolean 
06:0007CE20 $varM_boolean$_global_class$0$domain$ 
06:0007CE60 interface$varM_integer 
06:0007CF00 $varM_integer$_global_class$0$domain$ 
06:0007CF40 interface$varM_lazy{@Term} 
06:0007CFE0 $varM_lazy{@Term}$_global_class$1$domain$ 
06:0007D010 interface$varM_optional{@Term} 
06:0007D0C0 $varM_optional{@Term}$_global_class$1$domain$ 
06:0007D100 interface$varM_unsigned 
06:0007D1A0 $varM_unsigned$_global_class$0$domain$ 
--- From 'Obj\exceptiondump.2B9C9E40.obj'
06:0007D1E0 interface$errorDescriptorInformation 
06:0007D2A0 $errorDescriptorInformation$_global_class$0$domain$ 
06:0007D2F0 interface$trapInformationObject 
06:0007D3A0 $trapInformationObject$_global_class$0$domain$ 
06:0007D3F0 interface$pfc\reflection\factDescriptor 
06:0007D4C0 $pfc\reflection\factDescriptor$_global_class$0$domain$ 
06:0007D520 interface$pfc\reflection\functorDescriptor 
06:0007D5F0 $pfc\reflection\functorDescriptor$_global_class$0$domain$ 
06:0007D67E $factRepresentationKind$pfc\reflection\functorDescriptor_interface$0$domain$ 
06:0007D7A0 interface$pfc\reflection\scopeDescriptor 
06:0007D870 $pfc\reflection\scopeDescriptor$_global_class$0$domain$ 
06:0007D8F2 $scopeKind$pfc\reflection\scopeDescriptor_interface$0$domain$ 
06:0007D990 interface$pfc\reflection\typeDescriptor 
06:0007DA60 $pfc\reflection\typeDescriptor$_global_class$0$domain$ 
06:0007DAC0 interface$pfc\reflection\typeLibrary 
06:0007DB80 $pfc\reflection\typeLibrary$_global_class$0$domain$ 
06:0007DBF4 $presenter$pfc\reflection\typeLibrary_interface$0$domain$ 
06:0007DC30 interface$pfc\reflection\typeLibrary_arrow 
06:0007DD00 $pfc\reflection\typeLibrary_arrow$_global_class$0$domain$ 
06:0007DD9C $formalParameter$pfc\reflection\typeLibrary_arrow_interface$0$domain$ 
06:0007DE74 $typePattern$pfc\reflection\typeLibrary_arrow_interface$0$domain$ 
06:0007DF00 interface$pfc\reflection\typeLibrary_functor 
06:0007DFE0 $pfc\reflection\typeLibrary_functor$_global_class$0$domain$ 
06:0007E040 interface$pfc\reflection\typeLibrary_numeric 
06:0007E120 $pfc\reflection\typeLibrary_numeric$_global_class$0$domain$ 
--- From 'Obj\filesystem.5B0F823E.obj'
06:0007E180 interface$bufferSupport 
--- From 'Obj\exceptiondump.2B9C9E40.obj'
06:0007E210 $bufferSupport$_global_class$0$domain$ 
--- From 'Obj\filesystem.5B0F823E.obj'
06:0007E250 interface$inputStream 
06:0007E2D0 $inputStream$_global_class$0$domain$ 
--- From 'Obj\exceptiondump.2B9C9E40.obj'
06:0007E300 interface$inputBuffer 
06:0007E3A0 $inputBuffer$_global_class$0$domain$ 
--- From 'Obj\filesystem.5B0F823E.obj'
06:0007E3D0 interface$inputSupport 
--- From 'Obj\exceptiondump.2B9C9E40.obj'
06:0007E480 $inputSupport$_global_class$0$domain$ 
--- From 'Obj\filesystem.5B0F823E.obj'
06:0007E4C0 interface$outputStream 
06:0007E540 $outputStream$_global_class$0$domain$ 
--- From 'Obj\exceptiondump.2B9C9E40.obj'
06:0007E58C $outputSerializer$outputStream_interface$0$domain$ 
06:0007E5D0 interface$outputStreamSegmented{@Segment} 
06:0007E690 $outputStreamSegmented{@Segment}$_global_class$1$domain$ 
06:0007E6E0 interface$stdioState 
06:0007E760 $stdioState$_global_class$0$domain$ 
--- From 'Obj\filesystem.5B0F823E.obj'
06:0007E790 interface$stream 
--- From 'Obj\exceptiondump.2B9C9E40.obj'
06:0007E800 $stream$_global_class$0$domain$ 
--- From 'Obj\filesystem.5B0F823E.obj'
06:0007E88C $mode$stream_interface$0$domain$ 
--- From 'Obj\exceptiondump.2B9C9E40.obj'
06:0007E8F0 interface$outputStream_string 
06:0007E990 $outputStream_string$_global_class$0$domain$ 
--- From 'Obj\event.D92D3A63.obj'
06:0007E9D0 interface$runtimeLinknamesKernel 
06:0007EA70 $runtimeLinknamesKernel$_global_class$0$domain$ 
06:0007EAC0 interface$runtimeLinkNamesRun 
06:0007EB50 $runtimeLinkNamesRun$_global_class$0$domain$ 
--- From 'Obj\filesystem.5B0F823E.obj'
06:0007EB90 interface$outputBuffer 
--- From 'Obj\console.E8EB4F3C.obj'
06:0007EC40 $outputBuffer$_global_class$0$domain$ 
06:0007EC80 interface$outputStreamSegmentedSupport{@Segment} 
06:0007ED80 $outputStreamSegmentedSupport{@Segment}$_global_class$1$domain$ 
--- From 'Obj\filesystem.5B0F823E.obj'
06:0007EDE0 interface$outputStreamSupport 
--- From 'Obj\console.E8EB4F3C.obj'
06:0007EEB0 $outputStreamSupport$_global_class$0$domain$ 
--- From 'Obj\filesystem.5B0F823E.obj'
06:0007EEF0 interface$outputStreamSupportSite 
--- From 'Obj\console.E8EB4F3C.obj'
06:0007EFD0 $outputStreamSupportSite$_global_class$0$domain$ 
--- From 'Obj\core.5D9B9483.obj'
06:0007F020 interface$calendarDuration 
06:0007F0B0 $calendarDuration$_global_class$0$domain$ 
06:0007F0F0 interface$duration 
06:0007F160 $duration$_global_class$0$domain$ 
06:0007F190 interface$gmtTime 
06:0007F200 $gmtTime$_global_class$0$domain$ 
06:0007F230 interface$timeInterval 
06:0007F2B0 $timeInterval$_global_class$0$domain$ 
06:0007F2F0 interface$calendarInterval 
06:0007F370 $calendarInterval$_global_class$0$domain$ 
06:0007F3B0 interface$time 
06:0007F410 $time$_global_class$0$domain$ 
06:0007F440 interface$timeFormatter 
06:0007F4C0 $timeFormatter$_global_class$0$domain$ 
--- From 'Obj\list.A75CEA31.obj'
06:0007F500 interface$collection{@Type} 
--- From 'Obj\collectionmsupport.3A44ED4E.obj'
06:0007F590 $collection{@Type}$_global_class$1$domain$ 
--- From 'Obj\arraym_inline.F665267A.obj'
06:0007F5C0 interface$arrayM_inline{@ItemType} 
06:0007F680 $arrayM_inline{@ItemType}$_global_class$1$domain$ 
--- From 'Obj\collectionmsupport.3A44ED4E.obj'
06:0007F6C0 interface$map{@Key,@Data} 
06:0007F740 $map{@Key,@Data}$_global_class$2$domain$ 
06:0007F760 interface$mapM{@Key,@Data} 
06:0007F7E0 $mapM{@Key,@Data}$_global_class$2$domain$ 
06:0007F810 interface$mapP{@Key,@Data} 
06:0007F890 $mapP{@Key,@Data}$_global_class$2$domain$ 
06:0007F8C0 interface$modifiable{@Type} 
06:0007F950 $modifiable{@Type}$_global_class$1$domain$ 
06:0007F980 interface$multiMapM{@Key,@Data} 
06:0007FA20 $multiMapM{@Key,@Data}$_global_class$2$domain$ 
06:0007FA50 interface$persistent{@Self,@Type} 
06:0007FAF0 $persistent{@Self,@Type}$_global_class$2$domain$ 
06:0007FB20 interface$queueM{@Type} 
06:0007FBA0 $queueM{@Type}$_global_class$1$domain$ 
06:0007FBD0 interface$queueP{@Type} 
06:0007FC50 $queueP{@Type}$_global_class$1$domain$ 
06:0007FC80 interface$set{@Type} 
06:0007FCF0 $set{@Type}$_global_class$1$domain$ 
06:0007FD10 interface$setM{@Type} 
06:0007FD90 $setM{@Type}$_global_class$1$domain$ 
06:0007FDC0 interface$setP{@Type} 
06:0007FE40 $setP{@Type}$_global_class$1$domain$ 
--- From 'Obj\filesystem.5B0F823E.obj'
06:0007FE70 interface$iStream_native 
06:0007FF30 $iStream_native$_global_class$0$domain$ 
06:0007FF70 interface$iUnknown 
06:00080020 $iUnknown$_global_class$0$domain$ 
--- From 'Obj\mapmsupport.8CD6C048.obj'
06:00080050 interface$collectionSupport\mapMSupport{@Key,@Data} 
06:00080140 $collectionSupport\mapMSupport{@Key,@Data}$_global_class$2$domain$ 
06:000801A0 interface$collectionSupport\mapMSupportSite{@Key,@Data} 
06:000802A0 $collectionSupport\mapMSupportSite{@Key,@Data}$_global_class$2$domain$ 
--- From 'Obj\mapsupport.C7248B7B.obj'
06:00080300 interface$collectionSupport\collectionSupport{@Type} 
--- From 'Obj\collectionsupport.A039CC0D.obj'
06:00080400 $collectionSupport\collectionSupport{@Type}$_global_class$1$domain$ 
--- From 'Obj\mapsupport.C7248B7B.obj'
06:00080460 interface$collectionSupport\collectionSupportSite{@Type} 
--- From 'Obj\collectionsupport.A039CC0D.obj'
06:00080570 $collectionSupport\collectionSupportSite{@Type}$_global_class$1$domain$ 
--- From 'Obj\mapsupport.C7248B7B.obj'
06:000805E0 interface$collectionSupport\mapSupport{@Key,@Data} 
06:000806C0 $collectionSupport\mapSupport{@Key,@Data}$_global_class$2$domain$ 
--- From 'Obj\mapmsupport.8CD6C048.obj'
06:00080720 interface$collectionSupport\mapSupportSite{@Key,@Data} 
--- From 'Obj\mapsupport.C7248B7B.obj'
06:00080810 $collectionSupport\mapSupportSite{@Key,@Data}$_global_class$2$domain$ 
--- From 'Obj\modifiablesupport.5D48FFF1.obj'
06:00080870 interface$collectionSupport\modifiableSupport{@Type} 
06:00080970 $collectionSupport\modifiableSupport{@Type}$_global_class$1$domain$ 
--- From 'Obj\mapmsupport.8CD6C048.obj'
06:000809D0 interface$collectionSupport\modifiableSupportSite{@Type} 
--- From 'Obj\modifiablesupport.5D48FFF1.obj'
06:00080AE0 $collectionSupport\modifiableSupportSite{@Type}$_global_class$1$domain$ 
--- From 'Obj\collectionmsupport.3A44ED4E.obj'
06:00080B50 interface$collectionSupport\collectionMsupport{@Type} 
06:00080C60 $collectionSupport\collectionMsupport{@Type}$_global_class$1$domain$ 
06:00080CD0 interface$collectionSupport\collectionMsupportSite{@Type} 
06:00080DF0 $collectionSupport\collectionMsupportSite{@Type}$_global_class$1$domain$ 
--- From 'Obj\core.5D9B9483.obj'
06:00080E60 interface$resourceIdentifiers 
06:00080EF0 $resourceIdentifiers$_global_class$0$domain$ 
061000:01FF30 022FB0   VIPClass::VIPClass::.rdata F=4
--- From 'Obj\segmented_binary.C16992E7.obj'
06:00080F30 class$segmented_binary 
06:00080FAC class$segmented_binary$vtable$ 
--- From 'Obj\segmented_utf16.76E668A2.obj'
06:000810E0 class$segmented_utf16 
06:0008115C class$segmented_utf16$vtable$ 
--- From 'Obj\segmentedsupport.2BAFE67D.obj'
06:00081280 class$segmentedSupport{@Segment} 
06:00081334 class$segmentedSupport{@Segment}$vtable$ 
06:000814E0 class$segmentedIterator{@Segment} 
06:00081650 class$segmentedIterator{@Segment}$vtable$ 
--- From 'Obj\weakreference.0A1AF11C.obj'
06:00081820 class$weakReference{@Type} 
06:000818EC class$weakReference{@Type}$vtable$ 
--- From 'Obj\namedvalue.6D52B2A6.obj'
06:00081A50 class$namedValue 
--- From 'Obj\presenter.E6E77556.obj'
06:00081AD0 class$presenter 
06:00081B18 $presenter$presenter_class$1$domain$ 
06:00081B44 $presenter$presenter_class$0$domain$ 
--- From 'Obj\exceptiondump.2B9C9E40.obj'
06:00081C74 $presentation$presenter_class$0$domain$ 
--- From 'Obj\presenter.E6E77556.obj'
06:00081D0C $subPresenter$presenter_class$0$domain$ 
06:00081D3C $sequencePresenter$presenter_class$0$domain$ 
--- From 'Obj\segmented.E9C86B20.obj'
06:00081E0C $fieldPresentation$presenter_class$0$domain$ 
06:00081E8C $subPresentation$presenter_class$1$domain$ 
--- From 'Obj\presenter.E6E77556.obj'
06:00081EBC $fieldPresenter$presenter_class$0$domain$ 
06:00081F0C $functorDescr$presenter_class$0$domain$ 
--- From 'Obj\programcontrol.2B27F1CB.obj'
06:00082460 class$programControl 
06:0008249C $exceptionRaiser$programControl_class$0$domain$ 
--- From 'Obj\reflection.ACE59E5C.obj'
06:00082590 class$pfc\reflection\reflection_native 
06:000825EC $anyTermValue$pfc\reflection\reflection_native_class$0$domain$ 
06:00082638 $factDbValue$pfc\reflection\reflection_native_class$0$domain$ 
06:00082684 $prologPredicateValue$pfc\reflection\reflection_native_class$0$domain$ 
06:000826E0 $presenterDescriptor$pfc\reflection\reflection_native_class$0$domain$ 
06:00082764 $predicateOrFunctionCallDescriptor$pfc\reflection\reflection_native_class$0$domain$ 
06:000827BE $returnKind$pfc\reflection\reflection_native_class$0$domain$ 
06:00082828 $viewDescriptor$pfc\reflection\reflection_native_class$0$domain$ 
06:0008287C $viewDescriptorTableHeader$pfc\reflection\reflection_native_class$0$domain$ 
06:00082904 $objectStructure$pfc\reflection\reflection_native_class$0$domain$ 
06:00082B90 class$pfc\reflection\reflection 
--- From 'Obj\arraym_inline.F665267A.obj'
06:00082CDE $typeKind$pfc\reflection\reflection_class$0$domain$ 
--- From 'Obj\reflection.ACE59E5C.obj'
06:00082D9E $predicateMode$pfc\reflection\reflection_class$0$domain$ 
06:00082DD0 $functor$pfc\reflection\reflection_class$0$domain$ 
06:00082E36 $callingConvention$pfc\reflection\reflection_class$0$domain$ 
06:00082E8A $argumentFlow$pfc\reflection\reflection_class$0$domain$ 
--- From 'Obj\registry.917E8C91.obj'
06:000833A0 class$registry_exception 
06:00083440 class$registry 
06:000834C2 $rootKey$registry_class$0$domain$ 
06:0008351A $registryView$registry_class$0$domain$ 
--- From 'Obj\std.2DE0EC97.obj'
06:000836B0 class$std 
--- From 'Obj\filesystem.5B0F823E.obj'
06:00083780 class$inputSupport 
06:00083854 class$inputSupport$vtable$ 
06:000839D8 class$outputStreamSupport 
06:00083B44 class$outputStreamSupport$vtable$ 
--- From 'Obj\binary.248EF86D.obj'
06:00083E20 class$outputStreamSegmentedSupport{@Segment} 
06:00084208 class$outputStreamSegmentedSupport{@Segment}$vtable$ 
--- From 'Obj\stream.8B55AAA7.obj'
06:00084560 class$stream_exception 
06:000845F0 class$stdioState 
06:000846A4 class$stdioState$vtable$ 
06:000847E0 class$stdio 
06:000848B0 class$outputStream_null 
06:00084924 class$outputStream_null$vtable$ 
06:00084A60 class$inputStream_null 
06:00084AD4 class$inputStream_null$vtable$ 
--- From 'Obj\string.19AABD3B.obj'
06:00084C20 class$string_exception 
06:00084CB0 class$string 
06:00084D02 $caseSensitivity$string_class$0$domain$ 
06:00084D4A $adjustBehaviour$string_class$0$domain$ 
06:00084D86 $adjustSide$string_class$0$domain$ 
06:00084F50 class$outputStream_string 
06:000856E8 class$outputStream_string$vtable$  (Idle)
06:00085BF0 class$inputStream_string 
06:00085FA8 class$inputStream_string$vtable$  (Idle)
--- From 'Obj\string8.355639C6.obj'
06:00086200 class$string8 
--- From 'Obj\time.6AFD2988.obj'
06:00086270 class$timeFormatter 
06:0008650C class$timeFormatter$vtable$ 
06:00086860 class$time_exception 
06:000868F0 class$time 
06:0008692C $gmtTimeFunction$time_class$0$domain$ 
06:00086A2C class$time$vtable$ 
06:00086C80 class$gmtTime 
06:00086CBC $gmtTimeFunction$gmtTime_class$0$domain$ 
06:000873D4 class$gmtTime$vtable$  (Idle)
06:00087650 class$duration 
06:000876C4 class$duration$vtable$ 
06:000877A0 class$calendarDuration 
06:000878B4 class$calendarDuration$vtable$ 
--- From 'Obj\vpidomains.E7102A6D.obj'
06:000879F0 class$vpiOwnerDraw 
06:00087A80 class$vpiDomains 
--- From 'Obj\gui_api.9FE53D0D.obj'
06:00087ADC $pnt$vpiDomains_class$0$domain$ 
06:00087B38 $rct$vpiDomains_class$0$domain$ 
--- From 'Obj\vpidomains.E7102A6D.obj'
06:00087B84 $brush$vpiDomains_class$0$domain$ 
06:00087BD8 $pen$vpiDomains_class$0$domain$ 
06:00087C4C $drawtools$vpiDomains_class$0$domain$ 
06:00087CD8 $menu$vpiDomains_class$0$domain$ 
06:00087D00 $keyModifier$vpiDomains_class$0$domain$ 
06:00087D64 $acceleratorKey$vpiDomains_class$0$domain$ 
06:00087E58 $menuItem$vpiDomains_class$0$domain$ 
06:0008846C $event$vpiDomains_class$0$domain$ 
06:000885D0 $controlInfo$vpiDomains_class$0$domain$ 
06:000886AC $stateInfo$vpiDomains_class$0$domain$ 
06:000888E0 $windef$vpiDomains_class$0$domain$ 
06:00088958 $wdef$vpiDomains_class$0$domain$ 
06:00088990 $errhandler$vpiDomains_class$0$domain$ 
06:000889D4 $eHandler$vpiDomains_class$0$domain$ 
06:00088A2C $accelerator$vpiDomains_class$0$domain$ 
06:00088AD0 $bitmapId$vpiDomains_class$0$domain$ 
06:00088B24 $ddeserviceInfo$vpiDomains_class$0$domain$ 
06:00088BD0 $ddedata$vpiDomains_class$0$domain$ 
06:00088E54 $ddeevent$vpiDomains_class$0$domain$ 
06:00088EC6 $alignment$vpiDomains_class$0$domain$ 
06:00088F1A $ellipsis$vpiDomains_class$0$domain$ 
--- From 'Obj\console_api.1787DB80.obj'
06:00089830 class$console_native 
06:00089898 $coord$console_native_class$0$domain$ 
--- From 'Obj\console.E8EB4F3C.obj'
06:0008992C $consoleScreenBufferInfo$console_native_class$0$domain$ 
--- From 'Obj\console_api.1787DB80.obj'
06:00089984 $char_info$console_native_class$0$domain$ 
06:000899F0 $small_rect$console_native_class$0$domain$ 
06:00089A70 $key_event_record$console_native_class$0$domain$ 
06:00089AE4 $mouse_event_record$console_native_class$0$domain$ 
06:00089B1C $handlerRoutine$console_native_class$0$domain$ 
06:00089CB0 class$console_api 
--- From 'Obj\exe_api.026B8342.obj'
06:00089D50 class$exe_native 
06:00089DE0 class$exe_api 
06:00089E32 $runMode$exe_api_class$0$domain$ 
06:00089E86 $coInit$exe_api_class$0$domain$ 
--- From 'Obj\filesystem_api.C5B8AF1A.obj'
06:00089FC0 class$lZ_fileSystem_native 
06:0008A050 $ofStruct$lZ_fileSystem_native_class$0$domain$ 
06:0008A120 class$fileSystem_native 
06:0008A1F0 $fileInfo$fileSystem_native_class$0$domain$ 
--- From 'Obj\filesystem.5B0F823E.obj'
06:0008A288 $fileAttributesInfo$fileSystem_native_class$0$domain$ 
06:0008A358 $win32_find_data$fileSystem_native_class$0$domain$ 
--- From 'Obj\filesystem_api.C5B8AF1A.obj'
06:0008A466 $file_info_by_handle_class$fileSystem_native_class$0$domain$ 
06:0008A4F4 $fileIOCompletionRoutine$fileSystem_native_class$0$domain$ 
06:0008A55E $fileAction$fileSystem_native_class$0$domain$ 
06:0008A5E4 $file_notify_information$fileSystem_native_class$0$domain$ 
06:0008A648 $overlapped$fileSystem_native_class$0$domain$ 
06:0008A770 $openFilename$fileSystem_native_class$0$domain$ 
06:0008A7C0 $oFNHookProc$fileSystem_native_class$0$domain$ 
06:0008A814 $uSE_INFO_0$fileSystem_native_class$0$domain$ 
06:0008A848 $$inline_260$fileSystem_native_class$1$domain$ 
06:0008A87C $$inline_14$fileSystem_native_class$1$domain$ 
06:0008AF00 class$fileSystem_api 
06:0008AF9A $fileAttributeAtom$fileSystem_api_class$0$domain$ 
06:0008B006 $accessPermit$fileSystem_api_class$0$domain$ 
--- From 'Obj\gui_api.9FE53D0D.obj'
06:0008B400 class$gui_native 
06:0008B4E8 $logfont$gui_native_class$0$domain$ 
06:0008B544 $mouseMovePoint$gui_native_class$0$domain$ 
06:0008B588 $enumDesktopProc$gui_native_class$0$domain$ 
06:0008B5D0 $enumWindowStationProc$gui_native_class$0$domain$ 
06:0008B628 $copyDataStruct$gui_native_class$0$domain$ 
06:0008B684 $trackMouseEvent$gui_native_class$0$domain$ 
06:0008B70C $msg$gui_native_class$0$domain$ 
06:0008B75C $sendAsyncProc$gui_native_class$0$domain$ 
06:0008B7C0 $wndProc$gui_native_class$0$domain$ 
06:0008B868 $wndClassEx$gui_native_class$0$domain$ 
06:0008B904 $createstruct$gui_native_class$0$domain$ 
06:0008B968 $flashInfo$gui_native_class$0$domain$ 
06:0008B9DC $windowPos$gui_native_class$0$domain$ 
06:0008BA74 $windowPlacement$gui_native_class$0$domain$ 
06:0008BB2C $windowInfo$gui_native_class$0$domain$ 
06:0008BBA8 $monitorInfo$gui_native_class$0$domain$ 
06:0008BC34 $monitorInfoEx$gui_native_class$0$domain$ 
06:0008BC90 $monitorEnumProc$gui_native_class$0$domain$ 
06:0008BD24 $dlgTemplate$gui_native_class$0$domain$ 
06:0008BDAC $dlgItemTemplate$gui_native_class$0$domain$ 
06:0008BEB4 $dlgTemplateEx$gui_native_class$0$domain$ 
06:0008BF04 $timerProc$gui_native_class$0$domain$ 
06:0008BF6C $accel$gui_native_class$0$domain$ 
06:0008C008 $menuItemInfo$gui_native_class$0$domain$ 
06:0008C06C $drawTextParams$gui_native_class$0$domain$ 
06:0008C0BC $grayStringProc$gui_native_class$0$domain$ 
06:0008C12C $drawStateProc$gui_native_class$0$domain$ 
06:0008C188 $size$gui_native_class$0$domain$ 
06:0008C294 $textmetric$gui_native_class$0$domain$ 
06:0008C324 $paintStruct$gui_native_class$0$domain$ 
06:0008C344 $scrollBar$gui_native_class$0$domain$ 
06:0008C3A0 $propEnumProc$gui_native_class$0$domain$ 
06:0008C434 $helpInfo$gui_native_class$0$domain$ 
06:0008C478 $wndEnumProc$gui_native_class$0$domain$ 
06:0008C4BE $gaFlags$gui_native_class$0$domain$ 
06:0008C514 $hookProc$gui_native_class$0$domain$ 
06:0008C580 $kbdllhookstruct$gui_native_class$0$domain$ 
06:0008C5E4 $iconInfo$gui_native_class$0$domain$ 
06:0008C64C $buttonImageList$gui_native_class$0$domain$ 
06:0008C66C $button_imageList_align$gui_native_class$0$domain$ 
06:0008C6CC $nmBcHotItem$gui_native_class$0$domain$ 
06:0008C740 $button_splitInfo$gui_native_class$0$domain$ 
06:0008C7A8 $nmBcDropdown$gui_native_class$0$domain$ 
06:0008C7FC $nmhdr$gui_native_class$0$domain$ 
06:0008C894 $nmCustomDraw$gui_native_class$0$domain$ 
06:0008C908 $scrollInfo$gui_native_class$0$domain$ 
06:0008C9CC $scrollBarInfo$gui_native_class$0$domain$ 
06:0008CA20 $logbrush$gui_native_class$0$domain$ 
06:0008CA94 $tcItem$gui_native_class$0$domain$ 
06:0008CAE0 $tagInitCommonControlsEx$gui_native_class$0$domain$ 
06:0008CB38 $logPalette$gui_native_class$0$domain$ 
06:0008CBA4 $mouseInput$gui_native_class$0$domain$ 
06:0008CC18 $keybdInput$gui_native_class$0$domain$ 
06:0008CC78 $hardwareInput$gui_native_class$0$domain$ 
06:0008CC98 $inputUnion$gui_native_class$0$domain$ 
06:0008CCFC $input$gui_native_class$0$domain$ 
06:0008CDA0 $toolinfo$gui_native_class$0$domain$ 
06:0008CE30 $nmttdispInfo$gui_native_class$0$domain$ 
06:0008CE9C $blendFunction$gui_native_class$0$domain$ 
06:0008CF50 $chooseFont$gui_native_class$0$domain$ 
06:0008D050 $printdlg$gui_native_class$0$domain$ 
06:0008D134 $printdlgEx$gui_native_class$0$domain$ 
06:0008D178 $inputUnion_mi$gui_native_class$0$domain$ 
06:0008D1BC $inputUnion_ki$gui_native_class$0$domain$ 
06:0008D200 $inputUnion_hi$gui_native_class$0$domain$ 
06:0008D234 $$inline_32$gui_native_class$1$domain$ 
06:0008D268 $$inline_256$gui_native_class$1$domain$ 
06:0008D29C $$inline_80$gui_native_class$1$domain$ 
06:0008DA20 class$gui_api 
06:0008DA94 $scrollInfo$gui_api_class$0$domain$ 
06:0008DAF8 $scrollBarInfo$gui_api_class$0$domain$ 
06:0008DB64 $scrollBarInfoRgState$gui_api_class$0$domain$ 
06:0008DBC8 $windowPlacement$gui_api_class$0$domain$ 
06:0008DC94 $dlgTemplate$gui_api_class$0$domain$ 
06:0008DD04 $varArray$gui_api_class$0$domain$ 
06:0008DDBC $dlgItemTemplate$gui_api_class$0$domain$ 
06:0008DE18 $monitorInfo$gui_api_class$0$domain$ 
--- From 'Obj\hash_api.96B8CAEE.obj'
06:0008E010 class$hash_native 
--- From 'Obj\locale_api.2E000328.obj'
06:0008E0B0 class$locale_native 
06:0008E0F8 $stdBoolFunc$locale_native_class$1$domain$ 
06:0008E13C $stdBoolFunc$locale_native_class$2$domain$ 
06:0008E19C $stdBoolFunc$locale_native_class$4$domain$ 
06:0008E210 $stdBoolFunc$locale_native_class$5$domain$ 
06:0008E28C $numberfmt$locale_native_class$0$domain$ 
06:0008E350 class$locale_api 
--- From 'Obj\memory_api.EF10D306.obj'
06:0008E3F0 class$memory_native 
06:0008E474 $memory_basic_information$memory_native_class$0$domain$ 
06:0008E510 $memoryStatusEx$memory_native_class$0$domain$ 
06:0008E59C $process_memory_counters$memory_native_class$0$domain$ 
06:0008E6B0 class$memory_api 
--- From 'Obj\multithread_api.57E3A62D.obj'
06:0008E750 class$multiThread_native 
06:0008E7A4 $timerAPCProc$multiThread_native_class$0$domain$ 
06:0008E8A0 $startupInfo$multiThread_native_class$0$domain$ 
06:0008E8FC $processInformation$multiThread_native_class$0$domain$ 
06:0008E934 $threadRunnable$multiThread_native_class$0$domain$ 
06:0008E9A0 $critical_section$multiThread_native_class$0$domain$ 
06:0008E9F8 $m128A$multiThread_native_class$0$domain$ 
06:0008EA78 $selectorEntry$multiThread_native_class$0$domain$ 
06:0008EAEC $cache_descriptor$multiThread_native_class$0$domain$ 
06:0008EB6C $system_logical_processor_information$multiThread_native_class$0$domain$ 
06:0008EB98 $apcProc$multiThread_native_class$0$domain$ 
06:0008ED80 class$multiThread_api 
--- From 'Obj\registry_api.CF388C66.obj'
06:0008F020 class$registry_native 
06:0008F084 $securityAttr$registry_native_class$0$domain$ 
06:0008F140 class$registry_api 
--- From 'Obj\runtime_api.B1A642EC.obj'
06:0008F1F0 class$runtime_api 
--- From 'Obj\shell_api.E8D4E14B.obj'
06:0008F290 class$shell_native 
06:0008F354 $shellExecuteInfo$shell_native_class$0$domain$ 
06:0008F3DC $appBarData$shell_native_class$0$domain$ 
--- From 'Obj\filesystem.5B0F823E.obj'
06:0008F458 $shFileOpStruct$shell_native_class$0$domain$ 
--- From 'Obj\shell_api.E8D4E14B.obj'
06:0008F4B4 $sHNameMapping$shell_native_class$0$domain$ 
06:0008F514 $shQueryRBinfo$shell_native_class$0$domain$ 
06:0008F60C $notifyIcondata$shell_native_class$0$domain$ 
06:0008F690 $sHFileInfo$shell_native_class$0$domain$ 
06:0008F70C $browseinfo$shell_native_class$0$domain$ 
06:0008F768 $browseCallbackProc$shell_native_class$0$domain$ 
06:0008F7F2 $shard$shell_native_class$0$domain$ 
06:0008F840 $$inline_128$shell_native_class$1$domain$ 
06:0008F874 $$inline_256$shell_native_class$1$domain$ 
06:0008F8A8 $$inline_64$shell_native_class$1$domain$ 
06:0008F8DC $$inline_260$shell_native_class$1$domain$ 
06:0008F910 $$inline_80$shell_native_class$1$domain$ 
06:0008FC10 class$shell_api 
--- From 'Obj\string_api.2E13EA53.obj'
06:0008FCA0 class$string_native 
--- From 'Obj\string8_api.53D65538.obj'
06:0008FD50 class$string8_native 
06:0008FE00 class$string8_api 
--- From 'Obj\systeminformation_api.809129C1.obj'
06:0008FEA0 class$systemInformation_native 
06:0008FF60 $system_Info$systemInformation_native_class$0$domain$ 
06:0008FFE8 $osVersionInfo$systemInformation_native_class$0$domain$ 
06:000900A0 $osVersionInfoEX$systemInformation_native_class$0$domain$ 
06:000901A0 $nonclientMetricsXP$systemInformation_native_class$0$domain$ 
06:000902AC $nonclientMetrics$systemInformation_native_class$0$domain$ 
06:000902E0 $$inline_128$systemInformation_native_class$1$domain$ 
06:00090470 class$systemInformation_api 
--- From 'Obj\time_api.32F5932A.obj'
06:000905E0 class$time_native 
06:00090684 $systemTime$time_native_class$0$domain$ 
06:00090748 $timeZoneAPI$time_native_class$0$domain$ 
06:000907F0 $time_zone_information$time_native_class$0$domain$ 
06:0009083C $fileTime$time_native_class$0$domain$ 
06:000908C0 $reg_tzi_format$time_native_class$0$domain$ 
06:0009090C $lastInputInfo$time_native_class$0$domain$ 
06:00090940 $$inline_32$time_native_class$1$domain$ 
06:00090974 $$inline_128$time_native_class$1$domain$ 
06:00090AD0 class$time_api 
--- From 'Obj\windowsapi.FC171F8F.obj'
06:00090CC0 class$windowsAPI 
06:00090D58 $security_descriptor$windowsAPI_class$0$domain$ 
06:00090DCC $acl$windowsAPI_class$0$domain$ 
06:00090E20 $security_attributes$windowsAPI_class$0$domain$ 
--- From 'Obj\winerrors.9B153E38.obj'
06:00090EF0 class$winErrors 
--- From 'Obj\main.789E136F.obj'
06:00090F80 class$_builtIn 
--- From 'Obj\list.A75CEA31.obj'
06:00090FB0 $integer$_builtIn_class$0$domain$ 
--- From 'Obj\segmented.E9C86B20.obj'
06:00090FD0 $unsigned$_builtIn_class$0$domain$ 
--- From 'Obj\math.5D7D6037.obj'
06:00090FF0 $real$_builtIn_class$0$domain$ 
06:0009101C $real32$_builtIn_class$0$domain$ 
--- From 'Obj\main.789E136F.obj'
06:00091048 $$byte$_builtIn_class$0$domain$ 
--- From 'Obj\segmented.E9C86B20.obj'
06:00091068 $string$_builtIn_class$0$domain$ 
--- From 'Obj\main.789E136F.obj'
06:0009107C $symbol$_builtIn_class$0$domain$ 
--- From 'Obj\exceptiondump.2B9C9E40.obj'
06:00091090 $string8$_builtIn_class$0$domain$ 
06:000910A4 $char$_builtIn_class$0$domain$ 
06:000910B8 $binary$_builtIn_class$0$domain$ 
06:000910D0 $binaryNonAtomic$_builtIn_class$0$domain$ 
--- From 'Obj\memory.568C55F8.obj'
06:000910E8 $pointer$_builtIn_class$0$domain$ 
--- From 'Obj\filesystem.5B0F823E.obj'
06:000910FC $handle$_builtIn_class$0$domain$ 
--- From 'Obj\main.789E136F.obj'
06:00091110 $factdb$_builtIn_class$0$domain$ 
06:00091124 $...$_builtIn_class$0$domain$ 
--- From 'Obj\exceptiondump.2B9C9E40.obj'
06:00091138 $integer64$_builtIn_class$0$domain$ 
06:00091160 $unsigned64$_builtIn_class$0$domain$ 
--- From 'Obj\main.789E136F.obj'
06:00091188 $any$_builtIn_class$0$domain$ 
06:0009119C $integerNative$_builtIn_class$0$domain$ 
--- From 'Obj\exception.B6F320E8.obj'
06:000911BC $unsignedNative$_builtIn_class$0$domain$ 
--- From 'Obj\memory.568C55F8.obj'
06:00091214 $*$_builtIn_class$1$domain$ 
--- From 'Obj\segmented.E9C86B20.obj'
06:00091248 $_someType$_builtIn_class$0$domain$ 
--- From 'Obj\exceptiondump.2B9C9E40.obj'
06:0009127E $boolean$_builtIn_class$0$domain$ 
--- From 'Obj\core.5D9B9483.obj'
06:000912C2 $compareResult$_builtIn_class$0$domain$ 
--- From 'Obj\main.789E136F.obj'
06:000912FC $$inline_1$_builtIn_class$1$domain$ 
--- From 'Obj\filesystem.5B0F823E.obj'
06:00091540 class$_global 
--- From 'Obj\main.789E136F.obj'
06:00091580 class$contain 
06:000915E0 class$main 
--- From 'Obj\exe.D80FC844.obj'
06:00091630 class$mainExe 
--- From 'Obj\iterator.60C55021.obj'
06:00091760 class$iterator{@Elem} 
06:000918B4 class$iterator{@Elem}$vtable$ 
--- From 'Obj\binary.248EF86D.obj'
06:00091A60 class$outputStream_binary 
06:00091F34 class$outputStream_binary$vtable$  (Idle)
06:00092180 class$inputStream_binary 
06:00092540 class$inputStream_binary$vtable$  (Idle)
06:000927A0 class$binary_exception 
06:00092830 class$binary 
--- From 'Obj\boolean.DE5055E8.obj'
06:000928A0 class$boolean 
--- From 'Obj\redblackset.DC1C3622.obj'
06:00092910 class$redBlackSet 
--- From 'Obj\setm_redblack.16EF8DC5.obj'
06:0009297C $set$redBlackSet_class$1$domain$ 
--- From 'Obj\redblackset.DC1C3622.obj'
06:00092A2C $setRep$redBlackSet_class$1$domain$ 
--- From 'Obj\redblacktree.401E21A0.obj'
06:00092C10 class$redBlackTree 
--- From 'Obj\mapm_redblack.875A0474.obj'
06:00092C80 $tree$redBlackTree_class$2$domain$ 
--- From 'Obj\redblacktreerep.E6A269FA.obj'
06:00092E10 class$redBlackTreeRep 
06:00092EE0 $treeRep$redBlackTreeRep_class$2$domain$ 
06:00092F2A $uniqueKey$redBlackTreeRep_class$0$domain$ 
06:00092F84 $treeProperty$redBlackTreeRep_class$1$domain$ 
--- From 'Obj\arraym_inline.F665267A.obj'
06:000931A0 class$arrayM_inlineValue{@ItemType} 
06:00093804 class$arrayM_inlineValue{@ItemType}$vtable$  (Idle)
06:00093C70 class$arrayM_inline{@ItemType} 
06:00094350 class$arrayM_inline{@ItemType}$vtable$  (Idle)
--- From 'Obj\mapm_redblack.875A0474.obj'
06:00094810 class$mapM_redBlack{@Key,@Data} 
06:00094E28 class$mapM_redBlack{@Key,@Data}$vtable$  (Idle)
--- From 'Obj\setm_redblack.16EF8DC5.obj'
06:00095240 class$setM_redBlack{@Type} 
06:000955DC class$setM_redBlack{@Type}$vtable$  (Idle)
--- From 'Obj\varm.B882E173.obj'
06:00095910 class$varM_unsigned 
06:00095A00 class$varM_unsigned$vtable$ 
06:00095B00 class$varM_reference{@Term} 
06:00095B44 $reference$varM_reference{@Term}_class$0$domain$ 
06:00095BE8 class$varM_reference{@Term}$vtable$ 
06:00095D50 class$varM_optional{@Term} 
06:00095E60 class$varM_optional{@Term}$vtable$ 
06:00095FA0 class$varM_lazy{@Term} 
06:000960BC class$varM_lazy{@Term}$vtable$ 
06:00096250 class$varM_integer 
06:00096340 class$varM_integer$vtable$ 
06:00096440 class$varM_boolean 
06:00096530 class$varM_boolean$vtable$ 
06:00096620 class$varM{@Term} 
06:0009689C class$varM{@Term}$vtable$ 
--- From 'Obj\collectionmsupport.3A44ED4E.obj'
06:00096B30 class$collectionSupport\collectionMsupport{@Type} 
06:00096D84 class$collectionSupport\collectionMsupport{@Type}$vtable$ 
--- From 'Obj\mapsupport.C7248B7B.obj'
06:00096F80 class$collectionSupport\collectionSupport{@Type} 
06:00097034 class$collectionSupport\collectionSupport{@Type}$vtable$ 
--- From 'Obj\mapmsupport.8CD6C048.obj'
06:000971F0 class$collectionSupport\mapMSupport{@Key,@Data} 
06:000975A4 class$collectionSupport\mapMSupport{@Key,@Data}$vtable$ 
--- From 'Obj\mapsupport.C7248B7B.obj'
06:00097880 class$collectionSupport\mapSupport{@Key,@Data} 
06:000979DC class$collectionSupport\mapSupport{@Key,@Data}$vtable$ 
--- From 'Obj\modifiablesupport.5D48FFF1.obj'
06:00097C00 class$collectionSupport\modifiableSupport{@Type} 
06:00097CB4 class$collectionSupport\modifiableSupport{@Type}$vtable$ 
--- From 'Obj\console.E8EB4F3C.obj'
06:00097E80 class$outputStream_console 
06:000982A8 class$outputStream_console$vtable$  (Idle)
06:00098550 class$inputStream_console 
06:00098950 class$inputStream_console$vtable$  (Idle)
06:00098BD0 class$console 
06:00098D04 $event$console_class$0$domain$ 
--- From 'Obj\core.5D9B9483.obj'
06:00098EA0 class$core 
06:00098EE0 $unit$core_class$0$domain$ 
--- From 'Obj\filesystem.5B0F823E.obj'
06:00098F00 $unsigned8$core_class$0$domain$ 
06:00098F20 $unsigned16$core_class$0$domain$ 
06:00098F6C $unsigned64_struct$core_class$0$domain$ 
--- From 'Obj\core.5D9B9483.obj'
06:00098F8C $integer8$core_class$0$domain$ 
06:00098FAC $integer16$core_class$0$domain$ 
--- From 'Obj\memory.568C55F8.obj'
06:00098FF8 $integer64_struct$core_class$0$domain$ 
--- From 'Obj\math.5D7D6037.obj'
06:000992F0 $value$core_class$0$domain$ 
06:0009937C $namedValue$core_class$1$domain$ 
--- From 'Obj\exceptiondump.2B9C9E40.obj'
06:0009939C $gmtTimeValue$core_class$0$domain$ 
06:000993C4 $localTimeValue$core_class$0$domain$ 
--- From 'Obj\core.5D9B9483.obj'
06:00099420 $exception$core_class$0$domain$ 
06:000994D0 $nativeGuid$core_class$0$domain$ 
--- From 'Obj\exception.B6F320E8.obj'
06:000994F0 $hResult$core_class$0$domain$ 
--- From 'Obj\core.5D9B9483.obj'
06:00099510 $byteCountOptional$core_class$0$domain$ 
--- From 'Obj\segmented.E9C86B20.obj'
06:00099530 $byteCount$core_class$0$domain$ 
--- From 'Obj\core.5D9B9483.obj'
06:00099550 $charCountOptional$core_class$0$domain$ 
06:00099570 $charCount$core_class$0$domain$ 
06:00099590 $positiveOptional$core_class$0$domain$ 
--- From 'Obj\list.A75CEA31.obj'
06:000995B0 $positive$core_class$0$domain$ 
--- From 'Obj\memory.568C55F8.obj'
06:000995E8 $tuple$core_class$2$domain$ 
--- From 'Obj\list.A75CEA31.obj'
06:00099624 $tuple$core_class$3$domain$ 
06:00099664 $tuple$core_class$4$domain$ 
06:000996A8 $tuple$core_class$5$domain$ 
06:000996F0 $tuple$core_class$6$domain$ 
06:0009973C $tuple$core_class$7$domain$ 
06:0009978C $tuple$core_class$8$domain$ 
06:000997E0 $tuple$core_class$9$domain$ 
06:00099838 $tuple$core_class$10$domain$ 
06:00099894 $tuple$core_class$11$domain$ 
06:000998F4 $tuple$core_class$12$domain$ 
--- From 'Obj\exceptiondump.2B9C9E40.obj'
06:00099948 $optional$core_class$1$domain$ 
--- From 'Obj\core.5D9B9483.obj'
06:000999A4 $either$core_class$2$domain$ 
06:000999D4 $function$core_class$1$domain$ 
06:00099A08 $function$core_class$2$domain$ 
--- From 'Obj\list.A75CEA31.obj'
06:00099A4C $function$core_class$3$domain$ 
--- From 'Obj\core.5D9B9483.obj'
06:00099AA0 $function$core_class$4$domain$ 
06:00099B04 $function$core_class$5$domain$ 
06:00099B78 $function$core_class$6$domain$ 
06:00099BFC $function$core_class$7$domain$ 
06:00099C90 $function$core_class$8$domain$ 
06:00099D34 $function$core_class$9$domain$ 
06:00099DE8 $function$core_class$10$domain$ 
06:00099EAC $function$core_class$11$domain$ 
06:00099EFC $function_dt$core_class$1$domain$ 
06:00099F30 $function_dt$core_class$2$domain$ 
06:00099F74 $function_dt$core_class$3$domain$ 
06:00099FC8 $function_dt$core_class$4$domain$ 
06:0009A02C $function_dt$core_class$5$domain$ 
06:0009A0A0 $function_dt$core_class$6$domain$ 
06:0009A124 $function_dt$core_class$7$domain$ 
06:0009A1B8 $function_dt$core_class$8$domain$ 
06:0009A25C $function_dt$core_class$9$domain$ 
06:0009A310 $function_dt$core_class$10$domain$ 
06:0009A3D4 $function_dt$core_class$11$domain$ 
06:0009A424 $function_nd$core_class$1$domain$ 
06:0009A458 $function_nd$core_class$2$domain$ 
06:0009A49C $function_nd$core_class$3$domain$ 
06:0009A4F0 $function_nd$core_class$4$domain$ 
06:0009A554 $function_nd$core_class$5$domain$ 
06:0009A5C8 $function_nd$core_class$6$domain$ 
06:0009A64C $function_nd$core_class$7$domain$ 
06:0009A6E0 $function_nd$core_class$8$domain$ 
06:0009A784 $function_nd$core_class$9$domain$ 
06:0009A838 $function_nd$core_class$10$domain$ 
06:0009A8FC $function_nd$core_class$11$domain$ 
06:0009A940 $predicate$core_class$0$domain$ 
06:0009A964 $predicate$core_class$1$domain$ 
06:0009A998 $predicate$core_class$2$domain$ 
06:0009A9DC $predicate$core_class$3$domain$ 
06:0009AA30 $predicate$core_class$4$domain$ 
06:0009AA94 $predicate$core_class$5$domain$ 
06:0009AB08 $predicate$core_class$6$domain$ 
06:0009AB8C $predicate$core_class$7$domain$ 
06:0009AC20 $predicate$core_class$8$domain$ 
06:0009ACC4 $predicate$core_class$9$domain$ 
06:0009AD78 $predicate$core_class$10$domain$ 
06:0009ADB8 $predicate_dt$core_class$0$domain$ 
--- From 'Obj\list.A75CEA31.obj'
06:0009ADDC $predicate_dt$core_class$1$domain$ 
06:0009AE10 $predicate_dt$core_class$2$domain$ 
--- From 'Obj\core.5D9B9483.obj'
06:0009AE54 $predicate_dt$core_class$3$domain$ 
06:0009AEA8 $predicate_dt$core_class$4$domain$ 
06:0009AF0C $predicate_dt$core_class$5$domain$ 
06:0009AF80 $predicate_dt$core_class$6$domain$ 
06:0009B004 $predicate_dt$core_class$7$domain$ 
06:0009B098 $predicate_dt$core_class$8$domain$ 
06:0009B13C $predicate_dt$core_class$9$domain$ 
06:0009B1F0 $predicate_dt$core_class$10$domain$ 
06:0009B230 $predicate_nd$core_class$0$domain$ 
06:0009B254 $predicate_nd$core_class$1$domain$ 
06:0009B288 $predicate_nd$core_class$2$domain$ 
06:0009B2CC $predicate_nd$core_class$3$domain$ 
06:0009B320 $predicate_nd$core_class$4$domain$ 
06:0009B384 $predicate_nd$core_class$5$domain$ 
06:0009B3F8 $predicate_nd$core_class$6$domain$ 
06:0009B47C $predicate_nd$core_class$7$domain$ 
06:0009B510 $predicate_nd$core_class$8$domain$ 
06:0009B5B4 $predicate_nd$core_class$9$domain$ 
06:0009B668 $predicate_nd$core_class$10$domain$ 
06:0009B6A8 $runnable$core_class$0$domain$ 
--- From 'Obj\list.A75CEA31.obj'
06:0009B6E4 $comparator$core_class$1$domain$ 
06:0009B72C $comparator$core_class$2$domain$ 
--- From 'Obj\core.5D9B9483.obj'
06:0009B766 $sortOrder$core_class$0$domain$ 
--- From 'Obj\exceptiondump.2B9C9E40.obj'
06:0009B7BC $sourceCursor$core_class$0$domain$ 
--- From 'Obj\core.5D9B9483.obj'
06:0009B7DC $packedCursor$core_class$0$domain$ 
--- From 'Obj\exceptiondump.2B9C9E40.obj'
06:0009B830 $programPoint$core_class$0$domain$ 
--- From 'Obj\core.5D9B9483.obj'
06:0009B850 $hScopeDescriptor$core_class$0$domain$ 
06:0009B87A $allowBoolean$core_class$0$domain$ 
06:0009B8B2 $defaultActionBoolean$core_class$0$domain$ 
06:0009B8EC $classInfo$core_class$0$domain$ 
--- From 'Obj\event.D92D3A63.obj'
06:0009BEE0 class$event7{@Type1,@Type2,@Type3,@Type4,@Type5,@Type6,@Type7} 
06:0009C4A0 class$event7{@Type1,@Type2,@Type3,@Type4,@Type5,@Type6,@Type7}$vtable$ 
06:0009CAF0 class$event6{@Type1,@Type2,@Type3,@Type4,@Type5,@Type6} 
06:0009CFEC class$event6{@Type1,@Type2,@Type3,@Type4,@Type5,@Type6}$vtable$ 
06:0009D5B0 class$event5{@Type1,@Type2,@Type3,@Type4,@Type5} 
06:0009D9F4 class$event5{@Type1,@Type2,@Type3,@Type4,@Type5}$vtable$ 
06:0009DF30 class$event4{@Type1,@Type2,@Type3,@Type4} 
06:0009E324 class$event4{@Type1,@Type2,@Type3,@Type4}$vtable$ 
06:0009E820 class$event3{@Type1,@Type2,@Type3} 
06:0009EBC4 class$event3{@Type1,@Type2,@Type3}$vtable$ 
06:0009F090 class$event2{@Type1,@Type2} 
06:0009F3E4 class$event2{@Type1,@Type2}$vtable$ 
06:0009F870 class$event1{@Type1} 
06:0009FB74 class$event1{@Type1}$vtable$ 
06:0009FFD0 class$event0 
06:000A023C class$event0$vtable$ 
--- From 'Obj\exception.B6F320E8.obj'
06:000A05D0 class$runtime_exception 
06:000A0670 class$exception_exception 
06:000A0720 class$exception 
06:000A0766 $kind$exception_class$0$domain$ 
06:000A07BC $programPointDescriptor$exception_class$0$domain$ 
--- From 'Obj\exceptiondump.2B9C9E40.obj'
06:000A084C $descriptor$exception_class$0$domain$ 
06:000A08B0 $traceInfo$exception_class$0$domain$ 
06:000A0938 $lineInfo$exception_class$0$domain$ 
--- From 'Obj\exception.B6F320E8.obj'
06:000A095C $raiser$exception_class$0$domain$ 
06:000A0A80 class$errorDescriptorInformation 
06:000A0BD4 class$errorDescriptorInformation$vtable$ 
--- From 'Obj\exceptiondump.2B9C9E40.obj'
06:000A0DC0 class$exceptionDump 
--- From 'Obj\filesystem.5B0F823E.obj'
06:000A0E70 class$outputStream_file 
06:000A12DC class$outputStream_file$vtable$  (Idle)
06:000A1590 class$messageFile 
06:000A1784 class$messageFile$vtable$ 
06:000A1A40 class$inputStream_file 
06:000A1F00 class$inputStream_file$vtable$  (Idle)
06:000A21F0 class$fileVersion 
06:000A225C $versionInformation$fileVersion_class$0$domain$ 
06:000A22C8 $fileVersionInformation$fileVersion_class$0$domain$ 
06:000A25B0 class$fileSystem_exception 
06:000A2660 class$filename 
06:000A26E0 class$file 
06:000A273E $overwrite$file_class$0$domain$ 
06:000A27F0 class$directory 
06:000A2866 $volumeType$directory_class$0$domain$ 
--- From 'Obj\list.A75CEA31.obj'
06:000A2950 class$list 
--- From 'Obj\math.5D7D6037.obj'
06:000A3020 class$math_exception 
06:000A30B0 class$math 
06:000A30E0 $inCircle$math_class$0$domain$ 
06:000A310C $aPeriod$math_class$0$domain$ 
06:000A3138 $uReal$math_class$0$domain$ 
--- From 'Obj\memory.568C55F8.obj'
06:000A31C0 class$memory 
06:000A3224 $contextMap$memory_class$0$domain$ 
06:000A3266 $memoryKind$memory_class$0$domain$ 
06:000A32B0 $pBinary$memory_class$0$domain$ 
06:000A32F4 $pBinaryNonAtomic$memory_class$0$domain$ 
06:000A3338 $pByteCount$memory_class$0$domain$ 
06:000A3384 $pChar$memory_class$0$domain$ 
06:000A33D0 $pChar8$memory_class$0$domain$ 
06:000A3414 $pCharCount$memory_class$0$domain$ 
06:000A3458 $pHandle$memory_class$0$domain$ 
06:000A349C $pInteger$memory_class$0$domain$ 
06:000A34E8 $pInteger16$memory_class$0$domain$ 
06:000A3534 $pInteger64$memory_class$0$domain$ 
06:000A3580 $pInteger8$memory_class$0$domain$ 
06:000A35C4 $pIntegerNative$memory_class$0$domain$ 
06:000A3608 $pObject$memory_class$0$domain$ 
06:000A364C $pPointer$memory_class$0$domain$ 
06:000A3698 $pReal$memory_class$0$domain$ 
06:000A36DC $pReal32$memory_class$0$domain$ 
06:000A3720 $pString$memory_class$0$domain$ 
06:000A3764 $pString8$memory_class$0$domain$ 
06:000A37A8 $pUnsigned$memory_class$0$domain$ 
06:000A37F4 $pUnsigned16$memory_class$0$domain$ 
06:000A3840 $pUnsigned64$memory_class$0$domain$ 
06:000A388C $pUnsigned8$memory_class$0$domain$ 
06:000A38D0 $pUnsignedNative$memory_class$0$domain$ 
06:000A3904 $pointerTo$memory_class$1$domain$ 
06:000A3BC0 class$bit 
06:000A3BF0 $unsigned4$bit_class$0$domain$ 
--- From 'Obj\segmented.E9C86B20.obj'
06:000A3C50 class$segmented 
06:000A3D5C $segmented$segmented_class$1$domain$ 
06:000A3DA4 $segmented_utf16$segmented_class$0$domain$ 
Frame 0A4000   Size 0003F0.  Name=<  PRODBG>, 	Chars=40000040h. [IR]
0A4000:000000 0003F0   PRODBG::PRODBG::PRODBG F=4
Frame 0A5000   Size 002DF0.  Name=<   .data>, 	Chars=C0000040h. [IRW]
0A5000:000000 0005D0   VIPPresD::DATA::DGROUP F=4
--- From 'Obj\console.E8EB4F3C.obj'
08:000A5000 $iterator{@Elem}$_global_class$1$domain$$presenter_descriptor$ 
--- From 'Obj\exception.B6F320E8.obj'
08:000A5010 $outputStream_binary$_global_class$0$domain$$presenter_descriptor$ 
--- From 'Obj\console.E8EB4F3C.obj'
08:000A5020 $segmentedSupport{@Segment}$_global_class$1$domain$$presenter_descriptor$ 
08:000A5030 $segmentedSupportSite{@Segment}$_global_class$1$domain$$presenter_descriptor$ 
--- From 'Obj\event.D92D3A63.obj'
08:000A5040 $event0$_global_class$0$domain$$presenter_descriptor$ 
08:000A5050 $listener$event0_interface$0$domain$$presenter_descriptor$ 
08:000A5060 $event1{@Type1}$_global_class$1$domain$$presenter_descriptor$ 
08:000A5070 $listener$event1{@Type1}_interface$0$domain$$presenter_descriptor$ 
08:000A5080 $event2{@Type1,@Type2}$_global_class$2$domain$$presenter_descriptor$ 
08:000A5090 $listener$event2{@Type1,@Type2}_interface$0$domain$$presenter_descriptor$ 
08:000A50A0 $event3{@Type1,@Type2,@Type3}$_global_class$3$domain$$presenter_descriptor$ 
08:000A50B0 $listener$event3{@Type1,@Type2,@Type3}_interface$0$domain$$presenter_descriptor$ 
08:000A50C0 $event4{@Type1,@Type2,@Type3,@Type4}$_global_class$4$domain$$presenter_descriptor$ 
08:000A50D0 $listener$event4{@Type1,@Type2,@Type3,@Type4}_interface$0$domain$$presenter_descriptor$ 
08:000A50E0 $event5{@Type1,@Type2,@Type3,@Type4,@Type5}$_global_class$5$domain$$presenter_descriptor$ 
08:000A50F0 $listener$event5{@Type1,@Type2,@Type3,@Type4,@Type5}_interface$0$domain$$presenter_descriptor$ 
08:000A5100 $event6{@Type1,@Type2,@Type3,@Type4,@Type5,@Type6}$_global_class$6$domain$$presenter_descriptor$ 
08:000A5110 $listener$event6{@Type1,@Type2,@Type3,@Type4,@Type5,@Type6}_interface$0$domain$$presenter_descriptor$ 
08:000A5120 $event7{@Type1,@Type2,@Type3,@Type4,@Type5,@Type6,@Type7}$_global_class$7$domain$$presenter_descriptor$ 
08:000A5130 $listener$event7{@Type1,@Type2,@Type3,@Type4,@Type5,@Type6,@Type7}_interface$0$domain$$presenter_descriptor$ 
--- From 'Obj\varm.B882E173.obj'
08:000A5140 $weakReference{@Type}$_global_class$1$domain$$presenter_descriptor$ 
--- From 'Obj\event.D92D3A63.obj'
08:000A5150 $object$_global_class$0$domain$$presenter_descriptor$ 
08:000A5160 $varM{@Term}$_global_class$1$domain$$presenter_descriptor$ 
08:000A5170 $varM_boolean$_global_class$0$domain$$presenter_descriptor$ 
08:000A5180 $varM_integer$_global_class$0$domain$$presenter_descriptor$ 
08:000A5190 $varM_lazy{@Term}$_global_class$1$domain$$presenter_descriptor$ 
08:000A51A0 $varM_optional{@Term}$_global_class$1$domain$$presenter_descriptor$ 
08:000A51B0 $varM_unsigned$_global_class$0$domain$$presenter_descriptor$ 
--- From 'Obj\exceptiondump.2B9C9E40.obj'
08:000A51C0 $errorDescriptorInformation$_global_class$0$domain$$presenter_descriptor$ 
08:000A51D0 $trapInformationObject$_global_class$0$domain$$presenter_descriptor$ 
08:000A51E0 $pfc\reflection\factDescriptor$_global_class$0$domain$$presenter_descriptor$ 
08:000A51F0 $pfc\reflection\functorDescriptor$_global_class$0$domain$$presenter_descriptor$ 
08:000A5200 $factRepresentationKind$pfc\reflection\functorDescriptor_interface$0$domain$$presenter_descriptor$ 
08:000A5210 $pfc\reflection\scopeDescriptor$_global_class$0$domain$$presenter_descriptor$ 
08:000A5220 $scopeKind$pfc\reflection\scopeDescriptor_interface$0$domain$$presenter_descriptor$ 
08:000A5230 $pfc\reflection\typeDescriptor$_global_class$0$domain$$presenter_descriptor$ 
08:000A5240 $pfc\reflection\typeLibrary$_global_class$0$domain$$presenter_descriptor$ 
08:000A5250 $presenter$pfc\reflection\typeLibrary_interface$0$domain$$presenter_descriptor$ 
08:000A5260 $pfc\reflection\typeLibrary_arrow$_global_class$0$domain$$presenter_descriptor$ 
08:000A5270 $formalParameter$pfc\reflection\typeLibrary_arrow_interface$0$domain$$presenter_descriptor$ 
08:000A5280 $typePattern$pfc\reflection\typeLibrary_arrow_interface$0$domain$$presenter_descriptor$ 
08:000A5290 $pfc\reflection\typeLibrary_functor$_global_class$0$domain$$presenter_descriptor$ 
08:000A52A0 $pfc\reflection\typeLibrary_numeric$_global_class$0$domain$$presenter_descriptor$ 
08:000A52B0 $bufferSupport$_global_class$0$domain$$presenter_descriptor$ 
08:000A52C0 $inputStream$_global_class$0$domain$$presenter_descriptor$ 
08:000A52D0 $inputBuffer$_global_class$0$domain$$presenter_descriptor$ 
08:000A52E0 $inputSupport$_global_class$0$domain$$presenter_descriptor$ 
08:000A52F0 $outputStream$_global_class$0$domain$$presenter_descriptor$ 
08:000A5300 $outputSerializer$outputStream_interface$0$domain$$presenter_descriptor$ 
08:000A5310 $outputStreamSegmented{@Segment}$_global_class$1$domain$$presenter_descriptor$ 
08:000A5320 $stdioState$_global_class$0$domain$$presenter_descriptor$ 
08:000A5330 $stream$_global_class$0$domain$$presenter_descriptor$ 
08:000A5340 $mode$stream_interface$0$domain$$presenter_descriptor$ 
08:000A5350 $outputStream_string$_global_class$0$domain$$presenter_descriptor$ 
--- From 'Obj\event.D92D3A63.obj'
08:000A5360 $runtimeLinknamesKernel$_global_class$0$domain$$presenter_descriptor$ 
08:000A5370 $runtimeLinkNamesRun$_global_class$0$domain$$presenter_descriptor$ 
--- From 'Obj\console.E8EB4F3C.obj'
08:000A5380 $outputBuffer$_global_class$0$domain$$presenter_descriptor$ 
08:000A5390 $outputStreamSegmentedSupport{@Segment}$_global_class$1$domain$$presenter_descriptor$ 
08:000A53A0 $outputStreamSupport$_global_class$0$domain$$presenter_descriptor$ 
08:000A53B0 $outputStreamSupportSite$_global_class$0$domain$$presenter_descriptor$ 
--- From 'Obj\core.5D9B9483.obj'
08:000A53C0 $calendarDuration$_global_class$0$domain$$presenter_descriptor$ 
08:000A53D0 $duration$_global_class$0$domain$$presenter_descriptor$ 
08:000A53E0 $gmtTime$_global_class$0$domain$$presenter_descriptor$ 
08:000A53F0 $timeInterval$_global_class$0$domain$$presenter_descriptor$ 
08:000A5400 $calendarInterval$_global_class$0$domain$$presenter_descriptor$ 
08:000A5410 $time$_global_class$0$domain$$presenter_descriptor$ 
08:000A5420 $timeFormatter$_global_class$0$domain$$presenter_descriptor$ 
--- From 'Obj\collectionmsupport.3A44ED4E.obj'
08:000A5430 $collection{@Type}$_global_class$1$domain$$presenter_descriptor$ 
--- From 'Obj\arraym_inline.F665267A.obj'
08:000A5440 $arrayM_inline{@ItemType}$_global_class$1$domain$$presenter_descriptor$ 
--- From 'Obj\collectionmsupport.3A44ED4E.obj'
08:000A5450 $map{@Key,@Data}$_global_class$2$domain$$presenter_descriptor$ 
08:000A5460 $mapM{@Key,@Data}$_global_class$2$domain$$presenter_descriptor$ 
08:000A5470 $mapP{@Key,@Data}$_global_class$2$domain$$presenter_descriptor$ 
08:000A5480 $modifiable{@Type}$_global_class$1$domain$$presenter_descriptor$ 
08:000A5490 $multiMapM{@Key,@Data}$_global_class$2$domain$$presenter_descriptor$ 
08:000A54A0 $persistent{@Self,@Type}$_global_class$2$domain$$presenter_descriptor$ 
08:000A54B0 $queueM{@Type}$_global_class$1$domain$$presenter_descriptor$ 
08:000A54C0 $queueP{@Type}$_global_class$1$domain$$presenter_descriptor$ 
08:000A54D0 $set{@Type}$_global_class$1$domain$$presenter_descriptor$ 
08:000A54E0 $setM{@Type}$_global_class$1$domain$$presenter_descriptor$ 
08:000A54F0 $setP{@Type}$_global_class$1$domain$$presenter_descriptor$ 
--- From 'Obj\filesystem.5B0F823E.obj'
08:000A5500 $iStream_native$_global_class$0$domain$$presenter_descriptor$ 
08:000A5510 $iUnknown$_global_class$0$domain$$presenter_descriptor$ 
--- From 'Obj\mapmsupport.8CD6C048.obj'
08:000A5520 $collectionSupport\mapMSupport{@Key,@Data}$_global_class$2$domain$$presenter_descriptor$ 
08:000A5530 $collectionSupport\mapMSupportSite{@Key,@Data}$_global_class$2$domain$$presenter_descriptor$ 
--- From 'Obj\collectionmsupport.3A44ED4E.obj'
08:000A5540 $collectionSupport\collectionSupport{@Type}$_global_class$1$domain$$presenter_descriptor$ 
08:000A5550 $collectionSupport\collectionSupportSite{@Type}$_global_class$1$domain$$presenter_descriptor$ 
--- From 'Obj\mapmsupport.8CD6C048.obj'
08:000A5560 $collectionSupport\mapSupport{@Key,@Data}$_global_class$2$domain$$presenter_descriptor$ 
08:000A5570 $collectionSupport\mapSupportSite{@Key,@Data}$_global_class$2$domain$$presenter_descriptor$ 
--- From 'Obj\collectionmsupport.3A44ED4E.obj'
08:000A5580 $collectionSupport\modifiableSupport{@Type}$_global_class$1$domain$$presenter_descriptor$ 
08:000A5590 $collectionSupport\modifiableSupportSite{@Type}$_global_class$1$domain$$presenter_descriptor$ 
08:000A55A0 $collectionSupport\collectionMsupport{@Type}$_global_class$1$domain$$presenter_descriptor$ 
08:000A55B0 $collectionSupport\collectionMsupportSite{@Type}$_global_class$1$domain$$presenter_descriptor$ 
--- From 'Obj\core.5D9B9483.obj'
08:000A55C0 $resourceIdentifiers$_global_class$0$domain$$presenter_descriptor$ 
0A5000:0005D0 002814   .data::DATA::DGROUP F=4
0A5000:002DE4 000004   .bss::BSS::DGROUP F=4
Frame 0A8000   Size 000050.  Name=< .gcroot>, 	Chars=C0000040h. [IRW]
0A8000:000000 00004C   .gcroot::.gcroot::.gcroot F=4
--- Total Cnt   =  5096 --------
[import] 'Obj\filesystem_api.C5B8AF1A.obj' KERNEL32.dll. _SetVolumeLabelW@8 
[import] 'Obj\filesystem_api.C5B8AF1A.obj' KERNEL32.dll. _GetFileSizeEx@8 
[import] 'Obj\gui_api.9FE53D0D.obj' GDI32.dll. _Chord@36 
[import] 'Obj\filesystem.5B0F823E.obj' vipKernel.dll. ?OSCompareMemory@Kernel@VIP@@YGHPBX0I@Z 
[import] 'Obj\string8_api.53D65538.obj' KERNEL32.dll. _WideCharToMultiByte@32 
[import] 'Obj\filesystem.5B0F823E.obj' ADVAPI32.dll. _IsTextUnicode@12 
[import] 'Obj\string8_api.53D65538.obj' USER32.dll. _CharNextExA@12 
[import] 'Obj\gui_api.9FE53D0D.obj' USER32.dll. _TranslateAccelerator@12 
[import] 'Obj\gui_api.9FE53D0D.obj' GDI32.dll. _PolyPolyline@16 
[import] 'Obj\gui_api.9FE53D0D.obj' USER32.dll. _PostMessageW@16 
[import] 'Obj\systeminformation_api.809129C1.obj' KERNEL32.dll. _GetVersionExW@4 
[import] 'Obj\gui_api.9FE53D0D.obj' GDI32.dll. _GetObjectW@12 
[import] 'Obj\gui_api.9FE53D0D.obj' GDI32.dll. _PolylineTo@12 
[import] 'Obj\gui_api.9FE53D0D.obj' GDI32.dll. _CreatePen@12 
[import] 'Obj\gui_api.9FE53D0D.obj' GDI32.dll. _Polyline@12 
[import] 'Obj\gui_api.9FE53D0D.obj' GDI32.dll. _SelectPalette@12 
[import] 'Obj\systeminformation_api.809129C1.obj' KERNEL32.dll. _GetSystemInfo@4 
[import] 'Obj\gui_api.9FE53D0D.obj' GDI32.dll. _GetTextFaceW@12 
[import] 'Obj\systeminformation_api.809129C1.obj' KERNEL32.dll. _GetNativeSystemInfo@4 
[import] 'Obj\gui_api.9FE53D0D.obj' GDI32.dll. _SelectClipRgn@8 
[import] 'Obj\systeminformation_api.809129C1.obj' ADVAPI32.dll. _GetUserNameW@8 
[import] 'Obj\gui_api.9FE53D0D.obj' GDI32.dll. _SetBkColor@8 
[import] 'Obj\varm.B882E173.obj' vipRun.dll. ?setFactArity1Value@RunTime@VIP@@YGXQBVfactFunctorDescriptor@12@QBVtypeLibrary@12@PAXQAPAX@Z 
[import] 'Obj\gui_api.9FE53D0D.obj' GDI32.dll. _SetTextColor@8 
[import] 'Obj\systeminformation_api.809129C1.obj' Secur32.dll. _GetUserNameExW@12 
[import] 'Obj\gui_api.9FE53D0D.obj' USER32.dll. _GetDlgItem@8 
